(lp0
(dp1
S'start_gripper_pos'
p2
F0.0
sS'curr_pos'
p3
(lp4
F0.16218117525978715
aF0.46136312573865806
aF0.5961520020051178
aF3.131066091680989
aF8.012926988678746e-05
aF-0.0003099992430177877
asS'gripper_ac'
p5
I0
sS'curr_gripper_pos'
p6
F0.0
sS'curr_q'
p7
(F-1.5670040289508265
F-1.192134205495016
F-1.9606087843524378
F-1.570172135029928
F1.5709196329116821
F0.004101226571947336
tp8
sS'xdot_h'
p9
(lp10
F-0.15294189453125
aF0.16705932617187502
aF0.0
aF0.0
aF0.0
aF0.0
asS'trans_mode'
p11
I01
sS'start_pos'
p12
(lp13
F0.16413636168890774
aF0.45937007769410176
aF0.5960848031775576
aF3.1309711736156003
aF0.0002087530487523265
aF-0.00031326910711722993
asS'slow_mode'
p14
I00
sS'start_q'
p15
(F-1.5712993780719202
F-1.189857308064596
F-1.9620698134051722
F-1.5710719267474573
F1.5709915161132812
F-8.374849428349762e-05
tp16
sa(dp17
g2
F0.0
sg3
(lp18
F0.15037297586404294
aF0.47363305862726196
aF0.5959623065590312
aF3.1306745773266833
aF2.757478403243186e-05
aF0.0002230010881353377
asg5
I0
sg6
F0.0
sg7
(F-1.5420807043658655
F-1.2069690863238733
F-1.9517834822284144
F-1.5645492712603968
F1.5711349248886108
F0.028490623459219933
tp19
sg9
(lp20
F-0.15294189453125
aF0.17960815429687502
aF0.0
aF0.0
aF0.0
aF0.0
asg11
I01
sg12
g13
sg14
I00
sg15
g16
sa(dp21
g2
F0.0
sg3
(lp22
F0.13484121680064876
aF0.4901875595146246
aF0.5957403587104803
aF3.1307849141844675
aF1.6737957268621155e-05
aF1.1270074925093926e-05
asg5
I0
sg6
F0.0
sg7
(F-1.5110295454608362
F-1.228262726460592
F-1.9387806097613733
F-1.5561330954181116
F1.5714584589004517
F0.05975184962153435
tp23
sg9
(lp24
F-0.14039306640625002
aF0.18745117187500002
aF0.0
aF0.0
aF0.0
aF0.0
asg11
I01
sg12
g13
sg14
I00
sg15
g16
sa(dp25
g2
F0.0
sg3
(lp26
F0.11829555536981867
aF0.5089053249803671
aF0.5955719416412493
aF3.131170579681085
aF4.08075817343846e-05
aF-0.0001871739230267574
asg5
I0
sg6
F0.0
sg7
(F-1.4802044073687952
F-1.254134480153219
F-1.9222443739520472
F-1.5463855902301233
F1.5717817544937134
F0.09077376872301102
tp27
sg9
(lp28
F-0.11529541015625
aF0.2
aF0.0
aF0.0
aF0.0
aF0.0
asg11
I01
sg12
g13
sg14
I00
sg15
g16
sa(dp29
g2
F0.0
sg3
(lp30
F0.10375128871846016
aF0.5284872590172788
aF0.5951275466075909
aF3.1312176420041307
aF4.053580478614929e-05
aF-0.0003835096014507939
asg5
I0
sg6
F0.0
sg7
(F-1.4555648008929651
F-1.2835057417498987
F-1.9030135313617151
F-1.536170784627096
F1.572033405303955
F0.11560845375061035
tp31
sg9
(lp32
F-0.07137451171875
aF0.2
aF0.0
aF0.0
aF0.0
aF0.0
asg11
I01
sg12
g13
sg14
I00
sg15
g16
sa(dp33
g2
F0.0
sg3
(lp34
F0.09399279798915183
aF0.5474594869678903
aF0.5944040941132344
aF3.1308783769741892
aF6.803146645598115e-06
aF-0.00036609140293185447
asg5
I0
sg6
F0.0
sg7
(F-1.4414680639850062
F-1.3140881697284144
F-1.8824289480792444
F-1.5264952818499964
F1.5721887350082397
F0.12968692183494568
tp35
sg9
(lp36
F-0.029022216796875
aF0.2
aF0.0
aF0.0
aF0.0
aF0.0
asg11
I01
sg12
g13
sg14
I00
sg15
g16
sa(dp37
g2
F0.0
sg3
(lp38
F0.08861651037616002
aF0.5684427860996811
aF0.5937284665569813
aF3.1309098307833994
aF6.736516962481273e-05
aF-0.0005326838591667599
asg5
I0
sg6
F0.0
sg7
(F-1.4367292563067835
F-1.3495362440692347
F-1.857161823903219
F-1.5162680784808558
F1.5722966194152832
F0.1345914602279663
tp39
sg9
(lp40
F-0.022747802734375003
aF0.2
aF0.0
aF0.0
aF0.0
aF0.0
asg11
I01
sg12
g13
sg14
I00
sg15
g16
sa(dp41
g2
F0.0
sg3
(lp42
F0.08606696590888284
aF0.5878231461327307
aF0.5930437870248473
aF3.1308677782500585
aF0.00018434976735991337
aF-0.0005093066662423066
asg5
I0
sg6
F0.0
sg7
(F-1.4368603865252894
F-1.3827560583697718
F-1.8323724905597132
F-1.5078638235675257
F1.5724165439605713
F0.13443566858768463
tp43
sg9
(lp44
F-0.022747802734375003
aF0.2
aF0.0
aF0.0
aF0.0
aF0.0
asg11
I01
sg12
g13
sg14
I00
sg15
g16
sa(dp45
g2
F0.0
sg3
(lp46
F0.08368533442277247
aF0.6087912239677281
aF0.5920871714261695
aF3.130697340865744
aF0.0001709466778367107
aF-0.000364236604050636
asg5
I0
sg6
F0.0
sg7
(F-1.4376028219806116
F-1.4185650984393519
F-1.8047083059894007
F-1.4998911062823694
F1.5724165439605713
F0.1335480809211731
tp47
sg9
(lp48
F-0.022747802734375003
aF0.2
aF0.0
aF0.0
aF0.0
aF0.0
asg11
I01
sg12
g13
sg14
I00
sg15
g16
sa(dp49
g2
F0.0
sg3
(lp50
F0.08136095630268002
aF0.6296487360593496
aF0.5914267060357611
aF3.1309375370147947
aF0.00024693583751609184
aF-0.0004225007151687986
asg5
I0
sg6
F0.0
sg7
(F-1.4383681456195276
F-1.4538348356830042
F-1.7757256666766565
F-1.493357006703512
F1.572452425956726
F0.13284064829349518
tp51
sg9
(lp52
F-0.022747802734375003
aF0.2
aF0.0
aF0.0
aF0.0
aF0.0
asg11
I01
sg12
g13
sg14
I00
sg15
g16
sa(dp53
g2
F0.0
sg3
(lp54
F0.0791414136038108
aF0.6488359458846462
aF0.5906686830371667
aF3.130720281566769
aF0.0002255728653502764
aF-0.00024205057053338706
asg5
I0
sg6
F0.0
sg7
(F-1.438895050679342
F-1.486133877431051
F-1.7482026259051722
F-1.488800350819723
F1.572452425956726
F0.13213320076465607
tp55
sg9
(lp56
F-0.022747802734375003
aF0.2
aF0.0
aF0.0
aF0.0
aF0.0
asg11
I01
sg12
g13
sg14
I00
sg15
g16
sa(dp57
g2
F0.0
sg3
(lp58
F0.07677146224673193
aF0.6696741645285303
aF0.5899213896621962
aF3.130559222071622
aF0.00021076411232172902
aF-0.00024095939536170044
asg5
I0
sg6
F0.0
sg7
(F-1.439493481312887
F-1.5209978262530726
F-1.7171333471881312
F-1.4851682821856897
F1.572452425956726
F0.13153360784053802
tp59
sg9
(lp60
F-0.022747802734375003
aF0.2
aF0.0
aF0.0
aF0.0
aF0.0
asg11
I01
sg12
g13
sg14
I00
sg15
g16
sa(dp61
g2
F0.0
sg3
(lp62
F0.07462915953019182
aF0.6888564305599013
aF0.5892823111705101
aF3.1306270951104236
aF0.00021440904663375964
aF-0.0002034056948489941
asg5
I0
sg6
F0.0
sg7
(F-1.4400675932513636
F-1.5529025236712855
F-1.687524143849508
F-1.4828060309039515
F1.572440505027771
F0.13092204928398132
tp63
sg9
(lp64
F-0.022747802734375003
aF0.2
aF0.0
aF0.0
aF0.0
aF0.0
asg11
I01
sg12
g13
sg14
I00
sg15
g16
sa(dp65
g2
F0.0
sg3
(lp66
F0.07227085699008536
aF0.7096713469978799
aF0.5884599298713502
aF3.130456203060928
aF0.00018535913001791423
aF-0.00023844615026752462
asg5
I0
sg6
F0.0
sg7
(F-1.440606419240133
F-1.5874317328082483
F-1.6544273535357874
F-1.4815476576434534
F1.5724284648895264
F0.1304183304309845
tp67
sg9
(lp68
F-0.022747802734375003
aF0.2
aF0.0
aF0.0
aF0.0
aF0.0
asg11
I01
sg12
g13
sg14
I00
sg15
g16
sa(dp69
g2
F0.0
sg3
(lp70
F0.06992492218788736
aF0.7304865378056244
aF0.5878021353138713
aF3.1303664687569923
aF0.00017962996250054088
aF-0.00022515970646856895
asg5
I0
sg6
F0.0
sg7
(F-1.4411323706256312
F-1.6218188444720667
F-1.619927231465475
F-1.4817512671100062
F1.5724284648895264
F0.12987904250621796
tp71
sg9
(lp72
F-0.022747802734375003
aF0.2
aF0.0
aF0.0
aF0.0
aF0.0
asg11
I01
sg12
g13
sg14
I00
sg15
g16
sa(dp73
g2
F0.0
sg3
(lp74
F0.0677281718461132
aF0.7496806634708012
aF0.5870343572737037
aF3.1303324906499235
aF0.0002297131486210178
aF-9.321851198091795e-05
asg5
I0
sg6
F0.0
sg7
(F-1.4415515104876917
F-1.6534846464740198
F-1.5873306433307093
F-1.4827101866351526
F1.5724763870239258
F0.12932738661766052
tp75
sg9
(lp76
F-0.022747802734375003
aF0.2
aF0.0
aF0.0
aF0.0
aF0.0
asg11
I01
sg12
g13
sg14
I00
sg15
g16
sa(dp77
g2
F0.0
sg3
(lp78
F0.06542363665455891
aF0.7702881196461784
aF0.5866725830352272
aF3.130754876996444
aF0.00028944344761872097
aF-0.00014001501613368034
asg5
I0
sg6
F0.0
sg7
(F-1.4420421759234827
F-1.6873329321490687
F-1.5505865255938929
F-1.4851802031146448
F1.5724763870239258
F0.12888360023498535
tp79
sg9
(lp80
F-0.022747802734375003
aF0.2
aF0.0
aF0.0
aF0.0
aF0.0
asg11
I01
sg12
g13
sg14
I00
sg15
g16
sa(dp81
g2
F0.0
sg3
(lp82
F0.06317906146731107
aF0.7894866010913677
aF0.5860720018765172
aF3.1307244597610753
aF0.0003127794064684442
aF-0.0001636780366676894
asg5
I0
sg6
F0.0
sg7
(F-1.4423535505877894
F-1.7189763228045862
F-1.5155060927020472
F-1.4886449019061487
F1.5725003480911255
F0.12859560549259186
tp83
sg9
(lp84
F-0.047845458984375006
aF0.2
aF0.0
aF0.0
aF0.0
aF0.0
asg11
I01
sg12
g13
sg14
I00
sg15
g16
sa(dp85
g2
F0.0
sg3
(lp86
F0.05986762688532025
aF0.8101042264837002
aF0.5854734604773077
aF3.1309048674638995
aF0.00027884829453234485
aF-0.00018875509132946624
asg5
I0
sg6
F0.0
sg7
(F-1.4415395895587366
F-1.752885643635885
F-1.4766972700702112
F-1.4933684507953089
F1.572452425956726
F0.12943525612354279
tp87
sg9
(lp88
F-0.061962890625
aF0.2
aF0.0
aF0.0
aF0.0
aF0.0
asg11
I01
sg12
g13
sg14
I00
sg15
g16
sa(dp89
g2
F0.0
sg3
(lp90
F0.05436995915690373
aF0.830735269255629
aF0.5847957607460039
aF3.130987933189445
aF0.00022759721993226916
aF-0.0003506864235904633
asg5
I0
sg6
F0.0
sg7
(F-1.4381168524371546
F-1.7867477575885218
F-1.4368551413165491
F-1.4992669264422815
F1.5724284648895264
F0.13302040100097656
tp91
sg9
(lp92
F-0.061962890625
aF0.2
aF0.0
aF0.0
aF0.0
aF0.0
asg11
I01
sg12
g13
sg14
I00
sg15
g16
sa(dp93
g2
F0.0
sg3
(lp94
F0.04821948577641955
aF0.8498390610591484
aF0.5843375032449378
aF3.130868711009114
aF0.00015380683944471617
aF-0.00035925086903835677
asg5
I0
sg6
F0.0
sg7
(F-1.4338443914996546
F-1.8182366530047815
F-1.3983891646014612
F-1.5063651243792933
F1.5724165439605713
F0.13730177283287048
tp95
sg9
(lp96
F-0.087060546875
aF0.2
aF0.1937255859375
aF0.0
aF0.0
aF0.0
asg11
I01
sg12
g13
sg14
I00
sg15
g16
sa(dp97
g2
F0.0
sg3
(lp98
F0.040113879611452644
aF0.8703053547886271
aF0.5922572061099425
aF3.1316457683975742
aF0.00020245090468012824
aF-0.00016779333298319412
asg5
I0
sg6
F0.0
sg7
(F-1.4277294317828577
F-1.851224724446432
F-1.342470947896139
F-1.5285094420062464
F1.5724165439605713
F0.14322572946548462
tp99
sg9
(lp100
F-0.12000122070312501
aF0.2
aF0.13255004882812502
aF0.0
aF0.0
aF0.0
asg11
I01
sg12
g13
sg14
I00
sg15
g16
sa(dp101
g2
F0.0
sg3
(lp102
F0.02932448860778654
aF0.8885183874985303
aF0.606564365258106
aF3.131855788767686
aF0.00028865437826683924
aF-0.00016374200262423284
asg5
I0
sg6
F0.0
sg7
(F-1.4185026327716272
F-1.8809164206134241
F-1.2785652319537562
F-1.5624874273883265
F1.5725603103637695
F0.15244758129119873
tp103
sg9
(lp104
F-0.12156982421875001
aF0.2
aF0.0
aF0.0
aF0.0
aF0.0
asg11
I01
sg12
g13
sg14
I00
sg15
g16
sa(dp105
g2
F0.0
sg3
(lp106
F0.016381069131289613
aF0.9088985258446507
aF0.6083835209795192
aF3.13061441835219
aF6.310195524381758e-05
aF-0.0002580947777105081
asg5
I0
sg6
F0.0
sg7
(F-1.4076717535602015
F-1.9161470572101038
F-1.2277792135821741
F-1.5792844931231897
F1.5726442337036133
F0.16337232291698456
tp107
sg9
(lp108
F-0.12156982421875001
aF0.2
aF0.0
aF0.0
aF0.0
aF0.0
asg11
I01
sg12
g13
sg14
I00
sg15
g16
sa(dp109
g2
F0.0
sg3
(lp110
F0.00434564484771241
aF0.9276682938966915
aF0.6076445011535982
aF3.130837839796096
aF0.00012993256625186612
aF-0.00023031532724494935
asg5
I0
sg6
F0.0
sg7
(F-1.3980258146869105
F-1.9492319265948694
F-1.1835101286517542
F-1.5902188459979456
F1.5727756023406982
F0.17298966646194458
tp111
sg9
(lp112
F-0.12156982421875001
aF0.2
aF0.0
aF0.0
aF0.0
aF0.0
asg11
I01
sg12
g13
sg14
I00
sg15
g16
sa(dp113
g2
F0.0
sg3
(lp114
F-0.008631439384750767
aF0.947657518232552
aF0.6066487765977759
aF3.1306858598815954
aF0.00011764093644792176
aF-0.00011885428950640031
asg5
I0
sg6
F0.0
sg7
(F-1.3880322615252894
F-1.9854825178729456
F-1.1339991728412073
F-1.6036108175860804
F1.5728955268859863
F0.1828710436820984
tp115
sg9
(lp116
F0.0
aF0.0
aF0.0
aF0.0
aF0.0
aF0.0
asg11
I01
sg12
g13
sg14
I00
sg15
g16
sa(dp117
g2
F0.0
sg3
(lp118
F-0.0163158608092647
aF0.9597866350392048
aF0.6059777648388643
aF3.130544494159581
aF0.00010206840626948447
aF-0.00014296512874598569
asg5
I0
sg6
F0.0
sg7
(F-1.3823836485492151
F-2.0080192724811
F-1.1026480833636683
F-1.6125548521624964
F1.5729674100875854
F0.18854331970214844
tp119
sg9
(lp120
F0.0
aF0.0
aF0.0
aF0.0
aF0.0
aF0.0
asg11
I01
sg12
g13
sg14
I00
sg15
g16
sa(dp121
g2
F0.0
sg3
(lp122
F-0.016454138696898463
aF0.9602082909733234
aF0.6062662748547135
aF3.1308151881821025
aF0.00015140427371106708
aF-0.0002985606059101663
asg5
I0
sg6
F0.0
sg7
(F-1.3823235670672815
F-2.0087745825396937
F-1.1011012236224573
F-1.6130707899676722
F1.5729674100875854
F0.18875904381275177
tp123
sg9
(lp124
F0.0
aF0.0
aF0.0
aF0.0
aF0.0
aF0.0
asg11
I01
sg12
g13
sg14
I00
sg15
g16
sa(dp125
g2
F0.0
sg3
(lp126
F-0.01644470672311915
aF0.9600986391088755
aF0.6062892780334568
aF3.1308859233966526
aF0.0001656856218317211
aF-0.0002147196082713594
asg5
I0
sg6
F0.0
sg7
(F-1.3823116461383265
F-2.008559052144186
F-1.1013887564288538
F-1.6129267851458948
F1.5729674100875854
F0.18868713080883026
tp127
sg9
(lp128
F0.0
aF0.0
aF0.0
aF0.0
aF0.0
aF0.0
asg11
I01
sg12
g13
sg14
I00
sg15
g16
sa(dp129
g2
F0.0
sg3
(lp130
F-0.016411058852531052
aF0.9599824305437065
aF0.6062994622480558
aF3.130815204575756
aF0.0001525668101904235
aF-0.00019069736343636147
asg5
I0
sg6
F0.0
sg7
(F-1.3823235670672815
F-2.008355442677633
F-1.1016524473773401
F-1.61293870607485
F1.5729674100875854
F0.1886511743068695
tp131
sg9
(lp132
F0.0
aF0.0
aF0.0
aF0.0
aF0.0
aF0.0
asg11
I01
sg12
g13
sg14
I00
sg15
g16
sa(dp133
g2
F0.0
sg3
(lp134
F-0.016390004432500747
aF0.9599865676791436
aF0.6063185729151989
aF3.1308598086549897
aF0.00017334704868805437
aF-0.00020267768232259804
asg5
I0
sg6
F0.0
sg7
(F-1.3823474089251917
F-2.008355442677633
F-1.10162860551943
F-1.6129148642169397
F1.5729793310165405
F0.18863919377326965
tp135
sg9
(lp136
F0.0
aF0.0
aF0.0
aF0.0
aF0.0
aF0.0
asg11
I01
sg12
g13
sg14
I00
sg15
g16
sa(dp137
g2
F0.0
sg3
(lp138
F-0.016433778305063682
aF0.959987080947975
aF0.6063267546883556
aF3.1308760095404944
aF0.00015191959287647367
aF-0.00016671949440837046
asg5
I0
sg6
F0.0
sg7
(F-1.3822997252093714
F-2.008355442677633
F-1.101616684590475
F-1.6129148642169397
F1.5729553699493408
F0.1886511743068695
tp139
sg9
(lp140
F0.0
aF0.0
aF0.0
aF0.0
aF0.0
aF0.0
asg11
I01
sg12
g13
sg14
I00
sg15
g16
sa(dp141
g2
F0.0
sg3
(lp142
F-0.016387571823440927
aF0.9599856050375685
aF0.6062882296561397
aF3.130840416439367
aF0.0001453806227020684
aF-0.00019044881468282212
asg5
I0
sg6
F0.0
sg7
(F-1.3823474089251917
F-2.008355442677633
F-1.1016767660724085
F-1.6128910223590296
F1.5729553699493408
F0.1886272132396698
tp143
sg9
(lp144
F0.0
aF0.0
aF0.0
aF0.0
aF0.0
aF0.0
asg11
I01
sg12
g13
sg14
I00
sg15
g16
sa(dp145
g2
F0.0
sg3
(lp146
F-0.016507599361729998
aF0.9608524857259115
aF0.6064286053847788
aF3.1310035189711516
aF0.0001900400796316589
aF-0.00011886461692595586
asg5
I0
sg6
F0.0
sg7
(F-1.3823955694781702
F-2.009949509297506
F-1.099147144948141
F-1.6136582533465784
F1.5729674100875854
F0.18850736320018768
tp147
sg9
(lp148
F-0.07451171875
aF0.19686279296875
aF0.0
aF0.0
aF0.0
aF0.0
asg11
I01
sg12
g13
sg14
I00
sg15
g16
sa(dp149
g2
F0.0
sg3
(lp150
F-0.019414652671042452
aF0.9711317738171065
aF0.6067621341102905
aF3.1315785802752716
aF0.0003143570356525104
aF-0.00013296051274165293
asg5
I0
sg6
F0.0
sg7
(F-1.3814261595355433
F-2.0292261282550257
F-1.0704558531390589
F-1.6224826017962855
F1.5729913711547852
F0.18949082493782043
tp151
sg9
(lp152
F-0.076080322265625
aF0.2
aF0.0
aF0.0
aF0.0
aF0.0
asg11
I01
sg12
g13
sg14
I00
sg15
g16
sa(dp153
g2
F0.0
sg3
(lp154
F-0.02637997537153111
aF0.990315398276073
aF0.6056441051276504
aF3.130947739683787
aF0.0001715283931309952
aF-3.157154989584528e-05
asg5
I0
sg6
F0.0
sg7
(F-1.378122631703512
F-2.0662811438189905
F-1.01701528230776
F-1.6395075956927698
F1.5730032920837402
F0.1926928609609604
tp155
sg9
(lp156
F0.0
aF0.0
aF0.0
aF0.0
aF0.0
aF0.0
asg11
I01
sg12
g13
sg14
I00
sg15
g16
sa(dp157
g2
F0.0
sg3
(lp158
F-0.02919623724763477
aF1.000497376707758
aF0.6049573802996624
aF3.13049785123393
aF5.9243006151809546e-05
aF-0.0003204536405738199
asg5
I0
sg6
F0.0
sg7
(F-1.3772967497455042
F-2.0864089171039026
F-0.9875529448138636
F-1.6493027845965784
F1.5729913711547852
F0.19380776584148407
tp159
sg9
(lp160
F0.0
aF0.0
aF0.0
aF0.0
aF0.0
aF0.0
asg11
I01
sg12
g13
sg14
I00
sg15
g16
sa(dp161
g2
F0.0
sg3
(lp162
F-0.02922092902726949
aF1.0011101411635728
aF0.6052097581860112
aF3.130919016337035
aF0.00015431376647630481
aF-0.0003924203632587919
asg5
I0
sg6
F0.0
sg7
(F-1.377392594014303
F-2.0875723997699183
F-0.9854186216937464
F-1.6498420874225062
F1.5730032920837402
F0.19378380477428436
tp163
sg9
(lp164
F0.0
aF0.0
aF0.0
aF0.0
aF0.0
aF0.0
asg11
I01
sg12
g13
sg14
I00
sg15
g16
sa(dp165
g2
F0.0
sg3
(lp166
F-0.029211190228865293
aF1.001060415815543
aF0.6052292088803022
aF3.1310954210063757
aF0.00018906029075514038
aF-0.0003803953143160345
asg5
I0
sg6
F0.0
sg7
(F-1.377392594014303
F-2.087440315877096
F-0.9856227079974573
F-1.649590317402975
F1.5730032920837402
F0.19377180933952332
tp167
sg9
(lp168
F0.0
aF0.085491943359375
aF0.0
aF0.0
aF0.0
aF0.0
asg11
I01
sg12
g13
sg14
I00
sg15
g16
sa(dp169
g2
F0.0
sg3
(lp170
F-0.02918251310236666
aF1.0043487561424334
aF0.6056895127643078
aF3.131594574847025
aF0.000343355873770499
aF-0.0003078260512929643
asg5
I0
sg6
F0.0
sg7
(F-1.3780630270587366
F-2.09393817583193
F-0.9749620596515101
F-1.6532352606402796
F1.5730513334274292
F0.19302842020988464
tp171
sg9
(lp172
F0.0
aF0.2
aF0.0
aF0.0
aF0.0
aF0.0
asg11
I01
sg12
g13
sg14
I00
sg15
g16
sa(dp173
g2
F0.0
sg3
(lp174
F-0.029326784221488697
aF1.0197616711315434
aF0.6046615184528475
aF3.130885550449588
aF0.00019981429954019227
aF-0.00012239872009686472
asg5
I0
sg6
F0.0
sg7
(F-1.3808515707599085
F-2.125155274068014
F-0.9282177130328577
F-1.669492546712057
F1.5730153322219849
F0.19005446135997772
tp175
sg9
(lp176
F0.0
aF0.0
aF0.0
aF0.0
aF0.0
aF0.0
asg11
I01
sg12
g13
sg14
I00
sg15
g16
sa(dp177
g2
F0.0
sg3
(lp178
F-0.029160429437607178
aF1.0290668690919562
aF0.603722577338339
aF3.1299028487828995
aF4.545100920832851e-05
aF-8.246327877187378e-05
asg5
I0
sg6
F0.0
sg7
(F-1.3827422300921839
F-2.144541088734762
F-0.8991478125201624
F-1.6801751295672815
F1.57302725315094
F0.18812349438667297
tp179
sg9
(lp180
F0.0
aF0.0
aF0.0
aF0.0
aF0.0
aF0.0
asg11
I01
sg12
g13
sg14
I00
sg15
g16
sa(dp181
g2
F0.0
sg3
(lp182
F-0.029164824436751096
aF1.0291547798457776
aF0.6042982309918954
aF3.130621409839817
aF0.00018225650467948502
aF-9.430239699758057e-05
asg5
I0
sg6
F0.0
sg7
(F-1.382754151021139
F-2.1446850935565394
F-0.8980563322650355
F-1.6803911367999476
F1.57302725315094
F0.18812349438667297
tp183
sg9
(lp184
F0.0
aF0.0
aF0.0
aF0.0
aF0.0
aF0.0
asg11
I01
sg12
g13
sg14
I00
sg15
g16
sa(dp185
g2
F0.0
sg3
(lp186
F-0.0291452715403454
aF1.0290342705288202
aF0.6043074956436008
aF3.130509279403058
aF0.00019742142836751665
aF-0.00010670709455589012
asg5
I0
sg6
F0.0
sg7
(F-1.382754151021139
F-2.14445668855776
F-0.8983801046954554
F-1.6804030577289026
F1.5730632543563843
F0.18813548982143402
tp187
sg9
(lp188
F0.0
aF0.0
aF0.0
aF0.0
aF0.0
aF0.0
asg11
I01
sg12
g13
sg14
I00
sg15
g16
sa(dp189
g2
F0.0
sg3
(lp190
F-0.029183654505626384
aF1.028941518976631
aF0.6053110715419981
aF3.130473181933369
aF0.00012937965428083995
aF-5.8436069406429044e-05
asg5
I0
sg6
F0.0
sg7
(F-1.3826945463763636
F-2.1444810072528284
F-0.8965695540057581
F-1.68223745027651
F1.5730032920837402
F0.18814747035503387
tp191
sg9
(lp192
F0.0
aF0.0
aF0.2
aF0.0
aF0.0
aF0.0
asg11
I01
sg12
g13
sg14
I00
sg15
g16
sa(dp193
g2
F0.0
sg3
(lp194
F-0.029057521104088484
aF1.028664146490137
aF0.617052047171408
aF3.1312677281171184
aF0.00029341936180520597
aF-8.246257153125491e-05
asg5
I0
sg6
F0.0
sg7
(F-1.3827665487872522
F-2.146458927785055
F-0.8729546705829065
F-1.7030633131610315
F1.5730153322219849
F0.18809953331947327
tp195
sg9
(lp196
F0.0
aF0.0
aF0.050982666015625004
aF0.0
aF0.0
aF0.0
asg11
I01
sg12
g13
sg14
I00
sg15
g16
sa(dp197
g2
F0.0
sg3
(lp198
F-0.02891487318778496
aF1.0280909704938803
aF0.6326119359361092
aF3.1313429622296702
aF0.0003441430032897135
aF-0.00014252284283933426
asg5
I0
sg6
F0.0
sg7
(F-1.3828023115741175
F-2.1497796217547815
F-0.8402484099017542
F-1.7323654333697718
F1.5730513334274292
F0.18812349438667297
tp199
sg9
(lp200
F0.0
aF0.0
aF0.0
aF0.0
aF0.0
aF0.0
asg11
I01
sg12
g13
sg14
I00
sg15
g16
sa(dp201
g2
F0.0
sg3
(lp202
F-0.028949241993548817
aF1.0281657863772755
aF0.6341015409245075
aF3.1304464834261214
aF0.00012442917061691728
aF-0.0001303830063226381
asg5
I0
sg6
F0.0
sg7
(F-1.3827784697162073
F-2.1506670157061976
F-0.8360145727740687
F-1.736633602772848
F1.5730032920837402
F0.18813548982143402
tp203
sg9
(lp204
F0.0
aF0.0
aF0.069805908203125
aF0.0
aF0.0
aF0.0
asg11
I01
sg12
g13
sg14
I00
sg15
g16
sa(dp205
g2
F0.0
sg3
(lp206
F-0.028955225869841263
aF1.0281676584516204
aF0.6370772009464207
aF3.1311917860085368
aF0.00032786684907866605
aF-8.291226237891962e-05
asg5
I0
sg6
F0.0
sg7
(F-1.3827784697162073
F-2.15151817003359
F-0.8295496145831507
F-1.7414773146258753
F1.5730632543563843
F0.1880875527858734
tp207
sg9
(lp208
F0.0
aF0.0
aF0.0
aF0.0
aF0.0
aF0.0
asg11
I01
sg12
g13
sg14
I00
sg15
g16
sa(dp209
g2
F0.0
sg3
(lp210
F-0.028971108764553402
aF1.0281367794407226
aF0.6407824841243773
aF3.130848600462529
aF0.00022576728975290346
aF-7.02963929474981e-05
asg5
I0
sg6
F0.0
sg7
(F-1.382754151021139
F-2.1528847853290003
F-0.8207343260394495
F-1.749282185231344
F1.57302725315094
F0.18809953331947327
tp211
sg9
(lp212
F0.0
aF0.0
aF0.0
aF0.0
aF0.0
aF0.0
asg11
I01
sg12
g13
sg14
I00
sg15
g16
sa(dp213
g2
F0.0
sg3
(lp214
F-0.029014652699989398
aF1.0281772173012174
aF0.6408791552904352
aF3.1308391139078005
aF0.00021157037216389335
aF-5.836997762727171e-05
asg5
I0
sg6
F0.0
sg7
(F-1.3827183882342737
F-2.1530163923846644
F-0.820350472127096
F-1.7495463530169886
F1.5730153322219849
F0.18812349438667297
tp215
sg9
(lp216
F0.0
aF0.0
aF0.0
aF0.0
aF0.0
aF0.0
asg11
I01
sg12
g13
sg14
I00
sg15
g16
sa(dp217
g2
F0.0
sg3
(lp218
F-0.029987329665869256
aF1.0281577315649963
aF0.640869782660139
aF3.1308528690477173
aF0.00019063888278499867
aF-0.0001679713650445654
asg5
I0
sg6
F0.0
sg7
(F-1.381772820149557
F-2.1530283133136194
F-0.820350472127096
F-1.7495225111590784
F1.5730032920837402
F0.18917885422706604
tp219
sg9
(lp220
F-0.2
aF0.024316406250000002
aF0.0
aF0.0
aF0.0
aF0.0
asg11
I01
sg12
g13
sg14
I00
sg15
g16
sa(dp221
g2
F0.0
sg3
(lp222
F-0.043241905846437716
aF1.029221288930219
aF0.6406486191620351
aF3.1308010089850256
aF0.000192736388891963
aF-0.00011005912780116455
asg5
I0
sg6
F0.0
sg7
(F-1.3691943327533167
F-2.1563857237445276
F-0.8153727690326136
F-1.75116473833193
F1.573147177696228
F0.20169863104820251
tp223
sg9
(lp224
F0.0
aF0.0
aF0.0
aF0.0
aF0.0
aF0.0
asg11
I01
sg12
g13
sg14
I00
sg15
g16
sa(dp225
g2
F0.0
sg3
(lp226
F-0.05702180884462457
aF1.03043004008349
aF0.6404853266381579
aF3.1305843718974677
aF0.00015244786530470072
aF-0.0001121902131628613
asg5
I0
sg6
F0.0
sg7
(F-1.3562081495868128
F-2.16059381166567
F-0.8088839689837855
F-1.753634277974264
F1.5732905864715576
F0.21468615531921387
tp227
sg9
(lp228
F0.0
aF0.0
aF0.0
aF0.0
aF0.0
aF0.0
asg11
I01
sg12
g13
sg14
I00
sg15
g16
sa(dp229
g2
F0.0
sg3
(lp230
F-0.0584296207670465
aF1.0304846555166294
aF0.6406494863508072
aF3.1308361278155625
aF0.00016624130693500237
aF-0.000318513486303864
asg5
I0
sg6
F0.0
sg7
(F-1.3548677603351038
F-2.160893265401022
F-0.8081639448748987
F-1.7538021246539515
F1.573266625404358
F0.2162332534790039
tp231
sg9
(lp232
F0.0
aF0.0
aF0.0
aF0.0
aF0.0
aF0.0
asg11
I01
sg12
g13
sg14
I00
sg15
g16
sa(dp233
g2
F0.0
sg3
(lp234
F-0.05833962205540429
aF1.0311620801933499
aF0.6408085455141719
aF3.1310031719219027
aF0.00019377534121004924
aF-0.00024583660538993147
asg5
I0
sg6
F0.0
sg7
(F-1.3550952116595667
F-2.1624277273761194
F-0.8054536024676722
F-1.7548096815692347
F1.5732545852661133
F0.21593326330184937
tp235
sg9
(lp236
F0.06666259765625
aF0.14823608398437502
aF0.0
aF0.0
aF0.0
aF0.0
asg11
I01
sg12
g13
sg14
I00
sg15
g16
sa(dp237
g2
F0.0
sg3
(lp238
F-0.05572689764333324
aF1.038506465275225
aF0.6406786214523484
aF3.1307831433646527
aF0.0002343109606394248
aF-0.0005863559512711278
asg5
I0
sg6
F0.0
sg7
(F-1.3591163794146937
F-2.1788762251483362
F-0.7791016737567347
F-1.7649286429034632
F1.5733026266098022
F0.21225185692310333
tp239
sg9
(lp240
F0.021173095703125002
aF0.040002441406250006
aF0.0
aF0.0
aF0.0
aF0.0
asg11
I01
sg12
g13
sg14
I00
sg15
g16
sa(dp241
g2
F0.0
sg3
(lp242
F-0.050449884289549406
aF1.048518175495175
aF0.6399440633875426
aF3.1304071417313533
aF0.00015912502776116336
aF-0.00046448059209477574
asg5
I0
sg6
F0.0
sg7
(F-1.3661182562457483
F-2.2015708128558558
F-0.7432840506183069
F-1.7784526983844202
F1.5732306241989136
F0.20512837171554565
tp243
sg9
(lp244
F0.0
aF0.0
aF0.0
aF0.0
aF0.0
aF0.0
asg11
I01
sg12
g13
sg14
I00
sg15
g16
sa(dp245
g2
F0.0
sg3
(lp246
F-0.049220198089997114
aF1.0505352144519147
aF0.6402980642650699
aF3.130829990778939
aF0.00029327521095264084
aF6.158015602241821e-06
asg5
I0
sg6
F0.0
sg7
(F-1.3676741758929651
F-2.206330124531881
F-0.7349112669574183
F-1.7816298643695276
F1.5732545852661133
F0.2031015306711197
tp247
sg9
(lp248
F0.0
aF0.0
aF0.0
aF0.0
aF0.0
aF0.0
asg11
I01
sg12
g13
sg14
I00
sg15
g16
sa(dp249
g2
F0.0
sg3
(lp250
F-0.04930308923726642
aF1.0505054886566125
aF0.640170821177394
aF3.1306889210118585
aF0.00026318086933735087
aF-5.826336000048007e-06
asg5
I0
sg6
F0.0
sg7
(F-1.3675902525531214
F-2.2062462011920374
F-0.7352469603167933
F-1.7815220991717737
F1.5732545852661133
F0.2031974047422409
tp251
sg9
(lp252
F0.0
aF0.0
aF0.0
aF0.0
aF0.0
aF0.0
asg11
I01
sg12
g13
sg14
I00
sg15
g16
sa(dp253
g2
F0.0
sg3
(lp254
F-0.04926551733626943
aF1.050339538230339
aF0.6403724156916301
aF3.130919390522698
aF0.0002736549177018439
aF-4.1341686367659244e-05
asg5
I0
sg6
F0.0
sg7
(F-1.3675902525531214
F-2.205874268208639
F-0.735546890889303
F-1.7813661734210413
F1.5732187032699585
F0.20323336124420166
tp255
sg9
(lp256
F0.0
aF0.0
aF0.0
aF0.0
aF0.0
aF0.0
asg11
I01
sg12
g13
sg14
I00
sg15
g16
sa(dp257
g2
F0.0
sg3
(lp258
F-0.04890433409154192
aF1.0504455265762263
aF0.6403856426403101
aF3.1309826146256876
aF0.000265871723977224
aF-8.894516286486588e-05
asg5
I0
sg6
F0.0
sg7
(F-1.3679493109332483
F-2.20607835451235
F-0.735199276600973
F-1.781450096760885
F1.5731950998306274
F0.20292215049266815
tp259
sg9
(lp260
F0.08705444335937501
aF0.06510009765625001
aF0.0
aF0.0
aF0.0
aF0.0
asg11
I01
sg12
g13
sg14
I00
sg15
g16
sa(dp261
g2
F0.0
sg3
(lp262
F-0.044550065187193184
aF1.0527277528455243
aF0.6406568442948363
aF3.131350405685671
aF0.0003349845769500973
aF-0.0004636811853467854
asg5
I0
sg6
F0.0
sg7
(F-1.3724859396563929
F-2.2111738363849085
F-0.7263825575457972
F-1.784807030354635
F1.573147177696228
F0.19876062870025635
tp263
sg9
(lp264
F0.0
aF0.0
aF0.0
aF0.0
aF0.0
aF0.0
asg11
I01
sg12
g13
sg14
I00
sg15
g16
sa(dp265
g2
F0.0
sg3
(lp266
F-0.040806619994532944
aF1.0556052832343918
aF0.6403734094562586
aF3.130990146180044
aF0.0002568282406286505
aF-0.00041884993211312204
asg5
I0
sg6
F0.0
sg7
(F-1.376542870198385
F-2.21781570116152
F-0.7158144156085413
F-1.7891114393817347
F1.5730992555618286
F0.194659024477005
tp267
sg9
(lp268
F0.0
aF0.0
aF0.0
aF0.0
aF0.0
aF0.0
asg11
I01
sg12
g13
sg14
I00
sg15
g16
sa(dp269
g2
F0.0
sg3
(lp270
F-0.040786667175024036
aF1.05584338031067
aF0.6403374110936724
aF3.1310453215496024
aF0.00023214739338725898
aF-0.00037022070171012646
asg5
I0
sg6
F0.0
sg7
(F-1.3766024748431605
F-2.2183669249164026
F-0.7149742285357874
F-1.7893512884723108
F1.5730632543563843
F0.19455116987228394
tp271
sg9
(lp272
F0.0
aF0.0
aF0.0
aF0.0
aF0.0
aF0.0
asg11
I01
sg12
g13
sg14
I00
sg15
g16
sa(dp273
g2
F0.0
sg3
(lp274
F-0.04086261868038662
aF1.0558483485559347
aF0.6403102469067204
aF3.1310242316083983
aF0.00021571584112199142
aF-0.0003105567494978118
asg5
I0
sg6
F0.0
sg7
(F-1.37653094926943
F-2.2183788458453577
F-0.7149980703936976
F-1.7893393675433558
F1.5730513334274292
F0.1945631504058838
tp275
sg9
(lp276
F0.0
aF0.0
aF0.0
aF0.0
aF0.0
aF0.0
asg11
I01
sg12
g13
sg14
I00
sg15
g16
sa(dp277
g2
F0.0
sg3
(lp278
F-0.04087397868459394
aF1.0560465356997357
aF0.6403019662655396
aF3.1309231515419564
aF0.00017099914867524304
aF-0.00035812789048253696
asg5
I0
sg6
F0.0
sg7
(F-1.3765547911273401
F-2.2188947836505335
F-0.7141345183001917
F-1.7897947470294397
F1.57302725315094
F0.1945871114730835
tp279
sg9
(lp280
F0.0
aF0.079217529296875
aF0.0
aF0.0
aF0.0
aF0.0
asg11
I01
sg12
g13
sg14
I00
sg15
g16
sa(dp281
g2
F0.0
sg3
(lp282
F-0.041060701820463265
aF1.058895691652719
aF0.6404277752014145
aF3.1311486610735617
aF0.00018411789913481275
aF-0.0002011789914639187
asg5
I0
sg6
F0.0
sg7
(F-1.376901928578512
F-2.225992027913229
F-0.7021506468402308
F-1.7944586912738245
F1.5729913711547852
F0.19408340752124786
tp283
sg9
(lp284
F0.0
aF0.0
aF0.0
aF0.0
aF0.0
aF0.0
asg11
I01
sg12
g13
sg14
I00
sg15
g16
sa(dp285
g2
F0.0
sg3
(lp286
F-0.04112890942778869
aF1.061828728770754
aF0.6398762833373134
aF3.130393187356581
aF8.994913520350752e-05
aF-0.0001888250798859666
asg5
I0
sg6
F0.0
sg7
(F-1.377380673085348
F-2.23330527940859
F-0.6907666365252894
F-1.7992900053607386
F1.5730392932891846
F0.1935916692018509
tp287
sg9
(lp288
F0.0
aF0.0
aF0.0
aF0.0
aF0.0
aF0.0
asg11
I01
sg12
g13
sg14
I00
sg15
g16
sa(dp289
g2
F0.0
sg3
(lp290
F-0.04112110602596474
aF1.0618061568563428
aF0.6399908141560661
aF3.130612086232145
aF9.631332921330028e-05
aF-0.0001764337535683123
asg5
I0
sg6
F0.0
sg7
(F-1.377380673085348
F-2.2332451979266565
F-0.6907065550433558
F-1.7991941610919397
F1.5730032920837402
F0.19357968866825104
tp291
sg9
(lp292
F0.0
aF0.0
aF0.0
aF0.0
aF0.0
aF0.0
asg11
I01
sg12
g13
sg14
I00
sg15
g16
sa(dp293
g2
F0.0
sg3
(lp294
F-0.04109471316674301
aF1.06179014044427
aF0.6400255556442441
aF3.1306903117299205
aF0.00013697724537842674
aF-0.00011664960326259675
asg5
I0
sg6
F0.0
sg7
(F-1.377404514943258
F-2.233197037373678
F-0.690742317830221
F-1.799122158681051
F1.57302725315094
F0.19349581003189087
tp295
sg9
(lp296
F0.0
aF0.044708251953125
aF0.0
aF0.0
aF0.0
aF0.0
asg11
I01
sg12
g13
sg14
I00
sg15
g16
sa(dp297
g2
F0.0
sg3
(lp298
F-0.04097652289650505
aF1.063363883177836
aF0.640377959687213
aF3.131136209527425
aF0.00019178874778911907
aF-0.0001275481314695711
asg5
I0
sg6
F0.0
sg7
(F-1.3777993361102503
F-2.2372496763812464
F-0.6834128538714808
F-1.8019517103778284
F1.5729913711547852
F0.193112313747406
tp299
sg9
(lp300
F0.0
aF0.029022216796875
aF0.0
aF0.0
aF0.0
aF0.0
asg11
I01
sg12
g13
sg14
I00
sg15
g16
sa(dp301
g2
F0.0
sg3
(lp302
F-0.04088654301029775
aF1.0667816968262258
aF0.6405630522413348
aF3.1313077012332773
aF0.00024434667377641947
aF-0.00016237250010721737
asg5
I0
sg6
F0.0
sg7
(F-1.3785055319415491
F-2.2460973898517054
F-0.6682370344745081
F-1.8081029097186487
F1.5730032920837402
F0.19244082272052765
tp303
sg9
(lp304
F0.0
aF0.0
aF0.0
aF0.0
aF0.0
aF0.0
asg11
I01
sg12
g13
sg14
I00
sg15
g16
sa(dp305
g2
F0.0
sg3
(lp306
F-0.04097822187961817
aF1.0678511749613944
aF0.6401125988110928
aF3.1307240171671875
aF0.00011976241034082196
aF-0.00014980044183257685
asg5
I0
sg6
F0.0
sg7
(F-1.3786128203021448
F-2.2488067785846155
F-0.6643503347979944
F-1.8098772207843226
F1.5729913711547852
F0.19232097268104553
tp307
sg9
(lp308
F0.0
aF0.0
aF0.0
aF0.0
aF0.0
aF0.0
asg11
I01
sg12
g13
sg14
I00
sg15
g16
sa(dp309
g2
F0.0
sg3
(lp310
F-0.040975890142860315
aF1.067845003789218
aF0.6401307289646683
aF3.1308208650535505
aF0.0001264857376988655
aF-0.0001376810960549257
asg5
I0
sg6
F0.0
sg7
(F-1.3786128203021448
F-2.2487710157977503
F-0.6643980185138147
F-1.8097689787494105
F1.5729793310165405
F0.19230899214744568
tp311
sg9
(lp312
F0.0
aF0.0
aF0.0
aF0.0
aF0.0
aF0.0
asg11
I01
sg12
g13
sg14
I00
sg15
g16
sa(dp313
g2
F0.0
sg3
(lp314
F-0.04093517899145585
aF1.0678303288245932
aF0.6402145895295932
aF3.1309599097191336
aF0.00016557325109735986
aF-0.00019798625285859375
asg5
I0
sg6
F0.0
sg7
(F-1.3786490599261683
F-2.248734776173727
F-0.6643384138690394
F-1.809720818196432
F1.5729913711547852
F0.19233295321464539
tp315
sg9
(lp316
F0.0
aF0.054119873046875
aF0.0
aF0.0
aF0.0
aF0.0
asg11
I01
sg12
g13
sg14
I00
sg15
g16
sa(dp317
g2
F0.0
sg3
(lp318
F-0.04090170731811807
aF1.069986528541863
aF0.6402490430887264
aF3.130908917127283
aF0.00014797759447596646
aF-0.00018522718834031353
asg5
I0
sg6
F0.0
sg7
(F-1.3790681997882288
F-2.254429642354147
F-0.6546333471881312
F-1.8137853781329554
F1.5729793310165405
F0.19190114736557007
tp319
sg9
(lp320
F0.0
aF0.03372802734375
aF0.0
aF0.0
aF0.0
aF0.0
asg11
I01
sg12
g13
sg14
I00
sg15
g16
sa(dp321
g2
F0.0
sg3
(lp322
F-0.04091706144605266
aF1.0747505017399834
aF0.6394885948138659
aF3.1302085475789343
aF-2.4141429067916737e-06
aF-0.00013567554820188024
asg5
I0
sg6
F0.0
sg7
(F-1.3799060026751917
F-2.2669103781329554
F-0.6346343199359339
F-1.822021786366598
F1.5729553699493408
F0.19101394712924957
tp323
sg9
(lp324
F0.0
aF0.0
aF0.0
aF0.0
aF0.0
aF0.0
asg11
I01
sg12
g13
sg14
I00
sg15
g16
sa(dp325
g2
F0.0
sg3
(lp326
F-0.04100523288653569
aF1.0760060012719925
aF0.6401016278241775
aF3.1309759377079747
aF0.0001592682056911479
aF-0.00018303242182691597
asg5
I0
sg6
F0.0
sg7
(F-1.3800495306598108
F-2.270482842122213
F-0.6275919119464319
F-1.8247078100787562
F1.5729674100875854
F0.1909177005290985
tp327
sg9
(lp328
F0.0
aF0.0
aF0.0
aF0.0
aF0.0
aF0.0
asg11
I01
sg12
g13
sg14
I00
sg15
g16
sa(dp329
g2
F0.0
sg3
(lp330
F-0.04093570022502691
aF1.0759890156363079
aF0.6401520906359476
aF3.1310957357250593
aF0.0001702864584382317
aF-0.00023097498013284059
asg5
I0
sg6
F0.0
sg7
(F-1.3801096121417444
F-2.270423237477438
F-0.6276276747332972
F-1.8246119658099573
F1.5729553699493408
F0.19090570509433746
tp331
sg9
(lp332
F0.0
aF0.0
aF0.0
aF0.0
aF0.0
aF0.0
asg11
I01
sg12
g13
sg14
I00
sg15
g16
sa(dp333
g2
F0.0
sg3
(lp334
F-0.04096353464347227
aF1.076005134084993
aF0.6400889210855847
aF3.131039007886398
aF0.0001471816898188457
aF-0.00020701929650735772
asg5
I0
sg6
F0.0
sg7
(F-1.3800857702838343
F-2.270447079335348
F-0.627688233052389
F-1.824587647114889
F1.5729434490203857
F0.19090570509433746
tp335
sg9
(lp336
F0.0
aF0.02117919921875
aF0.0
aF0.0
aF0.0
aF0.0
asg11
I01
sg12
g13
sg14
I00
sg15
g16
sa(dp337
g2
F0.0
sg3
(lp338
F-0.04087051721516662
aF1.0763209092681396
aF0.6399920362890205
aF3.1307436768036863
aF0.00010302202493937396
aF-0.0002783383716932434
asg5
I0
sg6
F0.0
sg7
(F-1.3802288214312952
F-2.2713339964496058
F-0.626284424458639
F-1.8254030386554163
F1.5729553699493408
F0.19083380699157715
tp339
sg9
(lp340
F0.0
aF0.0
aF0.0
aF0.0
aF0.0
aF0.0
asg11
I01
sg12
g13
sg14
I00
sg15
g16
sa(dp341
g2
F0.0
sg3
(lp342
F-0.040877610574875815
aF1.0771005747433764
aF0.6402042088940806
aF3.131040057758567
aF0.0001617950426483746
aF-0.0002665801477488393
asg5
I0
sg6
F0.0
sg7
(F-1.3803609053241175
F-2.2735164801227015
F-0.6222294012652796
F-1.8269737402545374
F1.5729553699493408
F0.19068999588489532
tp343
sg9
(lp344
F0.0
aF0.0
aF0.0
aF0.0
aF0.0
aF0.0
asg11
I01
sg12
g13
sg14
I00
sg15
g16
sa(dp345
g2
F0.0
sg3
(lp346
F-0.04091910412230057
aF1.0771582820451848
aF0.640226375895675
aF3.1311372626821523
aF0.00022973897232942086
aF-0.0002072572067179905
asg5
I0
sg6
F0.0
sg7
(F-1.3803370634662073
F-2.273660484944479
F-0.6219652334796351
F-1.8269856611834925
F1.5730032920837402
F0.19065403938293457
tp347
sg9
(lp348
F0.0
aF0.0
aF0.0
aF0.0
aF0.0
aF0.0
asg11
I01
sg12
g13
sg14
I00
sg15
g16
sa(dp349
g2
F0.0
sg3
(lp350
F-0.04087878643129064
aF1.0771679089756512
aF0.6402540919313449
aF3.1310504232344902
aF0.00017643569372179134
aF-0.000242669124956459
asg5
I0
sg6
F0.0
sg7
(F-1.3803728262530726
F-2.2737320105182093
F-0.6217730681048792
F-1.8272016684161585
F1.5729674100875854
F0.19065403938293457
tp351
sg9
(lp352
F0.0
aF0.0
aF0.069805908203125
aF0.0
aF0.0
aF0.0
asg11
I01
sg12
g13
sg14
I00
sg15
g16
sa(dp353
g2
F0.0
sg3
(lp354
F-0.040871787610896104
aF1.0771257933892047
aF0.6427551534299046
aF3.131264470741089
aF0.00022988948068845675
aF-0.0002427473207244745
asg5
I0
sg6
F0.0
sg7
(F-1.3803728262530726
F-2.275278393422262
F-0.6146591345416468
F-1.8325489203082483
F1.5729793310165405
F0.19065403938293457
tp355
sg9
(lp356
F0.0
aF0.0
aF0.0
aF0.0
aF0.0
aF0.0
asg11
I01
sg12
g13
sg14
I00
sg15
g16
sa(dp357
g2
F0.0
sg3
(lp358
F-0.04087199994732656
aF1.0771210299480072
aF0.6458630366006795
aF3.131044950936354
aF0.00020003328617106939
aF-0.0002189576521721615
asg5
I0
sg6
F0.0
sg7
(F-1.3803728262530726
F-2.2775800863849085
F-0.6050494352923792
F-1.8400781790362757
F1.5729913711547852
F0.19063007831573486
tp359
sg9
(lp360
F0.0
aF0.0
aF0.0
aF0.0
aF0.0
aF0.0
asg11
I01
sg12
g13
sg14
I00
sg15
g16
sa(dp361
g2
F0.0
sg3
(lp362
F-0.04088485972054463
aF1.0771381796310633
aF0.6461593826565386
aF3.1308874300863496
aF0.0001325864802022544
aF-0.00024264289956037852
asg5
I0
sg6
F0.0
sg7
(F-1.3803609053241175
F-2.2779043356524866
F-0.6039217154132288
F-1.8410490194903772
F1.5729553699493408
F0.19066603481769562
tp363
sg9
(lp364
F0.0
aF0.0
aF0.0
aF0.0
aF0.0
aF0.0
asg11
I01
sg12
g13
sg14
I00
sg15
g16
sa(dp365
g2
F0.0
sg3
(lp366
F-0.04083373947679283
aF1.0771413823648914
aF0.6461434604251327
aF3.130864021876164
aF0.00012819655101652897
aF-0.00027833492179435795
asg5
I0
sg6
F0.0
sg7
(F-1.3804085890399378
F-2.2779043356524866
F-0.603945557271139
F-1.8410490194903772
F1.5729553699493408
F0.19065403938293457
tp367
sg9
(lp368
F0.0
aF0.0
aF0.0
aF0.0
aF0.0
aF0.0
asg11
I01
sg12
g13
sg14
I00
sg15
g16
sa(dp369
g2
F0.0
sg3
(lp370
F-0.040860540980999956
aF1.0771462216497574
aF0.6461154001955919
aF3.1308518502878986
aF0.00012597569200086456
aF-0.00024251476749500623
asg5
I0
sg6
F0.0
sg7
(F-1.3803847471820276
F-2.2779043356524866
F-0.6039937178241175
F-1.841013256703512
F1.5729553699493408
F0.19064205884933472
tp371
sg9
(lp372
F0.0
aF0.0
aF0.0
aF0.0
aF0.0
aF0.0
asg11
I01
sg12
g13
sg14
I00
sg15
g16
sa(dp373
g2
F0.0
sg3
(lp374
F-0.04086410579553198
aF1.0771705237658946
aF0.6460608669597794
aF3.130865818316892
aF0.00011691613298192384
aF-0.00020643327820171978
asg5
I0
sg6
F0.0
sg7
(F-1.3803847471820276
F-2.277928177510397
F-0.6040537993060511
F-1.8409174124347132
F1.5729434490203857
F0.19060610234737396
tp375
sg9
(lp376
F0.0
aF0.0
aF0.0
aF0.0
aF0.0
aF0.0
asg11
I01
sg12
g13
sg14
I00
sg15
g16
sa(dp377
g2
F0.0
sg3
(lp378
F-0.04086332489689871
aF1.0771431270008096
aF0.6460921623960224
aF3.130845498519493
aF0.00016154173075350265
aF-0.00023091463959105103
asg5
I0
sg6
F0.0
sg7
(F-1.3803847471820276
F-2.2778800169574183
F-0.6040776411639612
F-1.8409531752215784
F1.5729913711547852
F0.19063007831573486
tp379
sg9
(lp380
F-0.040002441406250006
aF0.024316406250000002
aF0.0
aF0.0
aF0.0
aF0.0
asg11
I01
sg12
g13
sg14
I00
sg15
g16
sa(dp381
g2
F0.0
sg3
(lp382
F-0.042198440408668936
aF1.077954253089891
aF0.6458642408093156
aF3.1305979380088536
aF5.218666603564454e-05
aF-0.0003040034238785717
asg5
I0
sg6
F0.0
sg7
(F-1.3792951742755335
F-2.2802298704730433
F-0.6003940741168421
F-1.8425481955157679
F1.5729434490203857
F0.191793292760849
tp383
sg9
(lp384
F0.0
aF0.0
aF0.0
aF0.0
aF0.0
aF0.0
asg11
I01
sg12
g13
sg14
I00
sg15
g16
sa(dp385
g2
F0.0
sg3
(lp386
F-0.045571513395344716
aF1.0799312966592707
aF0.6458083665600268
aF3.1306265075976616
aF0.00010025156833925578
aF-0.00037003664627153164
asg5
I0
sg6
F0.0
sg7
(F-1.3765547911273401
F-2.2861884276019495
F-0.5902321974383753
F-1.846708122883932
F1.5730153322219849
F0.19459910690784454
tp387
sg9
(lp388
F0.0
aF0.0
aF0.0
aF0.0
aF0.0
aF0.0
asg11
I01
sg12
g13
sg14
I00
sg15
g16
sa(dp389
g2
F0.0
sg3
(lp390
F-0.046342299119557916
aF1.0804918628255997
aF0.6458770317186356
aF3.130778887183554
aF7.522953969458059e-05
aF-0.00033474337128994424
asg5
I0
sg6
F0.0
sg7
(F-1.3759444395648401
F-2.2878907362567347
F-0.5871971289264124
F-1.8478949705706995
F1.5729674100875854
F0.19517472386360168
tp391
sg9
(lp392
F0.0
aF0.0
aF0.0
aF0.0
aF0.0
aF0.0
asg11
I01
sg12
g13
sg14
I00
sg15
g16
sa(dp393
g2
F0.0
sg3
(lp394
F-0.04637776703817737
aF1.0804600879717632
aF0.6459156765646527
aF3.13078546577772
aF0.00010082440911507908
aF-0.000310736699909178
asg5
I0
sg6
F0.0
sg7
(F-1.3759081999408167
F-2.287830654774801
F-0.5872333685504358
F-1.8479073683368128
F1.5729913711547852
F0.19518670439720154
tp395
sg9
(lp396
F0.0
aF0.0
aF0.0
aF0.0
aF0.0
aF0.0
asg11
I01
sg12
g13
sg14
I00
sg15
g16
sa(dp397
g2
F0.0
sg3
(lp398
F-0.046382336776217864
aF1.0804143939555109
aF0.645987759441709
aF3.130842563455225
aF0.0001243930808145129
aF-0.0002874321297170264
asg5
I0
sg6
F0.0
sg7
(F-1.3758967558490198
F-2.2877348105060022
F-0.5872810522662562
F-1.8478949705706995
F1.5730032920837402
F0.19517472386360168
tp399
sg9
(lp400
F0.0
aF0.0
aF0.0
aF0.0
aF0.0
aF0.0
asg11
I01
sg12
g13
sg14
I00
sg15
g16
sa(dp401
g2
F0.0
sg3
(lp402
F-0.04657620146094566
aF1.0804042262559004
aF0.6459351699636772
aF3.1307480675577994
aF0.00010532183862706863
aF-0.0001436148801569907
asg5
I0
sg6
F0.0
sg7
(F-1.3757169882403772
F-2.287722889577047
F-0.587376896535055
F-1.8479073683368128
F1.5730032920837402
F0.19521066546440125
tp403
sg9
(lp404
F0.024310302734375
aF0.0
aF0.0
aF0.0
aF0.0
aF0.0
asg11
I01
sg12
g13
sg14
I00
sg15
g16
sa(dp405
g2
F0.0
sg3
(lp406
F-0.0461341117871018
aF1.080412327015782
aF0.6458853224767556
aF3.130653609063017
aF9.07007530391198e-05
aF-0.00017936425853167277
asg5
I0
sg6
F0.0
sg7
(F-1.3761242071734827
F-2.287687126790182
F-0.5875089804278772
F-1.8479073683368128
F1.5730032920837402
F0.19483916461467743
tp407
sg9
(lp408
F0.0
aF0.0
aF0.0
aF0.0
aF0.0
aF0.0
asg11
I01
sg12
g13
sg14
I00
sg15
g16
sa(dp409
g2
F0.0
sg3
(lp410
F-0.045564630899137676
aF1.0803698381053417
aF0.6459977044787261
aF3.1307972373063446
aF0.00011090301446376769
aF-0.000321387051277961
asg5
I0
sg6
F0.0
sg7
(F-1.3766382376300257
F-2.2875312010394495
F-0.5876048246966761
F-1.847823444996969
F1.5729913711547852
F0.19446727633476257
tp411
sg9
(lp412
F0.0
aF0.0
aF0.0
aF0.0
aF0.0
aF0.0
asg11
I01
sg12
g13
sg14
I00
sg15
g16
sa(dp413
g2
F0.0
sg3
(lp414
F-0.04558886216577323
aF1.0803438433611066
aF0.6460486784952483
aF3.1308370843613385
aF0.00015506407406571065
aF-0.0003218779980974534
asg5
I0
sg6
F0.0
sg7
(F-1.3766143957721155
F-2.287483517323629
F-0.5876048246966761
F-1.847823444996969
F1.57302725315094
F0.19449123740196228
tp415
sg9
(lp416
F0.0
aF0.0
aF0.0
aF0.0
aF0.0
aF0.0
asg11
I01
sg12
g13
sg14
I00
sg15
g16
sa(dp417
g2
F0.0
sg3
(lp418
F-0.04565573046261249
aF1.0803651500013747
aF0.646005656037014
aF3.1308066343429295
aF0.0001252901720275843
aF-0.000202110967152925
asg5
I0
sg6
F0.0
sg7
(F-1.3765547911273401
F-2.2875312010394495
F-0.587592903767721
F-1.847823444996969
F1.5730032920837402
F0.19443131983280182
tp419
sg9
(lp420
F0.038427734375
aF0.0
aF0.0
aF0.0
aF0.0
aF0.0
asg11
I01
sg12
g13
sg14
I00
sg15
g16
sa(dp421
g2
F0.0
sg3
(lp422
F-0.04386623744927694
aF1.0803530181212413
aF0.6459893970034428
aF3.13075064565703
aF0.00012053604555249418
aF-0.00013943180409605905
asg5
I0
sg6
F0.0
sg7
(F-1.3781946341144007
F-2.2872913519488733
F-0.5880244413958948
F-1.8476913611041468
F1.5729913711547852
F0.19272881746292114
tp423
sg9
(lp424
F0.052545166015625006
aF0.0
aF0.0
aF0.0
aF0.0
aF0.0
asg11
I01
sg12
g13
sg14
I00
sg15
g16
sa(dp425
g2
F0.0
sg3
(lp426
F-0.03935599221559141
aF1.0803232906132811
aF0.6459816084644553
aF3.1306746289958967
aF0.00017607646024672918
aF-5.934789263217611e-05
asg5
I0
sg6
F0.0
sg7
(F-1.3823354879962366
F-2.2867282072650355
F-0.5889962355243128
F-1.84735614458193
F1.5730153322219849
F0.18850736320018768
tp427
sg9
(lp428
F0.0
aF0.0
aF0.0
aF0.0
aF0.0
aF0.0
asg11
I01
sg12
g13
sg14
I00
sg15
g16
sa(dp429
g2
F0.0
sg3
(lp430
F-0.03682734536435317
aF1.080318462774238
aF0.6460434317176353
aF3.130726804947877
aF0.00018528275536426744
aF-0.00019879154219180328
asg5
I0
sg6
F0.0
sg7
(F-1.3846576849566858
F-2.2864883581744593
F-0.5893085638629358
F-1.8472355047809046
F1.5729913711547852
F0.18632474541664124
tp431
sg9
(lp432
F0.0
aF0.0
aF0.0
aF0.0
aF0.0
aF0.0
asg11
I01
sg12
g13
sg14
I00
sg15
g16
sa(dp433
g2
F0.0
sg3
(lp434
F-0.0369240272944162
aF1.0803353786106802
aF0.6460079595976347
aF3.1307106392158737
aF0.00020596721018453543
aF-0.00017504055675396615
asg5
I0
sg6
F0.0
sg7
(F-1.384573761616842
F-2.2865241209613245
F-0.5893085638629358
F-1.8472116629229944
F1.5730153322219849
F0.1863846629858017
tp435
sg9
(lp436
F0.0
aF0.0
aF0.0
aF0.0
aF0.0
aF0.0
asg11
I01
sg12
g13
sg14
I00
sg15
g16
sa(dp437
g2
F0.0
sg3
(lp438
F-0.03687032407611702
aF1.080325517670569
aF0.6460544315235863
aF3.130816532319453
aF0.00022568006507350284
aF-0.00024666108011018516
asg5
I0
sg6
F0.0
sg7
(F-1.3846214453326624
F-2.2864883581744593
F-0.5893085638629358
F-1.8471396605121058
F1.5730153322219849
F0.1864086240530014
tp439
sg9
(lp440
F0.0
aF0.0
aF0.0
aF0.0
aF0.0
aF0.0
asg11
I01
sg12
g13
sg14
I00
sg15
g16
sa(dp441
g2
F0.0
sg3
(lp442
F-0.03686689420634527
aF1.0803192432947832
aF0.6460867392971124
aF3.13090298162342
aF0.00021798591523835913
aF-0.00021045064555830675
asg5
I0
sg6
F0.0
sg7
(F-1.3846214453326624
F-2.286464516316549
F-0.5893085638629358
F-1.8470800558673304
F1.5729913711547852
F0.18637268245220184
tp443
sg9
(lp444
F0.0
aF0.044708251953125
aF0.0
aF0.0
aF0.0
aF0.0
asg11
I01
sg12
g13
sg14
I00
sg15
g16
sa(dp445
g2
F0.0
sg3
(lp446
F-0.037006756893619666
aF1.081414957079153
aF0.646443382405499
aF3.1314872024121345
aF0.00031638456748738056
aF-0.00022231916518162907
asg5
I0
sg6
F0.0
sg7
(F-1.384681526814596
F-2.289701286946432
F-0.5831897894488733
F-1.8493698279010218
F1.5729793310165405
F0.18632474541664124
tp447
sg9
(lp448
F0.0
aF0.0
aF0.0
aF0.0
aF0.0
aF0.0
asg11
I01
sg12
g13
sg14
I00
sg15
g16
sa(dp449
g2
F0.0
sg3
(lp450
F-0.03701702109843355
aF1.083188545261808
aF0.6461170281446822
aF3.131052663856847
aF0.0002612381086515529
aF-0.00029359832747796576
asg5
I0
sg6
F0.0
sg7
(F-1.3849805037127894
F-2.294760529194967
F-0.574923340474264
F-1.8530147711383265
F1.5730032920837402
F0.1860966682434082
tp451
sg9
(lp452
F0.0
aF0.0
aF0.0
aF0.0
aF0.0
aF0.0
asg11
I01
sg12
g13
sg14
I00
sg15
g16
sa(dp453
g2
F0.0
sg3
(lp454
F-0.03704790992850737
aF1.0833528612153571
aF0.6460913269204361
aF3.131040964321869
aF0.0002596645170733835
aF-0.0002336871393326604
asg5
I0
sg6
F0.0
sg7
(F-1.3849805037127894
F-2.2952283064471644
F-0.5741556326495569
F-1.8533266226397913
F1.5730032920837402
F0.18603675067424774
tp455
sg9
(lp456
F0.0
aF0.0
aF0.0
aF0.0
aF0.0
aF0.0
asg11
I01
sg12
g13
sg14
I00
sg15
g16
sa(dp457
g2
F0.0
sg3
(lp458
F-0.0370063867420681
aF1.0833573075649143
aF0.646076809518465
aF3.1310359128413956
aF0.00022346372423729391
aF-0.00014923721928979312
asg5
I0
sg6
F0.0
sg7
(F-1.3850162664996546
F-2.2952283064471644
F-0.5741794745074671
F-1.8533147017108362
F1.5729674100875854
F0.18591690063476562
tp459
sg9
(lp460
F0.0
aF0.0
aF0.0
aF0.0
aF0.0
aF0.0
asg11
I01
sg12
g13
sg14
I00
sg15
g16
sa(dp461
g2
F0.0
sg3
(lp462
F-0.03699143201646537
aF1.0834160566415494
aF0.6461290251994277
aF3.131059817866451
aF0.00022821164895364435
aF-0.00014911394409277862
asg5
I0
sg6
F0.0
sg7
(F-1.3850401083575647
F-2.2954323927508753
F-0.57373553911318
F-1.853530232106344
F1.5729674100875854
F0.18589293956756592
tp463
sg9
(lp464
F0.0
aF0.066668701171875
aF0.0
aF0.0
aF0.0
aF0.0
asg11
I01
sg12
g13
sg14
I00
sg15
g16
sa(dp465
g2
F0.0
sg3
(lp466
F-0.03679979024008901
aF1.0866447411638978
aF0.6463338452669631
aF3.131214166036262
aF0.00026405332068595017
aF-0.00021963921670440967
asg5
I0
sg6
F0.0
sg7
(F-1.3857701460467737
F-2.3051074186908167
F-0.556554142628805
F-1.8608797232257288
F1.5729674100875854
F0.18523342907428741
tp467
sg9
(lp468
F0.0
aF0.0
aF0.0
aF0.0
aF0.0
aF0.0
asg11
I01
sg12
g13
sg14
I00
sg15
g16
sa(dp469
g2
F0.0
sg3
(lp470
F-0.03690331780552083
aF1.088945221792246
aF0.6459431773987585
aF3.13068897638918
aF0.00018089396536948946
aF-0.00023135554690178784
asg5
I0
sg6
F0.0
sg7
(F-1.3860695997821253
F-2.311953846608297
F-0.5451801458941858
F-1.8659394423114222
F1.5729793310165405
F0.18494543433189392
tp471
sg9
(lp472
F0.0
aF0.0
aF0.0
aF0.0
aF0.0
aF0.0
asg11
I01
sg12
g13
sg14
I00
sg15
g16
sa(dp473
g2
F0.0
sg3
(lp474
F-0.036866766625646655
aF1.0888954111362923
aF0.6460459899644129
aF3.130891769044748
aF0.0002064531592644493
aF-0.0002789916483481703
asg5
I0
sg6
F0.0
sg7
(F-1.3860934416400355
F-2.31180984178652
F-0.5452879110919397
F-1.8657715956317347
F1.5729674100875854
F0.18496939539909363
tp475
sg9
(lp476
F0.0
aF0.0
aF0.0
aF0.0
aF0.0
aF0.0
asg11
I01
sg12
g13
sg14
I00
sg15
g16
sa(dp477
g2
F0.0
sg3
(lp478
F-0.03684526187654233
aF1.0889021300769555
aF0.6460304517675883
aF3.1309325145896807
aF0.00025083460540966225
aF-0.000279239675754579
asg5
I0
sg6
F0.0
sg7
(F-1.3861172834979456
F-2.3117974440204065
F-0.5453479925738733
F-1.8656757513629358
F1.5730032920837402
F0.18494543433189392
tp479
sg9
(lp480
F0.0
aF0.0
aF0.0
aF0.0
aF0.0
aF0.0
asg11
I01
sg12
g13
sg14
I00
sg15
g16
sa(dp481
g2
F0.0
sg3
(lp482
F-0.036906195684026394
aF1.0889365680878718
aF0.6458106178591945
aF3.1306567231808486
aF0.00022334935886553372
aF-0.00025583428748107836
asg5
I0
sg6
F0.0
sg7
(F-1.3860695997821253
F-2.311821762715475
F-0.5456479231463831
F-1.8656275908099573
F1.57302725315094
F0.18496939539909363
tp483
sg9
(lp484
F0.0
aF0.0
aF0.0
aF0.0
aF0.0
aF0.0
asg11
I01
sg12
g13
sg14
I00
sg15
g16
sa(dp485
g2
F0.0
sg3
(lp486
F-0.036865760265964956
aF1.0889419309316826
aF0.645824053651218
aF3.130720191588229
aF0.00021110967583795018
aF-0.00026736778745307493
asg5
I0
sg6
F0.0
sg7
(F-1.3861053625689905
F-2.311821762715475
F-0.545636002217428
F-1.8655794302569788
F1.5730032920837402
F0.18494543433189392
tp487
sg9
(lp488
F0.0
aF0.0
aF0.0
aF0.0
aF0.0
aF0.0
asg11
I01
sg12
g13
sg14
I00
sg15
g16
sa(dp489
g2
F0.0
sg3
(lp490
F-0.03684937329958456
aF1.0889180936697513
aF0.6458587337145956
aF3.130730158379982
aF0.00022496353345797854
aF-0.00030337432392866896
asg5
I0
sg6
F0.0
sg7
(F-1.3861172834979456
F-2.3117736021624964
F-0.5456598440753382
F-1.8655913511859339
F1.5730153322219849
F0.18496939539909363
tp491
sg9
(lp492
F0.0
aF0.0
aF0.0
aF0.0
aF0.0
aF0.0
asg11
I01
sg12
g13
sg14
I00
sg15
g16
sa(dp493
g2
F0.0
sg3
(lp494
F-0.03687310858726937
aF1.088911342019932
aF0.6458715720643406
aF3.1307440955021093
aF0.00021558201941089834
aF-0.000255441758702283
asg5
I0
sg6
F0.0
sg7
(F-1.3860934416400355
F-2.3117616812335413
F-0.5456598440753382
F-1.8655913511859339
F1.5730032920837402
F0.18494543433189392
tp495
sg9
(lp496
F0.0
aF0.0
aF0.0
aF0.0
aF0.0
aF0.0
asg11
I01
sg12
g13
sg14
I00
sg15
g16
sa(dp497
g2
F0.0
sg3
(lp498
F-0.03689107583915052
aF1.0888676790327652
aF0.6459619692545893
aF3.1308265902088737
aF0.00023114496913503334
aF-0.00021960164083612295
asg5
I0
sg6
F0.0
sg7
(F-1.3860695997821253
F-2.3116777578936976
F-0.5456598440753382
F-1.8655913511859339
F1.5730032920837402
F0.18493345379829407
tp499
sg9
(lp500
F0.0
aF0.0
aF0.0
aF0.0
aF0.0
aF0.0
asg11
I01
sg12
g13
sg14
I00
sg15
g16
sa(dp501
g2
F0.0
sg3
(lp502
F-0.036864096787516606
aF1.0888510781935663
aF0.6460116596216607
aF3.1308929522324465
aF0.00026768053978659705
aF-0.0002676383153568418
asg5
I0
sg6
F0.0
sg7
(F-1.3860934416400355
F-2.311641518269674
F-0.5456479231463831
F-1.8655675093280237
F1.57302725315094
F0.18495741486549377
tp503
sg9
(lp504
F0.0
aF0.0
aF0.0
aF0.0
aF0.0
aF0.0
asg11
I01
sg12
g13
sg14
I00
sg15
g16
sa(dp505
g2
F0.0
sg3
(lp506
F-0.03683367399730442
aF1.0888400990070863
aF0.6460012505371121
aF3.130838299460998
aF0.0002329506326772459
aF-0.0003032221587085003
asg5
I0
sg6
F0.0
sg7
(F-1.3861172834979456
F-2.311617676411764
F-0.5456960836993616
F-1.865603272114889
F1.5730032920837402
F0.18496939539909363
tp507
sg9
(lp508
F0.0
aF0.0
aF0.0
aF0.0
aF0.0
aF0.0
asg11
I01
sg12
g13
sg14
I00
sg15
g16
sa(dp509
g2
F0.0
sg3
(lp510
F-0.03685831138915434
aF1.0888381262538096
aF0.6460266807621691
aF3.1308878336146355
aF0.00023022009786894047
aF-0.00026726377096184596
asg5
I0
sg6
F0.0
sg7
(F-1.3860934416400355
F-2.311617676411764
F-0.5456598440753382
F-1.8655913511859339
F1.5729913711547852
F0.18495741486549377
tp511
sg9
(lp512
F0.0
aF0.0
aF0.0
aF0.0
aF0.0
aF0.0
asg11
I01
sg12
g13
sg14
I00
sg15
g16
sa(dp513
g2
F0.0
sg3
(lp514
F-0.0368642792713074
aF1.088864084055654
aF0.6459586604952783
aF3.130814406618386
aF0.0002289943843432785
aF-0.00023145156333896326
asg5
I0
sg6
F0.0
sg7
(F-1.3860934416400355
F-2.3116658369647425
F-0.5456841627704065
F-1.8655913511859339
F1.5730032920837402
F0.18492145836353302
tp515
sg9
(lp516
F0.0
aF0.0
aF0.0
aF0.0
aF0.0
aF0.0
asg11
I01
sg12
g13
sg14
I00
sg15
g16
sa(dp517
g2
F0.0
sg3
(lp518
F-0.03685157067085792
aF1.088847902852156
aF0.6460100374733065
aF3.130890737960089
aF0.0002795146448561566
aF-0.00027968588364000774
asg5
I0
sg6
F0.0
sg7
(F-1.3861053625689905
F-2.311629597340719
F-0.5456717650042933
F-1.8655555883990687
F1.5730392932891846
F0.18495741486549377
tp519
sg9
(lp520
F0.0
aF0.0
aF0.0
aF0.0
aF0.0
aF0.0
asg11
I01
sg12
g13
sg14
I00
sg15
g16
sa(dp521
g2
F0.0
sg3
(lp522
F-0.03683053362958047
aF1.088835318979596
aF0.6460422535424053
aF3.1309252033142654
aF0.00022509117924592744
aF-0.0002789913104603118
asg5
I0
sg6
F0.0
sg7
(F-1.3861172834979456
F-2.311605755482809
F-0.5456598440753382
F-1.8655675093280237
F1.5729793310165405
F0.18494543433189392
tp523
sg9
(lp524
F0.0
aF0.0
aF0.0
aF0.0
aF0.0
aF0.0
asg11
I01
sg12
g13
sg14
I00
sg15
g16
sa(dp525
g2
F0.0
sg3
(lp526
F-0.03686185785757119
aF1.088851123699028
aF0.6460045873100595
aF3.1309090764279452
aF0.000246321963366573
aF-0.00026738349507170596
asg5
I0
sg6
F0.0
sg7
(F-1.3860934416400355
F-2.311629597340719
F-0.5456841627704065
F-1.8655312697040003
F1.5730032920837402
F0.18495741486549377
tp527
sg9
(lp528
F0.0
aF0.0
aF0.0
aF0.0
aF0.0
aF0.0
asg11
I01
sg12
g13
sg14
I00
sg15
g16
sa(dp529
g2
F0.0
sg3
(lp530
F-0.03678169840493245
aF1.0888503409415904
aF0.6459911433940863
aF3.130852212174608
aF0.00022355500784408132
aF-0.0003392742639044289
asg5
I0
sg6
F0.0
sg7
(F-1.3861654440509241
F-2.311629597340719
F-0.5456960836993616
F-1.8655794302569788
F1.5729913711547852
F0.18495741486549377
tp531
sg9
(lp532
F0.0
aF0.0
aF0.0
aF0.0
aF0.0
aF0.0
asg11
I01
sg12
g13
sg14
I00
sg15
g16
sa(dp533
g2
F0.0
sg3
(lp534
F-0.03684404884687545
aF1.0888317002491323
aF0.6460474367050316
aF3.1309112715839076
aF0.0002347329915975972
aF-0.0002671994028017854
asg5
I0
sg6
F0.0
sg7
(F-1.3861053625689905
F-2.311605755482809
F-0.5456479231463831
F-1.8655913511859339
F1.5729913711547852
F0.18494543433189392
tp535
sg9
(lp536
F0.0
aF0.0
aF0.0
aF0.0
aF0.0
aF0.0
asg11
I01
sg12
g13
sg14
I00
sg15
g16
sa(dp537
g2
F0.0
sg3
(lp538
F-0.03683857497580583
aF1.0888663344323126
aF0.6459696285176048
aF3.1308500170134197
aF0.00023514323841381898
aF-0.0003032194162537648
asg5
I0
sg6
F0.0
sg7
(F-1.3861172834979456
F-2.3116658369647425
F-0.5456717650042933
F-1.8655675093280237
F1.5730032920837402
F0.18496939539909363
tp539
sg9
(lp540
F0.0
aF0.0
aF0.0
aF0.0
aF0.0
aF0.0
asg11
I01
sg12
g13
sg14
I00
sg15
g16
sa(dp541
g2
F0.0
sg3
(lp542
F-0.036958347175371574
aF1.0888550366058891
aF0.6459668713399501
aF3.1308052611914836
aF0.0004102878367393798
aF-0.00014936699263082785
asg5
I0
sg6
F0.4995594713656387
sg7
(F-1.3860214392291468
F-2.311653439198629
F-0.5456960836993616
F-1.8655675093280237
F1.5731830596923828
F0.18490947782993317
tp543
sg9
(lp544
F0.0
aF0.0
aF0.0
aF0.0
aF0.0
aF0.0
asg11
I01
sg12
g13
sg14
I00
sg15
g16
sa(dp545
g2
F0.0
sg3
(lp546
F-0.037011570150372465
aF1.0888423565691174
aF0.6459256038939275
aF3.130715715639202
aF0.0004290207091289959
aF-0.00017400638826623672
asg5
I0
sg6
F0.4995594713656387
sg7
(F-1.3859737555133265
F-2.311617676411764
F-0.5458162466632288
F-1.8655675093280237
F1.5732187032699585
F0.18498139083385468
tp547
sg9
(lp548
F0.0
aF0.0
aF0.0
aF0.0
aF0.0
aF0.0
asg11
I01
sg12
g13
sg14
I00
sg15
g16
sa(dp549
g2
F0.0
sg3
(lp550
F-0.03693481270559824
aF1.088835080925212
aF0.6460034344420331
aF3.130853153789436
aF0.00034586473097962186
aF-0.00018448888445925888
asg5
I0
sg6
F0.4995594713656387
sg7
(F-1.3860333601581019
F-2.311605755482809
F-0.54572040239443
F-1.8655555883990687
F1.5731111764907837
F0.18493345379829407
tp551
sg9
(lp552
F0.0
aF0.0
aF0.0
aF0.0
aF0.0
aF0.0
asg11
I01
sg12
g13
sg14
I00
sg15
g16
sa(dp553
g2
F0.0
sg3
(lp554
F-0.03701979041340455
aF1.0888426387580081
aF0.645958912036291
aF3.1308099887586507
aF0.00025202868471705937
aF-0.00013611173125914423
asg5
I0
sg6
F0.4995594713656387
sg7
(F-1.3859499136554163
F-2.311617676411764
F-0.5457680861102503
F-1.8655555883990687
F1.57302725315094
F0.18496939539909363
tp555
sg9
(lp556
F0.0
aF0.0
aF0.0
aF0.0
aF0.0
aF0.0
asg11
I01
sg12
g13
sg14
I00
sg15
g16
sa(dp557
g2
F0.0
sg3
(lp558
F-0.036994537311769174
aF1.0888532831984443
aF0.6459233716316046
aF3.130776571098315
aF0.0002341647401441442
aF-0.00011190146635072622
asg5
I0
sg6
F0.4995594713656387
sg7
(F-1.3859737555133265
F-2.311629597340719
F-0.5458043257342737
F-1.8655436674701136
F1.5730153322219849
F0.18492145836353302
tp559
sg9
(lp560
F0.0
aF0.0
aF0.0
aF0.0
aF0.0
aF0.0
asg11
I01
sg12
g13
sg14
I00
sg15
g16
sa(dp561
g2
F0.0
sg3
(lp562
F-0.03699078303667509
aF1.0888452235947519
aF0.6459602722987976
aF3.130828305689797
aF0.0002189534213580943
aF-0.0001595708564677844
asg5
I0
sg6
F0.4995594713656387
sg7
(F-1.3859737555133265
F-2.311617676411764
F-0.5457680861102503
F-1.8655436674701136
F1.5729913711547852
F0.18496939539909363
tp563
sg9
(lp564
F0.0
aF0.0
aF0.0
aF0.0
aF0.0
aF0.0
asg11
I01
sg12
g13
sg14
I00
sg15
g16
sa(dp565
g2
F0.0
sg3
(lp566
F-0.03699558872835643
aF1.0888529262501607
aF0.6459502294482179
aF3.130833892564556
aF0.0002565016065809824
aF-0.00015994751126960008
asg5
I0
sg6
F0.4995594713656387
sg7
(F-1.3859737555133265
F-2.311629597340719
F-0.5457680861102503
F-1.8655193487750452
F1.57302725315094
F0.18496939539909363
tp567
sg9
(lp568
F0.0
aF0.0
aF0.0
aF0.0
aF0.0
aF0.0
asg11
I01
sg12
g13
sg14
I00
sg15
g16
sa(dp569
g2
F0.0
sg3
(lp570
F-0.03698962893593004
aF1.0888210482366576
aF0.6460277288327848
aF3.1308802972479315
aF0.00026531267414688716
aF-0.0001479555611556982
asg5
I0
sg6
F0.4995594713656387
sg7
(F-1.3859737555133265
F-2.3115819136248987
F-0.54572040239443
F-1.8655675093280237
F1.57302725315094
F0.18495741486549377
tp571
sg9
(lp572
F0.0
aF0.0
aF0.0
aF0.0
aF0.0
aF0.0
asg11
I01
sg12
g13
sg14
I00
sg15
g16
sa(dp573
g2
F0.0
sg3
(lp574
F-0.036979476131038636
aF1.0888425922569234
aF0.6459747420546443
aF3.1308356280907392
aF0.0002452126502416953
aF-0.00012380824002478018
asg5
I0
sg6
F0.4995594713656387
sg7
(F-1.3859856764422815
F-2.311617676411764
F-0.5457442442523401
F-1.8655555883990687
F1.5730153322219849
F0.18492145836353302
tp575
sg9
(lp576
F0.0
aF0.0
aF0.0
aF0.0
aF0.0
aF0.0
asg11
I01
sg12
g13
sg14
I00
sg15
g16
sa(dp577
g2
F0.0
sg3
(lp578
F-0.037006412939541655
aF1.0888529748727374
aF0.6459476919078976
aF3.130802688960911
aF0.00022680234018497225
aF-9.984717810739024e-05
asg5
I0
sg6
F0.4995594713656387
sg7
(F-1.3859618345843714
F-2.311641518269674
F-0.5457442442523401
F-1.8655675093280237
F1.5730032920837402
F0.18492145836353302
tp579
sg9
(lp580
F0.0
aF0.0
aF0.0
aF0.0
aF0.0
aF0.0
asg11
I01
sg12
g13
sg14
I00
sg15
g16
sa(dp581
g2
F0.0
sg3
(lp582
F-0.03698175042939966
aF1.0888487767366937
aF0.6459711883137502
aF3.1308451476136283
aF0.0002588640277665363
aF-0.00014790585888398264
asg5
I0
sg6
F0.4995594713656387
sg7
(F-1.3859856764422815
F-2.311629597340719
F-0.5457323233233851
F-1.8655436674701136
F1.57302725315094
F0.18494543433189392
tp583
sg9
(lp584
F0.0
aF0.0
aF0.0
aF0.0
aF0.0
aF0.0
asg11
I01
sg12
g13
sg14
I00
sg15
g16
sa(dp585
g2
F0.0
sg3
(lp586
F-0.03699126392264969
aF1.0888297935292712
aF0.6460004243253227
aF3.130856862091463
aF0.0002609277376651007
aF-0.0001479617274138596
asg5
I0
sg6
F0.4995594713656387
sg7
(F-1.3859737555133265
F-2.311593834553854
F-0.5457442442523401
F-1.8655555883990687
F1.57302725315094
F0.18495741486549377
tp587
sg9
(lp588
F0.0
aF0.0
aF0.0
aF0.0
aF0.0
aF0.0
asg11
I01
sg12
g13
sg14
I00
sg15
g16
sa(dp589
g2
F0.0
sg3
(lp590
F-0.036979234016183776
aF1.088841297136342
aF0.6460001749767048
aF3.1308829613380555
aF0.00025381174380826184
aF-0.00014777101637143933
asg5
I0
sg6
F0.4995594713656387
sg7
(F-1.3859856764422815
F-2.311617676411764
F-0.5457080046283167
F-1.8655436674701136
F1.5730153322219849
F0.18494543433189392
tp591
sg9
(lp592
F0.0
aF0.0
aF0.0
aF0.0
aF0.0
aF0.0
asg11
I01
sg12
g13
sg14
I00
sg15
g16
sa(dp593
g2
F0.0
sg3
(lp594
F-0.03696590333051393
aF1.088845903279867
aF0.645960274717807
aF3.1308261215036257
aF0.00023105728174861026
aF-0.00014759933826567173
asg5
I0
sg6
F0.4995594713656387
sg7
(F-1.3859975973712366
F-2.311617676411764
F-0.5457680861102503
F-1.8655436674701136
F1.5730032920837402
F0.18493345379829407
tp595
sg9
(lp596
F0.0
aF0.0
aF0.0
aF0.0
aF0.0
aF0.0
asg11
I01
sg12
g13
sg14
I00
sg15
g16
sa(dp597
g2
F0.0
sg3
(lp598
F-0.036998894514251195
aF1.0888645677687285
aF0.64591526767249
aF3.130784811055337
aF0.0002596947176976774
aF-0.0001481073863429561
asg5
I0
sg6
F0.4995594713656387
sg7
(F-1.3859737555133265
F-2.311653439198629
F-0.5457800070392054
F-1.8655312697040003
F1.5730392932891846
F0.18495741486549377
tp599
sg9
(lp600
F0.0
aF0.0
aF0.0
aF0.0
aF0.0
aF0.0
asg11
I01
sg12
g13
sg14
I00
sg15
g16
sa(dp601
g2
F0.0
sg3
(lp602
F-0.036947432250445965
aF1.0888049436815008
aF0.6460368782612577
aF3.1310106001901543
aF0.0002898196945625306
aF-0.00017170232626135453
asg5
I0
sg6
F0.4995594713656387
sg7
(F-1.3860095183001917
F-2.3114855925189417
F-0.5459001700030726
F-1.8653515020953577
F1.57302725315094
F0.18494543433189392
tp603
sg9
(lp604
F0.0
aF-0.10430908203125
aF0.0
aF0.0
aF0.0
aF0.0
asg11
I01
sg12
g13
sg14
I00
sg15
g16
sa(dp605
g2
F0.0
sg3
(lp606
F-0.036480899873541105
aF1.08405300308512
aF0.6454836127942362
aF3.1305144997643963
aF9.657927171502037e-05
aF-3.9963451100919636e-05
asg5
I0
sg6
F0.4995594713656387
sg7
(F-1.3856146971331995
F-2.2969306151019495
F-0.5721877256976526
F-1.8541415373431605
F1.5729314088821411
F0.1852094531059265
tp607
sg9
(lp608
F0.047839355468750004
aF-0.19999389648437502
aF0.0
aF0.0
aF0.0
aF0.0
asg11
I01
sg12
g13
sg14
I00
sg15
g16
sa(dp609
g2
F0.0
sg3
(lp610
F-0.03306219250435054
aF1.0665895277923494
aF0.645412612588952
aF3.1306933087298483
aF6.933200701250071e-05
aF-0.00015940727299534942
asg5
I0
sg6
F0.4995594713656387
sg7
(F-1.3857467810260218
F-2.248051468526022
F-0.6560967604266565
F-1.8189409414874476
F1.5728715658187866
F0.18519747257232666
tp611
sg9
(lp612
F0.0
aF0.0
aF0.0
aF0.0
aF0.0
aF0.0
asg11
I01
sg12
g13
sg14
I00
sg15
g16
sa(dp613
g2
F0.0
sg3
(lp614
F-0.02989646096590747
aF1.0525957073402348
aF0.6448741848277691
aF3.131945909415886
aF0.00028263028254911374
aF-0.0003610367182018614
asg5
I0
sg6
F0.4995594713656387
sg7
(F-1.3862608114825647
F-2.211569134389059
F-0.7183092276202601
F-1.791940991078512
F1.572847604751587
F0.18488551676273346
tp615
sg9
(lp616
F0.0
aF0.0
aF0.0
aF0.0
aF0.0
aF0.0
asg11
I01
sg12
g13
sg14
I00
sg15
g16
sa(dp617
g2
F0.0
sg3
(lp618
F-0.02945745999186973
aF1.0505343829525882
aF0.6438905641784799
aF3.131298686827206
aF0.0001256933587626732
aF-0.00033706850410933874
asg5
I0
sg6
F0.4995594713656387
sg7
(F-1.3863089720355433
F-2.206186596547262
F-0.7288172880755823
F-1.78748065630068
F1.5728116035461426
F0.18481360375881195
tp619
sg9
(lp620
F0.0
aF0.0
aF0.0
aF0.0
aF0.0
aF0.0
asg11
I01
sg12
g13
sg14
I00
sg15
g16
sa(dp621
g2
F0.0
sg3
(lp622
F-0.029552430027155192
aF1.0508080320139948
aF0.643647278980609
aF3.130910817572505
aF0.00011392031682741734
aF-0.00032546683538315605
asg5
I0
sg6
F0.4995594713656387
sg7
(F-1.3862727324115198
F-2.206846062337057
F-0.7280858198748987
F-1.787936035786764
F1.5728715658187866
F0.18483757972717285
tp623
sg9
(lp624
F0.0
aF0.0
aF0.0
aF0.0
aF0.0
aF0.0
asg11
I01
sg12
g13
sg14
I00
sg15
g16
sa(dp625
g2
F0.0
sg3
(lp626
F-0.029566846608277818
aF1.0508552001356743
aF0.6438073249139924
aF3.131006718323206
aF0.00019449920928457843
aF-0.00015829828714913606
asg5
I0
sg6
F0.4995594713656387
sg7
(F-1.3862727324115198
F-2.2070139090167444
F-0.7275455633746546
F-1.7881997267352503
F1.5729314088821411
F0.18466979265213013
tp627
sg9
(lp628
F0.0
aF0.0
aF0.0
aF0.0
aF0.0
aF0.0
asg11
I01
sg12
g13
sg14
I00
sg15
g16
sa(dp629
g2
F0.0
sg3
(lp630
F-0.0294961227900799
aF1.0508777532983395
aF0.6437648804645234
aF3.1309810783122307
aF0.00020233733808809875
aF-0.00019447630391765616
asg5
I0
sg6
F0.4995594713656387
sg7
(F-1.3863447348224085
F-2.2070496718036097
F-0.7275574843036097
F-1.7881758848773401
F1.5729434490203857
F0.18463383615016937
tp631
sg9
(lp632
F0.0
aF0.0
aF0.0
aF0.0
aF0.0
aF0.0
asg11
I01
sg12
g13
sg14
I00
sg15
g16
sa(dp633
g2
F0.0
sg3
(lp634
F-0.02950442723137936
aF1.050854768463703
aF0.6438639600377921
aF3.131087011643632
aF0.00022212287955198463
aF-0.0001825328927423751
asg5
I0
sg6
F0.4995594713656387
sg7
(F-1.3863328138934534
F-2.2070139090167444
F-0.7274616400348108
F-1.7881997267352503
F1.5729434490203857
F0.18463383615016937
tp635
sg9
(lp636
F0.0
aF0.0
aF0.0
aF0.0
aF0.0
aF0.0
asg11
I01
sg12
g13
sg14
I00
sg15
g16
sa(dp637
g2
F0.0
sg3
(lp638
F-0.02955067145964131
aF1.050861305496758
aF0.6438379203942988
aF3.1310616346038453
aF0.00029075652508032013
aF-0.00012307987980565493
asg5
I0
sg6
F0.4995594713656387
sg7
(F-1.38629657426943
F-2.2070258299456995
F-0.7274859587298792
F-1.7881758848773401
F1.5730153322219849
F0.18460987508296967
tp639
sg9
(lp640
F0.0
aF0.0
aF0.0
aF0.0
aF0.0
aF0.0
asg11
I01
sg12
g13
sg14
I00
sg15
g16
sa(dp641
g2
F0.0
sg3
(lp642
F-0.02956863120488316
aF1.050902102336377
aF0.6437092457031642
aF3.1309361938288633
aF0.00024295653656469226
aF-0.00011094407984461939
asg5
I0
sg6
F0.4995594713656387
sg7
(F-1.386284653340475
F-2.207097832356588
F-0.727569882069723
F-1.78815204301943
F1.5729913711547852
F0.18460987508296967
tp643
sg9
(lp644
F0.0
aF0.0
aF0.0
aF0.0
aF0.0
aF0.0
asg11
I01
sg12
g13
sg14
I00
sg15
g16
sa(dp645
g2
F0.0
sg3
(lp646
F-0.029522933217792695
aF1.050874414244538
aF0.6437956953142204
aF3.131011845347548
aF0.0002329630359630877
aF-0.00012294202613628816
asg5
I0
sg6
F0.4995594713656387
sg7
(F-1.3863208929644983
F-2.2070496718036097
F-0.7275098005877894
F-1.7881878058062952
F1.5729674100875854
F0.18458589911460876
tp647
sg9
(lp648
F0.0
aF0.0
aF0.0
aF0.0
aF0.0
aF0.0
asg11
I01
sg12
g13
sg14
I00
sg15
g16
sa(dp649
g2
F0.0
sg3
(lp650
F-0.029484842144991634
aF1.0508727418199864
aF0.6437786323961754
aF3.131000129719695
aF0.00023090183033396255
aF-0.00014672766832321768
asg5
I0
sg6
F0.4995594713656387
sg7
(F-1.3863566557513636
F-2.2070377508746546
F-0.7275574843036097
F-1.788163963948385
F1.5729674100875854
F0.1845739185810089
tp651
sg9
(lp652
F0.0
aF0.0
aF0.0
aF0.0
aF0.0
aF0.0
asg11
I01
sg12
g13
sg14
I00
sg15
g16
sa(dp653
g2
F0.0
sg3
(lp654
F-0.02959206985410927
aF1.0509108251195856
aF0.6436803758287108
aF3.130884215417268
aF0.0001968838789640061
aF-6.276246662230131e-05
asg5
I0
sg6
F0.4995594713656387
sg7
(F-1.3862608114825647
F-2.2071216742144983
F-0.727569882069723
F-1.7881878058062952
F1.5729553699493408
F0.18458589911460876
tp655
sg9
(lp656
F0.0
aF0.0
aF0.0
aF0.0
aF0.0
aF0.0
asg11
I01
sg12
g13
sg14
I00
sg15
g16
sa(dp657
g2
F0.0
sg3
(lp658
F-0.029550216451940784
aF1.050870909604288
aF0.6437364034770046
aF3.1309244841522013
aF0.00024115172806547322
aF-8.691338610205819e-05
asg5
I0
sg6
F0.4995594713656387
sg7
(F-1.38629657426943
F-2.2070377508746546
F-0.7276180426227015
F-1.7881758848773401
F1.5729913711547852
F0.1845739185810089
tp659
sg9
(lp660
F0.0
aF0.0
aF0.0
aF0.0
aF0.0
aF0.0
asg11
I01
sg12
g13
sg14
I00
sg15
g16
sa(dp661
g2
F0.0
sg3
(lp662
F-0.029503040951091766
aF1.0508847502371192
aF0.6437294254835889
aF3.1309344834560044
aF0.0002551449979950529
aF-0.00013519586827812603
asg5
I0
sg6
F0.4995594713656387
sg7
(F-1.3863447348224085
F-2.2070615927325647
F-0.7275937239276331
F-1.788163963948385
F1.5730032920837402
F0.1845739185810089
tp663
sg9
(lp664
F0.0
aF0.0
aF0.0
aF0.0
aF0.0
aF0.0
asg11
I01
sg12
g13
sg14
I00
sg15
g16
sa(dp665
g2
F0.0
sg3
(lp666
F-0.029512918656962324
aF1.050864144535694
aF0.6437554644525766
aF3.1309318049873798
aF0.0002668924376264015
aF-0.00012340122130337467
asg5
I0
sg6
F0.4995594713656387
sg7
(F-1.3863328138934534
F-2.2070258299456995
F-0.7276061216937464
F-1.7881878058062952
F1.5730153322219849
F0.1845739185810089
tp667
sg9
(lp668
F0.0
aF0.0
aF0.0
aF0.0
aF0.0
aF0.0
asg11
I01
sg12
g13
sg14
I00
sg15
g16
sa(dp669
g2
F0.0
sg3
(lp670
F-0.02947689511332043
aF1.050897646479409
aF0.6436868805878366
aF3.130882013058989
aF0.0002091037550282961
aF-0.00013471487583850136
asg5
I0
sg6
F0.1973568281938326
sg7
(F-1.3863685766803187
F-2.207085434590475
F-0.7276180426227015
F-1.7881758848773401
F1.5729674100875854
F0.1845499575138092
tp671
sg9
(lp672
F0.0
aF0.0
aF0.0
aF0.0
aF0.0
aF0.0
asg11
I01
sg12
g13
sg14
I00
sg15
g16
sa(dp673
g2
F0.0
sg3
(lp674
F-0.029533946658137904
aF1.050891253599799
aF0.6436908392963074
aF3.1308431756161736
aF0.00028722185454468284
aF-8.792217013310361e-05
asg5
I0
sg6
F0.08017621145374454
sg7
(F-1.3863208929644983
F-2.207085434590475
F-0.7276061216937464
F-1.7882116476642054
F1.5730513334274292
F0.1845499575138092
tp675
sg9
(lp676
F0.0
aF0.0
aF0.0
aF0.0
aF0.0
aF0.0
asg11
I01
sg12
g13
sg14
I00
sg15
g16
sa(dp677
g2
F0.0
sg3
(lp678
F-0.029553097368766212
aF1.0508863467709808
aF0.6436790731903979
aF3.130830744932808
aF0.0002240389283621402
aF-5.060824482304544e-05
asg5
I0
sg6
F0.003083700440528747
sg7
(F-1.38629657426943
F-2.20707351366152
F-0.7276418844806116
F-1.7882116476642054
F1.5729913711547852
F0.1845375895500183
tp679
sg9
(lp680
F0.0
aF0.0
aF0.0
aF0.0
aF0.0
aF0.0
asg11
I01
sg12
g13
sg14
I00
sg15
g16
sa(dp681
g2
F0.0
sg3
(lp682
F-0.02949681126369885
aF1.0508754507088045
aF0.6436975413933415
aF3.1308842201376192
aF0.00019714045961036265
aF-0.00012272611260331706
asg5
I0
sg6
F0.0
sg7
(F-1.3863447348224085
F-2.2070377508746546
F-0.7276776472674769
F-1.788163963948385
F1.5729553699493408
F0.18456193804740906
tp683
sg9
(lp684
F0.0
aF0.0
aF0.0
aF0.0
aF0.0
aF0.0
asg11
I01
sg12
g13
sg14
I00
sg15
g16
sa(dp685
g2
F0.0
sg3
(lp686
F-0.02952634299839988
aF1.050886695809602
aF0.6436615595558013
aF3.1307973225340255
aF0.00020516159482044456
aF-0.00011113393662274596
asg5
I0
sg6
F0.0
sg7
(F-1.3863208929644983
F-2.20707351366152
F-0.7276657263385218
F-1.7882240454303187
F1.5729793310165405
F0.1845739185810089
tp687
sg9
(lp688
F0.0
aF0.0
aF0.0
aF0.0
aF0.0
aF0.0
asg11
I01
sg12
g13
sg14
I00
sg15
g16
sa(dp689
g2
F0.0
sg3
(lp690
F-0.02953671896226756
aF1.0508748138900479
aF0.6437038297278793
aF3.1308563912266707
aF0.00021657898873701897
aF-6.28736269385242e-05
asg5
I0
sg6
F0.0
sg7
(F-1.3863089720355433
F-2.2070496718036097
F-0.7276418844806116
F-1.7882116476642054
F1.5729793310165405
F0.1845375895500183
tp691
sg9
(lp692
F0.0
aF0.0
aF0.0
aF0.0
aF0.0
aF0.0
asg11
I01
sg12
g13
sg14
I00
sg15
g16
sa(dp693
g2
F0.0
sg3
(lp694
F-0.02951115055449498
aF1.0508787575329155
aF0.6436824291212415
aF3.130846857643702
aF0.0002025406953231931
aF-9.895932473167337e-05
asg5
I0
sg6
F0.0
sg7
(F-1.3863328138934534
F-2.2070496718036097
F-0.7276776472674769
F-1.7881878058062952
F1.5729674100875854
F0.1845499575138092
tp695
sg9
(lp696
F0.0
aF0.0
aF0.0
aF0.0
aF0.0
aF0.0
asg11
I01
sg12
g13
sg14
I00
sg15
g16
sa(dp697
g2
F0.0
sg3
(lp698
F-0.02953580300614148
aF1.0508699054735609
aF0.6436837094638098
aF3.1308207593721193
aF0.00020953753270931677
aF-9.920814805441794e-05
asg5
I0
sg6
F0.0
sg7
(F-1.3863089720355433
F-2.2070377508746546
F-0.7276900450335901
F-1.7882116476642054
F1.5729793310165405
F0.1845739185810089
tp699
sg9
(lp700
F0.0
aF0.0
aF0.0
aF0.0
aF0.0
aF0.0
asg11
I01
sg12
g13
sg14
I00
sg15
g16
sa(dp701
g2
F0.0
sg3
(lp702
F-0.02952781023109946
aF1.0508764632611352
aF0.6437146167843449
aF3.130884931313692
aF0.0002581405452102201
aF-0.00011149259745079639
asg5
I0
sg6
F0.0
sg7
(F-1.3863208929644983
F-2.2070496718036097
F-0.7276299635516565
F-1.7881878058062952
F1.5730153322219849
F0.1845739185810089
tp703
sg9
(lp704
F0.0
aF0.0
aF0.0
aF0.0
aF0.0
aF0.0
asg11
I01
sg12
g13
sg14
I00
sg15
g16
sa(dp705
g2
F0.0
sg3
(lp706
F-0.029528461973432316
aF1.0508860079019184
aF0.6436696088641847
aF3.1308046433777035
aF0.00023090227111944404
aF-0.00011138556454833968
asg5
I0
sg6
F0.0
sg7
(F-1.3863208929644983
F-2.20707351366152
F-0.7276538054095667
F-1.7882240454303187
F1.5730032920837402
F0.1845739185810089
tp707
sg9
(lp708
F0.0
aF0.0
aF0.0
aF0.0
aF0.0
aF0.0
asg11
I01
sg12
g13
sg14
I00
sg15
g16
sa(dp709
g2
F0.0
sg3
(lp710
F-0.029535267518443205
aF1.050873027465506
aF0.6437265383453661
aF3.1308815393152276
aF0.00020875960280572129
aF-9.90700222914669e-05
asg5
I0
sg6
F0.0
sg7
(F-1.3863089720355433
F-2.2070496718036097
F-0.7276061216937464
F-1.7882240454303187
F1.5729674100875854
F0.1845739185810089
tp711
sg9
(lp712
F0.0
aF0.0
aF0.0
aF0.0
aF0.0
aF0.0
asg11
I01
sg12
g13
sg14
I00
sg15
g16
sa(dp713
g2
F0.0
sg3
(lp714
F-0.029501361275163337
aF1.0508757474212136
aF0.643695790113801
aF3.1308402673701545
aF0.0002375537056128202
aF-0.00013521907832988146
asg5
I0
sg6
F0.0
sg7
(F-1.3863447348224085
F-2.2070496718036097
F-0.7276538054095667
F-1.7882116476642054
F1.5730032920837402
F0.1845739185810089
tp715
sg9
(lp716
F0.0
aF0.0
aF0.0
aF0.0
aF0.0
aF0.0
asg11
I01
sg12
g13
sg14
I00
sg15
g16
sa(dp717
g2
F0.0
sg3
(lp718
F-0.02951538844991452
aF1.050877381387303
aF0.6436985278086996
aF3.1308615037025
aF0.00025415444375030466
aF-8.709258472084989e-05
asg5
I0
sg6
F0.0
sg7
(F-1.3863328138934534
F-2.2070496718036097
F-0.7276538054095667
F-1.7881878058062952
F1.5730153322219849
F0.1845375895500183
tp719
sg9
(lp720
F0.0
aF0.0
aF0.0
aF0.0
aF0.0
aF0.0
asg11
I01
sg12
g13
sg14
I00
sg15
g16
sa(dp721
g2
F0.0
sg3
(lp722
F-0.029553261721596415
aF1.050881236283069
aF0.6436589554643878
aF3.1307929249591577
aF0.0002287142991821325
aF-8.706956246719495e-05
asg5
I0
sg6
F0.0
sg7
(F-1.38629657426943
F-2.2070615927325647
F-0.7276900450335901
F-1.7882116476642054
F1.5730032920837402
F0.1845739185810089
tp723
sg9
(lp724
F0.0
aF0.0
aF0.0
aF0.0
aF0.0
aF0.0
asg11
I01
sg12
g13
sg14
I00
sg15
g16
sa(dp725
g2
F0.0
sg3
(lp726
F-0.02951723813042308
aF1.0508872947472203
aF0.6436710335960538
aF3.130814620803555
aF0.000245012705528534
aF-0.00012343121487190097
asg5
I0
sg6
F0.0
sg7
(F-1.3863328138934534
F-2.20707351366152
F-0.7276538054095667
F-1.7882116476642054
F1.5730153322219849
F0.1845739185810089
tp727
sg9
(lp728
F0.0
aF0.0
aF0.0
aF0.0
aF0.0
aF0.0
asg11
I01
sg12
g13
sg14
I00
sg15
g16
sa(dp729
g2
F0.0
sg3
(lp730
F-0.029512898825459967
aF1.0508821350649724
aF0.6436753613446078
aF3.1308212306209287
aF0.0002097540963803453
aF-0.00011107006886849437
asg5
I0
sg6
F0.0
sg7
(F-1.3863328138934534
F-2.2070615927325647
F-0.7276657263385218
F-1.7882116476642054
F1.5729793310165405
F0.18456193804740906
tp731
sg9
(lp732
F0.0
aF0.0
aF0.0
aF0.0
aF0.0
aF0.0
asg11
I01
sg12
g13
sg14
I00
sg15
g16
sa(dp733
g2
F0.0
sg3
(lp734
F-0.029531458934367174
aF1.0508900252479279
aF0.6436751388392622
aF3.1308475882054103
aF0.0002632943956487045
aF-0.00011162745729581586
asg5
I0
sg6
F0.0
sg7
(F-1.3863208929644983
F-2.20707351366152
F-0.7276538054095667
F-1.7881758848773401
F1.57302725315094
F0.1845739185810089
tp735
sg9
(lp736
F0.0
aF0.0
aF0.0
aF0.0
aF0.0
aF0.0
asg11
I01
sg12
g13
sg14
I00
sg15
g16
sa(dp737
g2
F0.0
sg3
(lp738
F-0.029463177513451018
aF1.0508976725207946
aF0.6436694215560523
aF3.1308490625178984
aF0.00019044827174863145
aF-0.00017047555702887705
asg5
I0
sg6
F0.0
sg7
(F-1.3863804976092737
F-2.207085434590475
F-0.7276418844806116
F-1.7881878058062952
F1.5729553699493408
F0.1845739185810089
tp739
sg9
(lp740
F0.0
aF0.0
aF0.0
aF0.0
aF0.0
aF0.0
asg11
I01
sg12
g13
sg14
I00
sg15
g16
sa(dp741
g2
F0.0
sg3
(lp742
F-0.02954932677226233
aF1.0508781845568336
aF0.6436967024356498
aF3.1308346608458715
aF0.0001997498051296567
aF-0.00011065641781400088
asg5
I0
sg6
F0.0
sg7
(F-1.38629657426943
F-2.2070615927325647
F-0.7276299635516565
F-1.7882359663592737
F1.5729674100875854
F0.1845978945493698
tp743
sg9
(lp744
F0.0
aF0.0
aF0.0
aF0.0
aF0.0
aF0.0
asg11
I01
sg12
g13
sg14
I00
sg15
g16
sa(dp745
g2
F0.0
sg3
(lp746
F-0.02955109975681415
aF1.05086965156447
aF0.6437014926404206
aF3.130851988661587
aF0.000239870353860351
aF-7.507588587806688e-05
asg5
I0
sg6
F0.0
sg7
(F-1.38629657426943
F-2.2070377508746546
F-0.7276657263385218
F-1.7881997267352503
F1.5730032920837402
F0.18456193804740906
tp747
sg9
(lp748
F0.0
aF0.0
aF0.0
aF0.0
aF0.0
aF0.0
asg11
I01
sg12
g13
sg14
I00
sg15
g16
sa(dp749
g2
F0.0
sg3
(lp750
F-0.029537961662923686
aF1.0508754217884162
aF0.6437132442564486
aF3.13087761326152
aF0.00023252821677304284
aF-8.734240458199505e-05
asg5
I0
sg6
F0.0
sg7
(F-1.3863089720355433
F-2.2070496718036097
F-0.7276299635516565
F-1.7881997267352503
F1.5729913711547852
F0.18456193804740906
tp751
sg9
(lp752
F0.0
aF0.0
aF0.0
aF0.0
aF0.0
aF0.0
asg11
I01
sg12
g13
sg14
I00
sg15
g16
sa(dp753
g2
F0.0
sg3
(lp754
F-0.029517684416271582
aF1.0508957388618974
aF0.6436613867011114
aF3.130828548951573
aF0.0002353657337728675
aF-0.0001233009203063456
asg5
I0
sg6
F0.0
sg7
(F-1.3863328138934534
F-2.207085434590475
F-0.7276538054095667
F-1.7881878058062952
F1.5730032920837402
F0.1845739185810089
tp755
sg9
(lp756
F0.0
aF0.0
aF0.0
aF0.0
aF0.0
aF0.0
asg11
I01
sg12
g13
sg14
I00
sg15
g16
sa(dp757
g2
F0.0
sg3
(lp758
F-0.029541149183637108
aF1.0508865114846104
aF0.6436790756094075
aF3.13082855459395
aF0.00023562364815920463
aF-7.549938265387628e-05
asg5
I0
sg6
F0.0
sg7
(F-1.3863089720355433
F-2.20707351366152
F-0.7276418844806116
F-1.7882116476642054
F1.5730032920837402
F0.1845499575138092
tp759
sg9
(lp760
F0.0
aF0.0
aF0.0
aF0.0
aF0.0
aF0.0
asg11
I01
sg12
g13
sg14
I00
sg15
g16
sa(dp761
g2
F0.0
sg3
(lp762
F-0.029525074467009593
aF1.050867853766554
aF0.6437067471740595
aF3.130839798633411
aF0.0002374661867398522
aF-0.00011137733174932986
asg5
I0
sg6
F0.0
sg7
(F-1.3863208929644983
F-2.2070377508746546
F-0.7276538054095667
F-1.7882240454303187
F1.5730032920837402
F0.1845739185810089
tp763
sg9
(lp764
F0.0
aF0.0
aF0.0
aF0.0
aF0.0
aF0.0
asg11
I01
sg12
g13
sg14
I00
sg15
g16
sa(dp765
g2
F0.0
sg3
(lp766
F-0.029577832467707347
aF1.050889977832377
aF0.6436590400588675
aF3.1308329465279447
aF0.00021181302036617165
aF-6.296595650109497e-05
asg5
I0
sg6
F0.0
sg7
(F-1.3862727324115198
F-2.20707351366152
F-0.7276776472674769
F-1.7881758848773401
F1.5729793310165405
F0.1845739185810089
tp767
sg9
(lp768
F0.0
aF0.0
aF0.0
aF0.0
aF0.0
aF0.0
asg11
I01
sg12
g13
sg14
I00
sg15
g16
sa(dp769
g2
F0.0
sg3
(lp770
F-0.029548776549672667
aF1.0508692450723067
aF0.6436920757125264
aF3.1308329465279447
aF0.00021181302036619702
aF-8.680781441125809e-05
asg5
I0
sg6
F0.0
sg7
(F-1.38629657426943
F-2.2070377508746546
F-0.7276776472674769
F-1.7882116476642054
F1.5729793310165405
F0.1845739185810089
tp771
sg9
(lp772
F0.0
aF0.0
aF0.0
aF0.0
aF0.0
aF0.0
asg11
I01
sg12
g13
sg14
I00
sg15
g16
sa(dp773
g2
F0.0
sg3
(lp774
F-0.029515145148684613
aF1.0509001665545314
aF0.6436538139187007
aF3.1308112241121795
aF0.0001953733083690704
aF-0.0001469006720300755
asg5
I0
sg6
F0.0
sg7
(F-1.3863328138934534
F-2.207097832356588
F-0.7276418844806116
F-1.7882116476642054
F1.5729674100875854
F0.1845978945493698
tp775
sg9
(lp776
F0.0
aF0.0
aF0.0
aF0.0
aF0.0
aF0.0
asg11
I01
sg12
g13
sg14
I00
sg15
g16
sa(dp777
g2
F0.0
sg3
(lp778
F-0.029526538655880563
aF1.0508696487061382
aF0.6436837167692178
aF3.13081415500176
aF0.00024505431627492745
aF-9.953056270215401e-05
asg5
I0
sg6
F0.4779735682819383
sg7
(F-1.3863208929644983
F-2.2070377508746546
F-0.7276900450335901
F-1.7882116476642054
F1.5730153322219849
F0.18456193804740906
tp779
sg9
(lp780
F0.0
aF0.0
aF0.0
aF0.0
aF0.0
aF0.0
asg11
I01
sg12
g13
sg14
I00
sg15
g16
sa(dp781
g2
F0.0
sg3
(lp782
F-0.029568198237693903
aF1.0508576074026004
aF0.6437083617232923
aF3.130803154437676
aF0.0003041240679024491
aF-5.194674080406075e-05
asg5
I0
sg6
F0.5612334801762114
sg7
(F-1.386284653340475
F-2.2070258299456995
F-0.7276657263385218
F-1.7882478872882288
F1.573075294494629
F0.1845499575138092
tp783
sg9
(lp784
F0.0
aF0.0
aF0.0
aF0.0
aF0.0
aF0.0
asg11
I01
sg12
g13
sg14
I00
sg15
g16
sa(dp785
g2
F0.0
sg3
(lp786
F-0.029555060572322264
aF1.0508788330531749
aF0.6436819932760343
aF3.130811970366576
aF0.0002569012639697221
aF-6.335834775448272e-05
asg5
I0
sg6
F0.5612334801762114
sg7
(F-1.38629657426943
F-2.2070615927325647
F-0.7276538054095667
F-1.7882240454303187
F1.57302725315094
F0.1845499575138092
tp787
sg9
(lp788
F0.0
aF0.0
aF0.0
aF0.0
aF0.0
aF0.0
asg11
I01
sg12
g13
sg14
I00
sg15
g16
sa(dp789
g2
F0.0
sg3
(lp790
F-0.029509815909874178
aF1.050896912415195
aF0.6436171741592385
aF3.1307128599342913
aF0.00026263397565321655
aF-0.00013575952059546344
asg5
I0
sg6
F0.5612334801762114
sg7
(F-1.3863447348224085
F-2.207097832356588
F-0.7276900450335901
F-1.7882478872882288
F1.5730513334274292
F0.1845739185810089
tp791
sg9
(lp792
F0.0
aF0.0
aF0.0
aF0.0
aF0.0
aF0.0
asg11
I01
sg12
g13
sg14
I00
sg15
g16
sa(dp793
g2
F0.0
sg3
(lp794
F-0.0295468983849206
aF1.0508931742706968
aF0.6436261617168084
aF3.1307489558880106
aF0.00026950285896178676
aF-8.80073032766122e-05
asg5
I0
sg6
F0.5612334801762114
sg7
(F-1.3863089720355433
F-2.207085434590475
F-0.7277019659625452
F-1.7882116476642054
F1.5730513334274292
F0.18456193804740906
tp795
sg9
(lp796
F0.0
aF0.0
aF0.0
aF0.0
aF0.0
aF0.0
asg11
I01
sg12
g13
sg14
I00
sg15
g16
sa(dp797
g2
F0.0
sg3
(lp798
F-0.02954460029895959
aF1.0508688162816957
aF0.6436644574527434
aF3.1307323644337997
aF0.0002905200304546625
aF-0.00011222597675284938
asg5
I0
sg6
F0.5612334801762114
sg7
(F-1.3863089720355433
F-2.2070496718036097
F-0.7276900450335901
F-1.788271729146139
F1.573075294494629
F0.18458589911460876
tp799
sg9
(lp800
F0.0
aF0.0
aF0.0
aF0.0
aF0.0
aF0.0
asg11
I01
sg12
g13
sg14
I00
sg15
g16
sa(dp801
g2
F0.0
sg3
(lp802
F-0.029497332320150522
aF1.050897500401864
aF0.6436429967857765
aF3.1307602023410173
aF0.0002714734071092297
aF-0.00014766780659609998
asg5
I0
sg6
F0.5612334801762114
sg7
(F-1.3863566557513636
F-2.207097832356588
F-0.7276538054095667
F-1.7882359663592737
F1.5730513334274292
F0.1845739185810089
tp803
sg9
(lp804
F0.0
aF0.0
aF0.0
aF0.0
aF0.0
aF0.0
asg11
I01
sg12
g13
sg14
I00
sg15
g16
sa(dp805
g2
F0.0
sg3
(lp806
F-0.029571881553098155
aF1.0508833935383166
aF0.6436521647757296
aF3.1307584900121284
aF0.0002835382782128775
aF-5.1832550872699644e-05
asg5
I0
sg6
F0.5612334801762114
sg7
(F-1.386284653340475
F-2.20707351366152
F-0.7276776472674769
F-1.7882359663592737
F1.5730632543563843
F0.1845499575138092
tp807
sg9
(lp808
F0.0
aF0.0
aF0.0
aF0.0
aF0.0
aF0.0
asg11
I01
sg12
g13
sg14
I00
sg15
g16
sa(dp809
g2
F0.0
sg3
(lp810
F-0.02955336123130542
aF1.0508817694980148
aF0.6436396837021177
aF3.1307221457113887
aF0.0002154989480238841
aF-8.708528299206263e-05
asg5
I0
sg6
F0.5612334801762114
sg7
(F-1.38629657426943
F-2.20707351366152
F-0.7276900450335901
F-1.788271729146139
F1.5730032920837402
F0.1845739185810089
tp811
sg9
(lp812
F0.0
aF0.0
aF0.0
aF0.0
aF0.0
aF0.0
asg11
I01
sg12
g13
sg14
I00
sg15
g16
sa(dp813
g2
F0.0
sg3
(lp814
F-0.029554490427682732
aF1.050887820208186
aF0.6436273041614173
aF3.1307104298491324
aF0.00021344134816114572
aF-7.510797098140484e-05
asg5
I0
sg6
F0.5612334801762114
sg7
(F-1.38629657426943
F-2.207085434590475
F-0.7276900450335901
F-1.788271729146139
F1.5730032920837402
F0.18456193804740906
tp815
sg9
(lp816
F0.0
aF0.0
aF0.0
aF0.0
aF0.0
aF0.0
asg11
I01
sg12
g13
sg14
I00
sg15
g16
sa(dp817
g2
F0.0
sg3
(lp818
F-0.029530409491324194
aF1.0508964449310974
aF0.6436335749458953
aF3.1307455825483523
aF0.00021987489223884347
aF-0.00011139887617251092
asg5
I0
sg6
F0.5612334801762114
sg7
(F-1.3863208929644983
F-2.207097832356588
F-0.7276657263385218
F-1.7882478872882288
F1.5730032920837402
F0.1845739185810089
tp819
sg9
(lp820
F0.0
aF0.0
aF0.0
aF0.0
aF0.0
aF0.0
asg11
I01
sg12
g13
sg14
I00
sg15
g16
sa(dp821
g2
F0.0
sg3
(lp822
F-0.029516368921471043
aF1.0508826362230932
aF0.6436396861586133
aF3.1307199359839473
aF0.00022733387952180163
aF-0.0001234535768775432
asg5
I0
sg6
F0.5612334801762114
sg7
(F-1.3863328138934534
F-2.20707351366152
F-0.7276900450335901
F-1.788271729146139
F1.5730153322219849
F0.1845739185810089
tp823
sg9
(lp824
F0.0
aF0.0
aF0.0
aF0.0
aF0.0
aF0.0
asg11
I01
sg12
g13
sg14
I00
sg15
g16
sa(dp825
g2
F0.0
sg3
(lp826
F-0.029527697608014814
aF1.0508819115574077
aF0.6436560943017414
aF3.1307460512850924
aF0.00021996241112191798
aF-0.00011139877308863993
asg5
I0
sg6
F0.5612334801762114
sg7
(F-1.3863208929644983
F-2.20707351366152
F-0.7276657263385218
F-1.788271729146139
F1.5730032920837402
F0.1845739185810089
tp827
sg9
(lp828
F0.0
aF0.0
aF0.0
aF0.0
aF0.0
aF0.0
asg11
I01
sg12
g13
sg14
I00
sg15
g16
sa(dp829
g2
F0.0
sg3
(lp830
F-0.02956634135555169
aF1.0508838423924218
aF0.6436682413052532
aF3.1307929276998925
aF0.00022884368316233384
aF-6.31687982614112e-05
asg5
I0
sg6
F0.5612334801762114
sg7
(F-1.386284653340475
F-2.20707351366152
F-0.7276538054095667
F-1.7882359663592737
F1.5730032920837402
F0.18456193804740906
tp831
sg9
(lp832
F0.0
aF0.0
aF0.0
aF0.0
aF0.0
aF0.0
asg11
I01
sg12
g13
sg14
I00
sg15
g16
sa(dp833
g2
F0.0
sg3
(lp834
F-0.02955058035568799
aF1.050872859553897
aF0.6436769089242167
aF3.13079511540846
aF0.00021712589372885625
aF-7.496318620070841e-05
asg5
I0
sg6
F0.5612334801762114
sg7
(F-1.38629657426943
F-2.2070496718036097
F-0.7276776472674769
F-1.7882359663592737
F1.5729913711547852
F0.18456193804740906
tp835
sg9
(lp836
F0.0
aF0.0
aF0.0
aF0.0
aF0.0
aF0.0
asg11
I01
sg12
g13
sg14
I00
sg15
g16
sa(dp837
g2
F0.0
sg3
(lp838
F-0.029536048019320218
aF1.0508772100056827
aF0.6436698340395982
aF3.130776069011716
aF0.0001888085630276817
aF-0.00012306556708875416
asg5
I0
sg6
F0.5612334801762114
sg7
(F-1.3863089720355433
F-2.2070615927325647
F-0.7276657263385218
F-1.7882598082171839
F1.5729674100875854
F0.1845978945493698
tp839
sg9
(lp840
F0.0
aF0.0
aF0.0
aF0.0
aF0.0
aF0.0
asg11
I01
sg12
g13
sg14
I00
sg15
g16
sa(dp841
g2
F0.0
sg3
(lp842
F-0.029498261447244076
aF1.050877170845546
aF0.6436684665204948
aF3.130764359602855
aF0.0001871393809132897
aF-0.00011089632759087534
asg5
I0
sg6
F0.5612334801762114
sg7
(F-1.3863447348224085
F-2.2070615927325647
F-0.7276657263385218
F-1.788271729146139
F1.5729674100875854
F0.1845499575138092
tp843
sg9
(lp844
F0.0
aF0.0
aF0.0
aF0.0
aF0.0
aF0.0
asg11
I01
sg12
g13
sg14
I00
sg15
g16
sa(dp845
g2
F0.0
sg3
(lp846
F-0.0295177106769979
aF1.0504823265431078
aF0.6435479466088934
aF3.1306364957729205
aF0.00021149282721862693
aF-7.544401361928162e-05
asg5
I0
sg6
F0.5612334801762114
sg7
(F-1.3862608114825647
F-2.20607835451235
F-0.7294772307025355
F-1.7875645796405237
F1.5730153322219849
F0.1845978945493698
tp847
sg9
(lp848
F-0.025885009765625
aF-0.174896240234375
aF0.0
aF0.0
aF0.0
aF0.0
asg11
I01
sg12
g13
sg14
I00
sg15
g16
sa(dp849
g2
F0.0
sg3
(lp850
F-0.029996234066467814
aF1.0422572327101753
aF0.6432883545286147
aF3.1302748158532854
aF7.135094175503786e-05
aF-0.00025913856669344907
asg5
I0
sg6
F0.5612334801762114
sg7
(F-1.3843343893634241
F-2.1864407698260706
F-0.7620442549334925
F-1.7750118414508265
F1.5729674100875854
F0.18670861423015594
tp851
sg9
(lp852
F-0.050982666015625004
aF-0.19999389648437502
aF0.0
aF0.0
aF0.0
aF0.0
asg11
I01
sg12
g13
sg14
I00
sg15
g16
sa(dp853
g2
F0.0
sg3
(lp854
F-0.03288977318488843
aF1.0245100991708567
aF0.6427276787359932
aF3.130615868581158
aF9.528302653189155e-05
aF-0.00012702448486257326
asg5
I0
sg6
F0.5612334801762114
sg7
(F-1.3782780806170862
F-2.1458714644061487
F-0.8284104506122034
F-1.7488625685321253
F1.5729913711547852
F0.19263294339179993
tp855
sg9
(lp856
F-0.054119873046875
aF-0.19999389648437502
aF0.0
aF0.0
aF0.0
aF0.0
asg11
I01
sg12
g13
sg14
I00
sg15
g16
sa(dp857
g2
F0.0
sg3
(lp858
F-0.03763397884646406
aF1.0020731564890184
aF0.6415580206023652
aF3.130719453167514
aF5.352925538493016e-05
aF-0.00016846296309376088
asg5
I0
sg6
F0.5612334801762114
sg7
(F-1.369242016469137
F-2.0976904074298304
F-0.9059718290912073
F-1.7193687597857874
F1.57302725315094
F0.20171061158180237
tp859
sg9
(lp860
F-0.08235473632812501
aF-0.19999389648437502
aF0.0
aF0.0
aF0.0
aF0.0
asg11
I01
sg12
g13
sg14
I00
sg15
g16
sa(dp861
g2
F0.0
sg3
(lp862
F-0.04383925425604718
aF0.9819332297316049
aF0.6407475226157546
aF3.13099256904827
aF0.00012157589585922888
aF-0.0001897934243107509
asg5
I0
sg6
F0.5612334801762114
sg7
(F-1.3588293234454554
F-2.056918446217672
F-0.9695542494403284
F-1.6962531248675745
F1.573147177696228
F0.21214400231838226
tp863
sg9
(lp864
F-0.12156982421875001
aF-0.18744506835937502
aF0.0
aF0.0
aF0.0
aF0.0
asg11
I01
sg12
g13
sg14
I00
sg15
g16
sa(dp865
g2
F0.0
sg3
(lp866
F-0.054536740910096096
aF0.9608832946433948
aF0.6399040410510292
aF3.1310696963329243
aF0.00019481692416805897
aF-0.0001739989737078183
asg5
I0
sg6
F0.5612334801762114
sg7
(F-1.3431742827044886
F-2.0166032950030726
F-1.0308526198016565
F-1.6751402060138147
F1.5733624696731567
F0.22778192162513733
tp867
sg9
(lp868
F-0.160784912109375
aF-0.1513671875
aF0.0
aF0.0
aF0.0
aF0.0
asg11
I01
sg12
g13
sg14
I00
sg15
g16
sa(dp869
g2
F0.0
sg3
(lp870
F-0.06911978825302376
aF0.9431248754051321
aF0.6396173325482151
aF3.131468654553029
aF0.000239052903390216
aF-0.00017596309429902826
asg5
I0
sg6
F0.5612334801762114
sg7
(F-1.3236644903766077
F-1.9845956007586878
F-1.0777695814715784
F-1.659781281148092
F1.5735063552856445
F0.2472933679819107
tp871
sg9
(lp872
F-0.17176513671875002
aF-0.138818359375
aF0.0
aF0.0
aF0.0
aF0.0
asg11
I01
sg12
g13
sg14
I00
sg15
g16
sa(dp873
g2
F0.0
sg3
(lp874
F-0.08442650374351658
aF0.9287780704069257
aF0.6392347687592614
aF3.131433861230565
aF0.0002753124167021221
aF-0.00033491200345641536
asg5
I0
sg6
F0.5612334801762114
sg7
(F-1.303735081349508
F-1.9602602163897913
F-1.1129825750934046
F-1.6488712469684046
F1.5737459659576416
F0.26738041639328003
tp875
sg9
(lp876
F-0.173333740234375
aF-0.13724975585937502
aF0.0
aF0.0
aF0.0
aF0.0
asg11
I01
sg12
g13
sg14
I00
sg15
g16
sa(dp877
g2
F0.0
sg3
(lp878
F-0.101721091054467
aF0.9138673268922644
aF0.6389761238541303
aF3.1314735095901063
aF0.00027039239997271304
aF-0.0002582772367492431
asg5
I0
sg6
F0.5612334801762114
sg7
(F-1.281015698109762
F-1.936225716267721
F-1.146982494984762
F-1.6387999693499964
F1.5739493370056152
F0.2900223731994629
tp879
sg9
(lp880
F-0.17490234375000002
aF-0.13724975585937502
aF0.0
aF0.0
aF0.0
aF0.0
asg11
I01
sg12
g13
sg14
I00
sg15
g16
sa(dp881
g2
F0.0
sg3
(lp882
F-0.11953669375886716
aF0.8992156065465827
aF0.6385113401556922
aF3.131202141261606
aF0.00023500637099083945
aF-5.242056136606621e-05
asg5
I0
sg6
F0.5612334801762114
sg7
(F-1.2572668234454554
F-1.9138453642474573
F-1.1784513632403772
F-1.6299036184894007
F1.5742249488830566
F0.31356388330459595
tp883
sg9
(lp884
F-0.17490234375000002
aF-0.13724975585937502
aF0.0
aF0.0
aF0.0
aF0.0
asg11
I01
sg12
g13
sg14
I00
sg15
g16
sa(dp885
g2
F0.0
sg3
(lp886
F-0.1354755354704729
aF0.8856977062630773
aF0.638207388875282
aF3.1310880281883895
aF0.00014317892911213235
aF-0.00033233686896880346
asg5
I0
sg6
F0.5612334801762114
sg7
(F-1.2353833357440394
F-1.8939583937274378
F-1.2058189550982874
F-1.6224826017962855
F1.5743924379348755
F0.3357268273830414
tp887
sg9
(lp888
F-0.17490234375000002
aF-0.13568115234375
aF0.0
aF0.0
aF0.0
aF0.0
asg11
I01
sg12
g13
sg14
I00
sg15
g16
sa(dp889
g2
F0.0
sg3
(lp890
F-0.153023458818094
aF0.8710492787587513
aF0.6379319064017163
aF3.1311717075733903
aF0.00021268951522097717
aF-0.00023369178280069523
asg5
I0
sg6
F0.5612334801762114
sg7
(F-1.2108538786517542
F-1.8733766714679163
F-1.2337005774127405
F-1.6149891058551233
F1.574668049812317
F0.3601562976837158
tp891
sg9
(lp892
F-0.17490234375000002
aF-0.13568115234375
aF0.0
aF0.0
aF0.0
aF0.0
asg11
I01
sg12
g13
sg14
I00
sg15
g16
sa(dp893
g2
F0.0
sg3
(lp894
F-0.1692100768472555
aF0.8576895734416051
aF0.637209429692122
aF3.1304600838082313
aF-5.5363356303286786e-05
aF-0.0002154655483016408
asg5
I0
sg6
F0.5612334801762114
sg7
(F-1.1878083387957972
F-1.855624024068014
F-1.258080784474508
F-1.6090300718890589
F1.5749073028564453
F0.38318249583244324
tp895
sg9
(lp896
F-0.176470947265625
aF-0.12626953125
aF0.0
aF0.0
aF0.0
aF0.0
asg11
I01
sg12
g13
sg14
I00
sg15
g16
sa(dp897
g2
F0.0
sg3
(lp898
F-0.1868440772323557
aF0.8434606176260029
aF0.6373982145482037
aF3.1309600716476953
aF0.00012166718202954564
aF-0.0004037007085691471
asg5
I0
sg6
F0.5612334801762114
sg7
(F-1.1623428503619593
F-1.8375714460956019
F-1.2811902205096644
F-1.603335205708639
F1.5751349925994873
F0.4088354706764221
tp899
sg9
(lp900
F-0.2
aF-0.080780029296875
aF0.0
aF0.0
aF0.0
aF0.0
asg11
I01
sg12
g13
sg14
I00
sg15
g16
sa(dp901
g2
F0.0
sg3
(lp902
F-0.2059988412572327
aF0.8322206194780831
aF0.6374023671189475
aF3.1310522653691417
aF0.0001642682543408393
aF-0.00036425712839124495
asg5
I0
sg6
F0.5612334801762114
sg7
(F-1.1362412611590784
F-1.8261597792254847
F-1.2957890669452112
F-1.5999301115619105
F1.5753862857818604
F0.43489667773246765
tp903
sg9
(lp904
F-0.2
aF-0.061956787109375
aF0.0
aF0.0
aF0.0
aF0.0
asg11
I01
sg12
g13
sg14
I00
sg15
g16
sa(dp905
g2
F0.0
sg3
(lp906
F-0.2250349656138292
aF0.824892029829215
aF0.6371460239567265
aF3.130682624710114
aF6.284773010734035e-05
aF-0.00024936214314152277
asg5
I0
sg6
F0.5612334801762114
sg7
(F-1.1120784918414515
F-1.8222282568561
F-1.3011701742755335
F-1.598743740712301
F1.575685977935791
F0.4589430093765259
tp907
sg9
(lp908
F-0.2
aF-0.061956787109375
aF0.0
aF0.0
aF0.0
aF0.0
asg11
I01
sg12
g13
sg14
I00
sg15
g16
sa(dp909
g2
F0.0
sg3
(lp910
F-0.24553298573841642
aF0.8179963666924026
aF0.6371712413201912
aF3.1306267349061474
aF2.459853807990168e-05
aF-0.000267003944755812
asg5
I0
sg6
F0.5612334801762114
sg7
(F-1.086597744618551
F-1.820526425038473
F-1.3032916227923792
F-1.5982635656939905
F1.5759252309799194
F0.4844405949115753
tp911
sg9
(lp912
F-0.2
aF-0.0823486328125
aF0.0
aF0.0
aF0.0
aF0.0
asg11
I01
sg12
g13
sg14
I00
sg15
g16
sa(dp913
g2
F0.0
sg3
(lp914
F-0.2661863780075366
aF0.8102918169774285
aF0.6370466068311968
aF3.1305605790671374
aF-3.739393485696834e-05
aF-0.0001524513073544812
asg5
I0
sg6
F0.5612334801762114
sg7
(F-1.0605648199664515
F-1.818524185811178
F-1.3060486952411097
F-1.5974605719195765
F1.5761529207229614
F0.5103583335876465
tp915
sg9
(lp916
F-0.14823608398437502
aF-0.165484619140625
aF0.0
aF0.0
aF0.0
aF0.0
asg11
I01
sg12
g13
sg14
I00
sg15
g16
sa(dp917
g2
F0.0
sg3
(lp918
F-0.2823887138305808
aF0.7983539965909123
aF0.637158922065316
aF3.1307586240307432
aF0.00010535473330419095
aF-0.0001772936329079265
asg5
I0
sg6
F0.5612334801762114
sg7
(F-1.036614243184225
F-1.8080242315875452
F-1.3191240469561976
F-1.594510857258932
F1.5764045715332031
F0.534332811832428
tp919
sg9
(lp920
F0.0
aF-0.19999389648437502
aF0.0
aF0.0
aF0.0
aF0.0
asg11
I01
sg12
g13
sg14
I00
sg15
g16
sa(dp921
g2
F0.0
sg3
(lp922
F-0.2884741403033466
aF0.7785479309278976
aF0.6369426600590475
aF3.1308161951701075
aF0.00016116663623152002
aF-0.0003141360561048974
asg5
I0
sg6
F0.5612334801762114
sg7
(F-1.017848316823141
F-1.779651943837301
F-1.3546231428729456
F-1.5871980826007288
F1.5765960216522217
F0.5532349348068237
tp923
sg9
(lp924
F0.0
aF-0.19999389648437502
aF0.0
aF0.0
aF0.0
aF0.0
asg11
I01
sg12
g13
sg14
I00
sg15
g16
sa(dp925
g2
F0.0
sg3
(lp926
F-0.287898494399686
aF0.7592674485249764
aF0.6366443130668783
aF3.1311380681554613
aF0.00027868675232437385
aF-0.0002709086423034254
asg5
I0
sg6
F0.5612334801762114
sg7
(F-1.0057523886310022
F-1.7485469023333948
F-1.3927205244647425
F-1.5798004309283655
F1.5766319036483765
F0.5652880668640137
tp927
sg9
(lp928
F0.0
aF-0.19999389648437502
aF0.0
aF0.0
aF0.0
aF0.0
asg11
I01
sg12
g13
sg14
I00
sg15
g16
sa(dp929
g2
F0.0
sg3
(lp930
F-0.28730329206606414
aF0.7384012061641847
aF0.6360884184126478
aF3.1311804929109925
aF0.00035132612935034777
aF-0.00023149519132121472
asg5
I0
sg6
F0.5612334801762114
sg7
(F-0.9920275847064417
F-1.7152484099017542
F-1.4327333609210413
F-1.572930161152975
F1.5767877101898193
F0.5789728760719299
tp931
sg9
(lp932
F0.0
aF-0.105877685546875
aF0.0
aF0.0
aF0.0
aF0.0
asg11
I01
sg12
g13
sg14
I00
sg15
g16
sa(dp933
g2
F0.0
sg3
(lp934
F-0.2868086968420062
aF0.7222390024681766
aF0.635773154411045
aF3.131500752873954
aF0.0005688512528746211
aF-0.00015044286298477856
asg5
I0
sg6
F0.5612334801762114
sg7
(F-0.9809606711017054
F-1.6895621458636683
F-1.4626663366900843
F-1.5682299772845667
F1.5768835544586182
F0.589958667755127
tp935
sg9
(lp936
F0.0
aF0.0
aF0.0
aF0.0
aF0.0
aF0.0
asg11
I01
sg12
g13
sg14
I00
sg15
g16
sa(dp937
g2
F0.0
sg3
(lp938
F-0.28654562082453705
aF0.7166072419014254
aF0.6350993153841508
aF3.130955193913451
aF0.00020389163950440564
aF-0.00039559097285588247
asg5
I0
sg6
F0.5612334801762114
sg7
(F-0.9771035353290003
F-1.6807168165790003
F-1.4736416975604456
F-1.5667312780963343
F1.5769195556640625
F0.5940606594085693
tp939
sg9
(lp940
F0.0
aF0.0
aF0.0
aF0.0
aF0.0
aF0.0
asg11
I01
sg12
g13
sg14
I00
sg15
g16
sa(dp941
g2
F0.0
sg3
(lp942
F-0.2866065689577094
aF0.7169547779344
aF0.6347301466389433
aF3.1304912671922596
aF-9.30853729508627e-05
aF-0.0004201129595780342
asg5
I0
sg6
F0.5612334801762114
sg7
(F-0.9772957007037562
F-1.6813882032977503
F-1.4734256903277796
F-1.5668275992022913
F1.5769315958023071
F0.5938928723335266
tp943
sg9
(lp944
F0.0
aF0.0
aF0.0
aF0.0
aF0.0
aF0.0
asg11
I01
sg12
g13
sg14
I00
sg15
g16
sa(dp945
g2
F0.0
sg3
(lp946
F-0.28657147715300757
aF0.717001905480043
aF0.635037498635582
aF3.13087503047167
aF0.000153180573823478
aF-0.0003358402976261715
asg5
I0
sg6
F0.5612334801762114
sg7
(F-0.9773677031146448
F-1.6813643614398401
F-1.473006550465719
F-1.5668156782733362
F1.5769195556640625
F0.5937367081642151
tp947
sg9
(lp948
F0.0
aF0.0
aF0.0
aF0.0
aF0.0
aF0.0
asg11
I01
sg12
g13
sg14
I00
sg15
g16
sa(dp949
g2
F0.0
sg3
(lp950
F-0.2865892682869602
aF0.7170083014120137
aF0.6350277104640166
aF3.13085194864336
aF0.0001663310687485324
aF-0.00030017116020665774
asg5
I0
sg6
F0.5612334801762114
sg7
(F-0.9773557821856897
F-1.6813882032977503
F-1.472994629536764
F-1.5668156782733362
F1.5769431591033936
F0.5937127470970154
tp951
sg9
(lp952
F0.0
aF0.0
aF0.0
aF0.0
aF0.0
aF0.0
asg11
I01
sg12
g13
sg14
I00
sg15
g16
sa(dp953
g2
F0.0
sg3
(lp954
F-0.2866297889033561
aF0.7170052828214324
aF0.6349730738862579
aF3.130778979252184
aF0.00010338470990506416
aF-0.00022795835214118484
asg5
I0
sg6
F0.5612334801762114
sg7
(F-0.9773076216327112
F-1.6814239660846155
F-1.4730308691607874
F-1.5668395201312464
F1.5769315958023071
F0.5936887860298157
tp955
sg9
(lp956
F0.0
aF0.0
aF0.0
aF0.0
aF0.0
aF0.0
asg11
I01
sg12
g13
sg14
I00
sg15
g16
sa(dp957
g2
F0.0
sg3
(lp958
F-0.28657395322200757
aF0.7170095268122798
aF0.6350207814224063
aF3.130828760646606
aF9.342403968693156e-05
aF-0.0002996948154024428
asg5
I0
sg6
F0.5612334801762114
sg7
(F-0.9773677031146448
F-1.6813882032977503
F-1.472994629536764
F-1.5668757597552698
F1.5768955945968628
F0.5937007665634155
tp959
sg9
(lp960
F0.0
aF0.0
aF-0.08705444335937501
aF0.0
aF0.0
aF0.0
asg11
I01
sg12
g13
sg14
I00
sg15
g16
sa(dp961
g2
F0.0
sg3
(lp962
F-0.28659356065384683
aF0.7170126993057081
aF0.631530667956667
aF3.131206518162296
aF0.00042004276486495216
aF-0.00030016962393974924
asg5
I0
sg6
F0.5612334801762114
sg7
(F-0.9773557821856897
F-1.6814239660846155
F-1.4791534582721155
F-1.5601852575885218
F1.5769550800323486
F0.5937127470970154
tp963
sg9
(lp964
F0.0
aF0.0
aF-0.19999389648437502
aF0.0
aF0.0
aF0.0
asg11
I01
sg12
g13
sg14
I00
sg15
g16
sa(dp965
g2
F0.0
sg3
(lp966
F-0.2864628773762136
aF0.7168087396177969
aF0.6153968564674933
aF3.1301572916299745
aF-0.000330749892225115
aF-0.00026401551635518803
asg5
I0
sg6
F0.5612334801762114
sg7
(F-0.9773438612567347
F-1.6820834318744105
F-1.5063641707049769
F-1.533604923878805
F1.5769195556640625
F0.5936887860298157
tp967
sg9
(lp968
F0.0
aF0.0
aF-0.1827392578125
aF0.0
aF0.0
aF0.0
asg11
I01
sg12
g13
sg14
I00
sg15
g16
sa(dp969
g2
F0.0
sg3
(lp970
F-0.28609648477469823
aF0.7162918686186868
aF0.5954273385206758
aF3.1302362272643505
aF-0.0002346151680808554
aF-0.00028822085672261294
asg5
I0
sg6
F0.5612334801762114
sg7
(F-0.9773677031146448
F-1.6831377188311976
F-1.5401752630816858
F-1.498620335255758
F1.5769550800323486
F0.5936887860298157
tp971
sg9
(lp972
F0.0
aF0.0
aF-0.02587890625
aF0.0
aF0.0
aF0.0
asg11
I01
sg12
g13
sg14
I00
sg15
g16
sa(dp973
g2
F0.0
sg3
(lp974
F-0.2859042244776048
aF0.7159927448309383
aF0.5849227665782775
aF3.130949183134848
aF0.0002323399856722324
aF-0.0002642122322106497
asg5
I0
sg6
F0.5612334801762114
sg7
(F-0.9773557821856897
F-1.6840007940875452
F-1.5578110853778284
F-1.4792693297015589
F1.5769431591033936
F0.5936768054962158
tp975
sg9
(lp976
F0.0
aF0.0
aF0.0
aF0.0
aF0.0
aF0.0
asg11
I01
sg12
g13
sg14
I00
sg15
g16
sa(dp977
g2
F0.0
sg3
(lp978
F-0.28583285624923466
aF0.7158727914810556
aF0.5835809202604582
aF3.1310564270260643
aF0.0002904008595358384
aF-0.00028810305061529245
asg5
I0
sg6
F0.5612334801762114
sg7
(F-0.9773438612567347
F-1.683976952229635
F-1.5602191130267542
F-1.4767635504352015
F1.5769315958023071
F0.5937127470970154
tp979
sg9
(lp980
F0.068231201171875
aF0.044708251953125
aF0.0
aF0.0
aF0.0
aF0.0
asg11
I01
sg12
g13
sg14
I00
sg15
g16
sa(dp981
g2
F0.0
sg3
(lp982
F-0.2835666843051796
aF0.717624469485485
aF0.5835101595459546
aF3.130728380445928
aF0.00015266980694863205
aF-0.0002947834702320461
asg5
I0
sg6
F0.5612334801762114
sg7
(F-0.9811399618731897
F-1.6853554884540003
F-1.5587213675128382
F-1.4772551695453089
F1.5769671201705933
F0.5899227261543274
tp983
sg9
(lp984
F0.15450439453125
aF0.1435302734375
aF0.0
aF0.0
aF0.0
aF0.0
asg11
I01
sg12
g13
sg14
I00
sg15
g16
sa(dp985
g2
F0.0
sg3
(lp986
F-0.2712960474052355
aF0.7284687726273338
aF0.5834877803069218
aF3.1305613527628555
aF0.0001316194828214109
aF-0.0004089613169420226
asg5
I0
sg6
F0.5612334801762114
sg7
(F-1.0025303999530237
F-1.6949203650103968
F-1.5479148069964808
F-1.4787781874286097
F1.5768476724624634
F0.568646252155304
tp987
sg9
(lp988
F0.0
aF0.0
aF0.0
aF0.0
aF0.0
aF0.0
asg11
I01
sg12
g13
sg14
I00
sg15
g16
sa(dp989
g2
F0.0
sg3
(lp990
F-0.2611682132461544
aF0.7372105804011421
aF0.5834833050298576
aF3.1305945583946713
aF0.0003148385433903903
aF-0.00021697621141890695
asg5
I0
sg6
F0.5612334801762114
sg7
(F-1.019872013722555
F-1.7028315703021448
F-1.538929287587301
F-1.479832951222555
F1.5768237113952637
F0.5511118173599243
tp991
sg9
(lp992
F0.0
aF0.0
aF0.0
aF0.0
aF0.0
aF0.0
asg11
I01
sg12
g13
sg14
I00
sg15
g16
sa(dp993
g2
F0.0
sg3
(lp994
F-0.25974054885681175
aF0.7383640551250581
aF0.5836432809638299
aF3.130913134593319
aF0.00046759609913110087
aF3.864373439598283e-05
asg5
I0
sg6
F0.5612334801762114
sg7
(F-1.0222433249102991
F-1.7037776152240198
F-1.537635628377096
F-1.47984487215151
F1.5767637491226196
F0.5484853982925415
tp995
sg9
(lp996
F0.0
aF0.0
aF0.0
aF0.0
aF0.0
aF0.0
asg11
I01
sg12
g13
sg14
I00
sg15
g16
sa(dp997
g2
F0.0
sg3
(lp998
F-0.2598495051930099
aF0.7382948533465175
aF0.5835477054497583
aF3.1309922254530256
aF0.0002875394470507171
aF-0.0001278078956339601
asg5
I0
sg6
F0.5612334801762114
sg7
(F-1.0220516363727015
F-1.7037418524371546
F-1.5378392378436487
F-1.479701344166891
F1.576572060585022
F0.5488452911376953
tp999
sg9
(lp1000
F0.0
aF0.0
aF-0.17960205078125002
aF0.0
aF0.0
aF0.0
asg11
I01
sg12
g13
sg14
I00
sg15
g16
sa(dp1001
g2
F0.0
sg3
(lp1002
F-0.2597969168164826
aF0.7381584959266926
aF0.5774423522804604
aF3.1307796266098324
aF0.0001416113551264202
aF-0.0002597595614779933
asg5
I0
sg6
F0.5612334801762114
sg7
(F-1.0220158735858362
F-1.704581085835592
F-1.5475557486163538
F-1.4694021383868616
F1.5765600204467773
F0.549013078212738
tp1003
sg9
(lp1004
F0.0
aF0.0
aF-0.19999389648437502
aF0.0
aF0.0
aF0.0
asg11
I01
sg12
g13
sg14
I00
sg15
g16
sa(dp1005
g2
F0.0
sg3
(lp1006
F-0.259666342904933
aF0.7379385774023165
aF0.5619923841233041
aF3.1302552405981707
aF-0.0001367245902486957
aF-0.00023614131872679242
asg5
I0
sg6
F0.5612334801762114
sg7
(F-1.0220158735858362
F-1.7073620001422327
F-1.5714567343341272
F-1.443312946950094
F1.5765960216522217
F0.5489891171455383
tp1007
sg9
(lp1008
F0.0
aF0.0
aF0.0
aF0.0
aF0.0
aF0.0
asg11
I01
sg12
g13
sg14
I00
sg15
g16
sa(dp1009
g2
F0.0
sg3
(lp1010
F-0.25947087123064794
aF0.7376210087264877
aF0.5506945487179231
aF3.130968069500446
aF0.00028536193096883857
aF-0.0002239962144872009
asg5
I0
sg6
F0.5612334801762114
sg7
(F-1.0220158735858362
F-1.7093637625323694
F-1.589283291493551
F-1.4226563612567347
F1.576583981513977
F0.5489771366119385
tp1011
sg9
(lp1012
F0.0
aF0.0
aF0.0
aF0.0
aF0.0
aF0.0
asg11
I01
sg12
g13
sg14
I00
sg15
g16
sa(dp1013
g2
F0.0
sg3
(lp1014
F-0.2594064109589247
aF0.7375722363305617
aF0.5498703759714261
aF3.1310948733108392
aF0.0003348446128626132
aF-0.0002595076877819682
asg5
I0
sg6
F0.5612334801762114
sg7
(F-1.0220516363727015
F-1.709447209035055
F-1.590672794972555
F-1.4210494200335901
F1.5765600204467773
F0.5489771366119385
tp1015
sg9
(lp1016
F0.0
aF0.0
aF0.0
aF0.0
aF0.0
aF0.0
asg11
I01
sg12
g13
sg14
I00
sg15
g16
sa(dp1017
g2
F0.0
sg3
(lp1018
F-0.25922696128287603
aF0.7377065565071226
aF0.5498252083104855
aF3.1307857723194563
aF0.00010640256018826435
aF-0.0002947329981619642
asg5
I0
sg6
F0.5612334801762114
sg7
(F-1.022339169179098
F-1.7096150557147425
F-1.5904815832721155
F-1.4214571158038538
F1.5765241384506226
F0.5487250685691833
tp1019
sg9
(lp1020
F0.096466064453125
aF0.06510009765625001
aF0.0
aF0.0
aF0.0
aF0.0
asg11
I01
sg12
g13
sg14
I00
sg15
g16
sa(dp1021
g2
F0.0
sg3
(lp1022
F-0.2550398679519898
aF0.7406324147901551
aF0.5500376439667656
aF3.1309149957821925
aF0.0002385039273715203
aF-0.0005850645585142513
asg5
I0
sg6
F0.5612334801762114
sg7
(F-1.0289977232562464
F-1.7118328253375452
F-1.5875819365130823
F-1.4219964186297815
F1.576512098312378
F0.5423566102981567
tp1023
sg9
(lp1024
F0.0
aF0.0
aF0.0
aF0.0
aF0.0
aF0.0
asg11
I01
sg12
g13
sg14
I00
sg15
g16
sa(dp1025
g2
F0.0
sg3
(lp1026
F-0.25082824387585195
aF0.7435846640123855
aF0.5499716063573981
aF3.130852180931735
aF0.00020519630425441657
aF-0.0002992520965288804
asg5
I0
sg6
F0.5612334801762114
sg7
(F-1.035680119191305
F-1.7142303625689905
F-1.5849106947528284
F-1.4223807493792933
F1.5764524936676025
F0.5353885293006897
tp1027
sg9
(lp1028
F0.0
aF0.0
aF0.0
aF0.0
aF0.0
aF0.0
asg11
I01
sg12
g13
sg14
I00
sg15
g16
sa(dp1029
g2
F0.0
sg3
(lp1030
F-0.2503516110673676
aF0.7438644795086186
aF0.5499862443026907
aF3.1308797585788573
aF0.00021620464944182324
aF-0.00021406838610223903
asg5
I0
sg6
F0.5612334801762114
sg7
(F-1.036398712788717
F-1.714409653340475
F-1.5846827665912073
F-1.4224045912372034
F1.5764405727386475
F0.5345848202705383
tp1031
sg9
(lp1032
F0.0
aF0.0
aF0.0
aF0.0
aF0.0
aF0.0
asg11
I01
sg12
g13
sg14
I00
sg15
g16
sa(dp1033
g2
F0.0
sg3
(lp1034
F-0.2504000809477337
aF0.7438558190313076
aF0.5499384690607528
aF3.1307977041243062
aF0.00016800226049716973
aF-0.00011806314516208881
asg5
I0
sg6
F0.5612334801762114
sg7
(F-1.0363386313067835
F-1.7144454161273401
F-1.5847066084491175
F-1.4224403540240687
F1.5764405727386475
F0.5345488786697388
tp1035
sg9
(lp1036
F0.0
aF0.0
aF0.0
aF0.0
aF0.0
aF0.0
asg11
I01
sg12
g13
sg14
I00
sg15
g16
sa(dp1037
g2
F0.0
sg3
(lp1038
F-0.25038761727991793
aF0.743868536919873
aF0.549359756551316
aF3.1310086818723306
aF0.00030664655169645907
aF-0.00015394298990738795
asg5
I0
sg6
F0.5612334801762114
sg7
(F-1.0363624731646937
F-1.7145775000201624
F-1.5856292883502405
F-1.4211333433734339
F1.5764524936676025
F0.5345608592033386
tp1039
sg9
(lp1040
F0.0
aF0.0
aF-0.19999389648437502
aF0.0
aF0.0
aF0.0
asg11
I01
sg12
g13
sg14
I00
sg15
g16
sa(dp1041
g2
F0.0
sg3
(lp1042
F-0.2503582041970675
aF0.7438598316698438
aF0.5401913744077537
aF3.1304727169083004
aF-3.8407867980312496e-05
aF-0.00016613163122974726
asg5
I0
sg6
F0.5612334801762114
sg7
(F-1.036386791859762
F-1.7171066443072718
F-1.5988190809832972
F-1.4060514608966272
F1.5764285326004028
F0.5345488786697388
tp1043
sg9
(lp1044
F0.0
aF0.0
aF0.0
aF0.0
aF0.0
aF0.0
asg11
I01
sg12
g13
sg14
I00
sg15
g16
sa(dp1045
g2
F0.0
sg3
(lp1046
F-0.2502936060394117
aF0.743720536478854
aF0.529907103216323
aF3.1306362472610387
aF1.6717304260376506e-05
aF-0.0001414736993440648
asg5
I0
sg6
F0.5612334801762114
sg7
(F-1.0363624731646937
F-1.7198994795428675
F-1.6138899962054651
F-1.3880189100848597
F1.576392650604248
F0.5345488786697388
tp1047
sg9
(lp1048
F0.0
aF0.0
aF0.0
aF0.0
aF0.0
aF0.0
asg11
I01
sg12
g13
sg14
I00
sg15
g16
sa(dp1049
g2
F0.0
sg3
(lp1050
F-0.25021663292636487
aF0.7436227906118184
aF0.526918109772796
aF3.1309879711375483
aF0.00025218442098932274
aF-0.00022586492148005013
asg5
I0
sg6
F0.5612334801762114
sg7
(F-1.036386791859762
F-1.7206066290484827
F-1.6184781233416956
F-1.3823006788836878
F1.5764166116714478
F0.534608781337738
tp1051
sg9
(lp1052
F0.0
aF0.0
aF0.0
aF0.0
aF0.0
aF0.0
asg11
I01
sg12
g13
sg14
I00
sg15
g16
sa(dp1053
g2
F0.0
sg3
(lp1054
F-0.2502476933110748
aF0.7435804145839042
aF0.5268956149385532
aF3.130748867127236
aF0.00013831327456379324
aF-0.00017802868950897986
asg5
I0
sg6
F0.5612334801762114
sg7
(F-1.0363267103778284
F-1.7205947081195276
F-1.6184781233416956
F-1.3825762907611292
F1.5764405727386475
F0.5346207618713379
tp1055
sg9
(lp1056
F0.0
aF0.0
aF0.0
aF0.0
aF0.0
aF0.0
asg11
I01
sg12
g13
sg14
I00
sg15
g16
sa(dp1057
g2
F0.0
sg3
(lp1058
F-0.250176775927595
aF0.7435799243234991
aF0.5269511427021989
aF3.1307076169055006
aF4.4071526543191005e-05
aF-0.00026145693566839
asg5
I0
sg6
F0.5612334801762114
sg7
(F-1.036398712788717
F-1.7205465475665491
F-1.618418041859762
F-1.3827679792987269
F1.5763806104660034
F0.5346327424049377
tp1059
sg9
(lp1060
F0.0
aF0.0
aF0.0
aF0.0
aF0.0
aF0.0
asg11
I01
sg12
g13
sg14
I00
sg15
g16
sa(dp1061
g2
F0.0
sg3
(lp1062
F-0.2501795873081748
aF0.7435803370867837
aF0.5270136414505604
aF3.130746288751035
aF9.533596506687276e-05
aF-0.00021375810543796634
asg5
I0
sg6
F0.5612334801762114
sg7
(F-1.036398712788717
F-1.720522705708639
F-1.6183465162860315
F-1.3828042189227503
F1.5764045715332031
F0.5345848202705383
tp1063
sg9
(lp1064
F0.0
aF0.0
aF0.0
aF0.0
aF0.0
aF0.0
asg11
I01
sg12
g13
sg14
I00
sg15
g16
sa(dp1065
g2
F0.0
sg3
(lp1066
F-0.2502325273585523
aF0.7435770884529669
aF0.5269605744945891
aF3.130678195516525
aF6.848690636952709e-05
aF-0.00020171371683435697
asg5
I0
sg6
F0.5612334801762114
sg7
(F-1.0363386313067835
F-1.7205708662616175
F-1.6183703581439417
F-1.3828042189227503
F1.5764166116714478
F0.5346327424049377
tp1067
sg9
(lp1068
F0.0
aF0.0
aF0.0
aF0.0
aF0.0
aF0.0
asg11
I01
sg12
g13
sg14
I00
sg15
g16
sa(dp1069
g2
F0.0
sg3
(lp1070
F-0.2502426457113163
aF0.7435963618603773
aF0.5269576243817944
aF3.130684741266806
aF5.8501167531235074e-05
aF-0.0001896208322070652
asg5
I0
sg6
F0.5612334801762114
sg7
(F-1.0363386313067835
F-1.7206066290484827
F-1.6183341185199183
F-1.3828042189227503
F1.5764045715332031
F0.5346207618713379
tp1071
sg9
(lp1072
F0.0
aF0.0
aF0.0
aF0.0
aF0.0
aF0.0
asg11
I01
sg12
g13
sg14
I00
sg15
g16
sa(dp1073
g2
F0.0
sg3
(lp1074
F-0.2502169263823058
aF0.7435888278250026
aF0.5270040086051092
aF3.130746694485911
aF9.505916557234786e-05
aF-0.00022543775823812698
asg5
I0
sg6
F0.5612334801762114
sg7
(F-1.0363624731646937
F-1.7205584684955042
F-1.6183221975909632
F-1.3827922979937952
F1.5764045715332031
F0.5346327424049377
tp1075
sg9
(lp1076
F0.0
aF0.0
aF0.0
aF0.0
aF0.0
aF0.0
asg11
I01
sg12
g13
sg14
I00
sg15
g16
sa(dp1077
g2
F0.0
sg3
(lp1078
F-0.2502148008888485
aF0.7435873946051357
aF0.5270212089782125
aF3.1307732830521955
aF9.695090245605381e-05
aF-0.000225324675589063
asg5
I0
sg6
F0.5612334801762114
sg7
(F-1.0363624731646937
F-1.7205465475665491
F-1.618310276662008
F-1.3827922979937952
F1.576392650604248
F0.5346327424049377
tp1079
sg9
(lp1080
F0.0
aF0.0
aF0.0
aF0.0
aF0.0
aF0.0
asg11
I01
sg12
g13
sg14
I00
sg15
g16
sa(dp1081
g2
F0.0
sg3
(lp1082
F-0.2502006859661744
aF0.7435980260965583
aF0.5269878051714084
aF3.130736027987538
aF8.88719753879271e-05
aF-0.00023777760605539616
asg5
I0
sg6
F0.5612334801762114
sg7
(F-1.036386791859762
F-1.7205708662616175
F-1.6183341185199183
F-1.3827803770648401
F1.5764045715332031
F0.5346207618713379
tp1083
sg9
(lp1084
F0.0
aF0.0
aF0.0
aF0.0
aF0.0
aF0.0
asg11
I01
sg12
g13
sg14
I00
sg15
g16
sa(dp1085
g2
F0.0
sg3
(lp1086
F-0.25023726619238057
aF0.743582936582071
aF0.526985079664681
aF3.1307033024332713
aF9.707910181893409e-05
aF-0.00021380278013856965
asg5
I0
sg6
F0.5612334801762114
sg7
(F-1.0363386313067835
F-1.7205708662616175
F-1.6183341185199183
F-1.3828042189227503
F1.5764285326004028
F0.5346447229385376
tp1087
sg9
(lp1088
F0.0
aF0.0
aF0.0
aF0.0
aF0.0
aF0.0
asg11
I01
sg12
g13
sg14
I00
sg15
g16
sa(dp1089
g2
F0.0
sg3
(lp1090
F-0.25020964515784155
aF0.7435765261435531
aF0.5270314509112782
aF3.130777469017515
aF0.0001135411571335382
aF-0.00020147488670192455
asg5
I0
sg6
F0.5612334801762114
sg7
(F-1.0363624731646937
F-1.720522705708639
F-1.6183221975909632
F-1.3827922979937952
F1.5764045715332031
F0.534608781337738
tp1091
sg9
(lp1092
F0.0
aF0.0
aF0.0
aF0.0
aF0.0
aF0.0
asg11
I01
sg12
g13
sg14
I00
sg15
g16
sa(dp1093
g2
F0.0
sg3
(lp1094
F-0.2502139798603182
aF0.7435838496547619
aF0.5269918427600767
aF3.1307056670988977
aF7.102288649582113e-05
aF-0.00020148151271099694
asg5
I0
sg6
F0.5612334801762114
sg7
(F-1.0363624731646937
F-1.7205584684955042
F-1.6183341185199183
F-1.3828280607806605
F1.5764045715332031
F0.534608781337738
tp1095
sg9
(lp1096
F0.0
aF0.0
aF0.0
aF0.0
aF0.0
aF0.0
asg11
I01
sg12
g13
sg14
I00
sg15
g16
sa(dp1097
g2
F0.0
sg3
(lp1098
F-0.2502325293227375
aF0.7435814288080661
aF0.5270212089782125
aF3.130773280726627
aF9.669101894920695e-05
aF-0.00022550208373412622
asg5
I0
sg6
F0.5612334801762114
sg7
(F-1.0363386313067835
F-1.7205465475665491
F-1.618310276662008
F-1.3827922979937952
F1.576392650604248
F0.5346567630767822
tp1099
sg9
(lp1100
F0.0
aF0.0
aF0.0
aF0.0
aF0.0
aF0.0
asg11
I01
sg12
g13
sg14
I01
sg15
g16
sa(dp1101
g2
F0.0
sg3
(lp1102
F-0.2501950863238843
aF0.7435907228408536
aF0.5270423675611773
aF3.130773285378212
aF9.721014103493464e-05
aF-0.0002256837057572786
asg5
I0
sg6
F0.5612334801762114
sg7
(F-1.036386791859762
F-1.720534626637594
F-1.618286434804098
F-1.3828280607806605
F1.576392650604248
F0.534608781337738
tp1103
sg9
(lp1104
F0.0
aF0.0
aF0.0
aF0.0
aF0.0
aF0.0
asg11
I01
sg12
g13
sg14
I01
sg15
g16
sa(dp1105
g2
F0.0
sg3
(lp1106
F-0.25022448713816475
aF0.7436016017767798
aF0.5270067865052493
aF3.130736026923646
aF8.874190976885144e-05
aF-0.00022543873859024835
asg5
I0
sg6
F0.5612334801762114
sg7
(F-1.0363624731646937
F-1.7205827871905726
F-1.618286434804098
F-1.3828161398517054
F1.5764045715332031
F0.5346327424049377
tp1107
sg9
(lp1108
F0.0
aF0.0
aF0.0
aF0.0
aF0.0
aF0.0
asg11
I01
sg12
g13
sg14
I01
sg15
g16
sa(dp1109
g2
F0.0
sg3
(lp1110
F-0.2502352888769765
aF0.7435839331115567
aF0.5270306432373933
aF3.130787726434511
aF0.00011961519575337649
aF-0.0001776318330031176
asg5
I0
sg6
F0.5612334801762114
sg7
(F-1.0363386313067835
F-1.7205465475665491
F-1.618298355733053
F-1.3827803770648401
F1.5764045715332031
F0.534608781337738
tp1111
sg9
(lp1112
F0.0
aF0.0
aF0.0
aF0.0
aF0.0
aF0.0
asg11
I01
sg12
g13
sg14
I01
sg15
g16
sa(dp1113
g2
F0.0
sg3
(lp1114
F-0.2502162726375244
aF0.7435920605302052
aF0.5270120552513244
aF3.1307691586110877
aF8.025723687601013e-05
aF-0.00024923274278613886
asg5
I0
sg6
F0.5612334801762114
sg7
(F-1.0363624731646937
F-1.7205584684955042
F-1.618310276662008
F-1.3827922979937952
F1.5763806104660034
F0.5346567630767822
tp1115
sg9
(lp1116
F0.0
aF0.0
aF0.0
aF0.0
aF0.0
aF0.0
asg11
I01
sg12
g13
sg14
I01
sg15
g16
sa(dp1117
g2
F0.0
sg3
(lp1118
F-0.2502304816216564
aF0.7435758116606341
aF0.5270289935786585
aF3.130767210313872
aF0.00010733742645566963
aF-0.0001896139939513078
asg5
I0
sg6
F0.5612334801762114
sg7
(F-1.0363386313067835
F-1.720534626637594
F-1.618310276662008
F-1.3828042189227503
F1.5764045715332031
F0.5346207618713379
tp1119
sg9
(lp1120
F0.0
aF0.0
aF0.0
aF0.0
aF0.0
aF0.0
asg11
I01
sg12
g13
sg14
I01
sg15
g16
sa(dp1121
g2
F0.0
sg3
(lp1122
F-0.25018133162589884
aF0.7436170258264463
aF0.5270081617184212
aF3.1307401506923593
aF0.00010530560764974451
aF-0.0002736518489985767
asg5
I0
sg6
F0.5612334801762114
sg7
(F-1.0364225546466272
F-1.7205827871905726
F-1.618286434804098
F-1.3828042189227503
F1.5764166116714478
F0.5346207618713379
tp1123
sg9
(lp1124
F0.0
aF0.0
aF0.0
aF0.0
aF0.0
aF0.0
asg11
I01
sg12
g13
sg14
I01
sg15
g16
sa(dp1125
g2
F0.0
sg3
(lp1126
F-0.25022016241417666
aF0.7435856207025494
aF0.5270026645077549
aF3.130712019636743
aF0.0001302173249574311
aF-0.00022588685149883185
asg5
I0
sg6
F0.5612334801762114
sg7
(F-1.0363624731646937
F-1.7205584684955042
F-1.6183221975909632
F-1.3828042189227503
F1.5764524936676025
F0.5346327424049377
tp1127
sg9
(lp1128
F-0.023922729492187503
aF0.0
aF0.0
aF0.0
aF0.0
aF0.0
asg11
I01
sg12
g13
sg14
I01
sg15
g16
sa(dp1129
g2
F0.0
sg3
(lp1130
F-0.25149042186820786
aF0.7439891461905573
aF0.5271776480604863
aF3.1309204256681404
aF0.00018514911541409724
aF-0.0002758284216095402
asg5
I0
sg6
F0.5612334801762114
sg7
(F-1.035201374684469
F-1.7217696348773401
F-1.6166451613055628
F-1.3830559889422815
F1.5764045715332031
F0.5358443260192871
tp1131
sg9
(lp1132
F-0.1
aF0.021569824218750002
aF0.0
aF0.0
aF0.0
aF0.0
asg11
I01
sg12
g13
sg14
I01
sg15
g16
sa(dp1133
g2
F0.0
sg3
(lp1134
F-0.2586033824147213
aF0.7457810552645139
aF0.5270986897168113
aF3.1309405963308565
aF0.00014257666972630875
aF-4.5311960426225976e-05
asg5
I0
sg6
F0.5612334801762114
sg7
(F-1.028470818196432
F-1.728349510823385
F-1.609110180531637
F-1.3839791456805628
F1.5764166116714478
F0.5423446297645569
tp1135
sg9
(lp1136
F-0.1
aF0.0
aF0.0
aF0.0
aF0.0
aF0.0
asg11
I01
sg12
g13
sg14
I01
sg15
g16
sa(dp1137
g2
F0.0
sg3
(lp1138
F-0.2684711938469705
aF0.7465324901437516
aF0.5270258430586475
aF3.1308303185666952
aF0.0001337261644250583
aF-1.3926739294750733e-06
asg5
I0
sg6
F0.5612334801762114
sg7
(F-1.018111530934469
F-1.7349298636065882
F-1.6015027205096644
F-1.3850463072406214
F1.5765600204467773
F0.552659273147583
tp1139
sg9
(lp1140
F-0.1
aF0.0
aF0.0
aF0.0
aF0.0
aF0.0
asg11
I01
sg12
g13
sg14
I01
sg15
g16
sa(dp1141
g2
F0.0
sg3
(lp1142
F-0.27891126401576544
aF0.7462987195387268
aF0.5270109348865664
aF3.130881632870346
aF9.938746695891464e-05
aF6.652487856627011e-06
asg5
I0
sg6
F0.5612334801762114
sg7
(F-1.00657827058901
F-1.7404559294330042
F-1.5950215498553675
F-1.385909382496969
F1.5766079425811768
F0.5641847252845764
tp1143
sg9
(lp1144
F-0.1
aF-0.0121551513671875
aF0.0
aF0.0
aF0.0
aF0.0
asg11
I01
sg12
g13
sg14
I01
sg15
g16
sa(dp1145
g2
F0.0
sg3
(lp1146
F-0.28846513064378637
aF0.7459135849900971
aF0.5269938939977964
aF3.1309705766986617
aF0.0001705067010083054
aF-0.00021279065995307326
asg5
I0
sg6
F0.5612334801762114
sg7
(F-0.9960272947894495
F-1.7454183737384241
F-1.5891993681537073
F-1.3865926901446741
F1.5767158269882202
F0.5749548077583313
tp1147
sg9
(lp1148
F-0.1
aF-0.0356842041015625
aF0.0
aF0.0
aF0.0
aF0.0
asg11
I01
sg12
g13
sg14
I01
sg15
g16
sa(dp1149
g2
F0.0
sg3
(lp1150
F-0.2989914557471416
aF0.7434588774238207
aF0.5269878984945378
aF3.131024422498379
aF0.0001849859913534468
aF-0.00021933109411842965
asg5
I0
sg6
F0.5612334801762114
sg7
(F-0.9830926100360315
F-1.7479952017413538
F-1.5861685911761683
F-1.386916462575094
F1.576811671257019
F0.587895929813385
tp1151
sg9
(lp1152
F-0.1
aF-0.055291748046875006
aF0.0
aF0.0
aF0.0
aF0.0
asg11
I01
sg12
g13
sg14
I01
sg15
g16
sa(dp1153
g2
F0.0
sg3
(lp1154
F-0.3092922874145222
aF0.7387305954327774
aF0.5269688391241123
aF3.1309027352450562
aF0.00012647498569913818
aF-0.0001680613592877578
asg5
I0
sg6
F0.5612334801762114
sg7
(F-0.9688523451434534
F-1.7472518126117151
F-1.587078873311178
F-1.386796776448385
F1.5769550800323486
F0.6020844578742981
tp1155
sg9
(lp1156
F-0.0866668701171875
aF-0.070977783203125
aF0.0
aF0.0
aF0.0
aF0.0
asg11
I01
sg12
g13
sg14
I01
sg15
g16
sa(dp1157
g2
F0.0
sg3
(lp1158
F-0.3181204194968786
aF0.7323140995682029
aF0.5269096157895029
aF3.130682950115561
aF4.383025085892876e-05
aF-7.879461311933839e-05
asg5
I0
sg6
F0.5612334801762114
sg7
(F-0.9549339453326624
F-1.7432964483844202
F-1.5918591658221644
F-1.3861129919635218
F1.5771348476409912
F0.6159127950668335
tp1159
sg9
(lp1160
F-0.067059326171875
aF-0.09215393066406251
aF0.0
aF0.0
aF0.0
aF0.0
asg11
I01
sg12
g13
sg14
I01
sg15
g16
sa(dp1161
g2
F0.0
sg3
(lp1162
F-0.3258612974103966
aF0.7236195598681808
aF0.526903219379767
aF3.1306514103981504
aF3.971842675081628e-05
aF-7.472955550529526e-05
asg5
I0
sg6
F0.5612334801762114
sg7
(F-0.9403694311725062
F-1.7353971640216272
F-1.6012275854693812
F-1.3845785299884241
F1.577278733253479
F0.6304728388786316
tp1163
sg9
(lp1164
F-0.0458831787109375
aF-0.09999694824218751
aF0.0
aF0.0
aF0.0
aF0.0
asg11
I01
sg12
g13
sg14
I01
sg15
g16
sa(dp1165
g2
F0.0
sg3
(lp1166
F-0.33121875494816044
aF0.7143355530195107
aF0.5269265313620741
aF3.1307128692521577
aF5.115112654788051e-05
aF-0.0001033730847865152
asg5
I0
sg6
F0.5612334801762114
sg7
(F-0.9276726881610315
F-1.7251852194415491
F-1.613194767628805
F-1.382684055958883
F1.5773626565933228
F0.6431982517242432
tp1167
sg9
(lp1168
F-0.0309814453125
aF-0.09999694824218751
aF0.0
aF0.0
aF0.0
aF0.0
asg11
I01
sg12
g13
sg14
I01
sg15
g16
sa(dp1169
g2
F0.0
sg3
(lp1170
F-0.3350480153494105
aF0.7038503308421111
aF0.5267481061145638
aF3.1306803468403746
aF1.4581694234675238e-05
aF-2.2896628430851305e-05
asg5
I0
sg6
F0.5612334801762114
sg7
(F-0.9154303709613245
F-1.7123478094684046
F-1.6284211317645472
F-1.3802626768695276
F1.5774585008621216
F0.6553599834442139
tp1171
sg9
(lp1172
F-0.0160797119140625
aF-0.09999694824218751
aF0.0
aF0.0
aF0.0
aF0.0
asg11
I01
sg12
g13
sg14
I01
sg15
g16
sa(dp1173
g2
F0.0
sg3
(lp1174
F-0.3372993668080683
aF0.693557819038259
aF0.5267716662172653
aF3.130854243706955
aF0.00021539245041889062
aF-0.00016883481321561855
asg5
I0
sg6
F0.5612334801762114
sg7
(F-0.9047697226153772
F-1.698684040700094
F-1.644113842641012
F-1.3779004255877894
F1.5776019096374512
F0.6661660075187683
tp1175
sg9
(lp1176
F-0.013726806640625
aF-0.09999694824218751
aF0.0
aF0.0
aF0.0
aF0.0
asg11
I01
sg12
g13
sg14
I01
sg15
g16
sa(dp1177
g2
F0.0
sg3
(lp1178
F-0.33863136431532903
aF0.6839087188840538
aF0.5265090863930739
aF3.1307502811631127
aF4.790047837045156e-05
aF-0.00016786607573052067
asg5
I0
sg6
F0.5612334801762114
sg7
(F-0.8953784147845667
F-1.6855114142047327
F-1.6594699064837855
F-1.375838581715719
F1.5776139497756958
F0.6755567789077759
tp1179
sg9
(lp1180
F-0.010589599609375
aF-0.09999694824218751
aF0.0
aF0.0
aF0.0
aF0.0
asg11
I01
sg12
g13
sg14
I01
sg15
g16
sa(dp1181
g2
F0.0
sg3
(lp1182
F-0.33982860124283576
aF0.6736845714129327
aF0.526524003134926
aF3.130953012124896
aF0.0002760173539377061
aF-0.0001924262569622522
asg5
I0
sg6
F0.5612334801762114
sg7
(F-0.8854597250567835
F-1.6712959448443812
F-1.6754019896136683
F-1.3737524191485804
F1.5777456760406494
F0.6854995489120483
tp1183
sg9
(lp1184
F-0.010589599609375
aF-0.09999694824218751
aF0.0
aF0.0
aF0.0
aF0.0
asg11
I01
sg12
g13
sg14
I01
sg15
g16
sa(dp1185
g2
F0.0
sg3
(lp1186
F-0.34067271236761876
aF0.6632365809641587
aF0.5262730178520303
aF3.130794873166377
aF0.0001487591495908483
aF-0.0002289259847114156
asg5
I0
sg6
F0.5612334801762114
sg7
(F-0.87549335161318
F-1.6566732565509241
F-1.6919320265399378
F-1.3719781080829065
F1.5778295993804932
F0.6955022811889648
tp1187
sg9
(lp1188
F-0.010589599609375
aF-0.09999694824218751
aF0.0
aF0.0
aF0.0
aF0.0
asg11
I01
sg12
g13
sg14
I01
sg15
g16
sa(dp1189
g2
F0.0
sg3
(lp1190
F-0.34158674712361453
aF0.6529294061541676
aF0.5262908325143605
aF3.130982658873945
aF0.0002807718677433502
aF-3.693030298496483e-05
asg5
I0
sg6
F0.5612334801762114
sg7
(F-0.8653467337237757
F-1.6422060171710413
F-1.7076709906207483
F-1.3704074064837855
F1.5778895616531372
F0.7054570317268372
tp1191
sg9
(lp1192
F0.0
aF-0.09999694824218751
aF0.0
aF0.0
aF0.0
aF0.0
asg11
I01
sg12
g13
sg14
I01
sg15
g16
sa(dp1193
g2
F0.0
sg3
(lp1194
F-0.3415909597455752
aF0.6432356840919052
aF0.5261046435503367
aF3.130869365473289
aF0.00018517186367518162
aF-8.255944133459338e-05
asg5
I0
sg6
F0.5612334801762114
sg7
(F-0.8565052191363733
F-1.62807542482485
F-1.7231100241290491
F-1.3691838423358362
F1.5779614448547363
F0.7143440842628479
tp1195
sg9
(lp1196
F0.0
aF-0.09999694824218751
aF0.0
aF0.0
aF0.0
aF0.0
asg11
I01
sg12
g13
sg14
I01
sg15
g16
sa(dp1197
g2
F0.0
sg3
(lp1198
F-0.34139282787456277
aF0.6330066328964019
aF0.5259994222025033
aF3.1308927884992865
aF0.0002172975931769838
aF-0.00018954658986771337
asg5
I0
sg6
F0.5612334801762114
sg7
(F-0.84717303911318
F-1.6129611174212855
F-1.739255730305807
F-1.3680456320392054
F1.5780450105667114
F0.7237831354141235
tp1199
sg9
(lp1200
F0.010586547851562501
aF-0.09999694824218751
aF0.0
aF0.0
aF0.0
aF0.0
asg11
I01
sg12
g13
sg14
I01
sg15
g16
sa(dp1201
g2
F0.0
sg3
(lp1202
F-0.3407702311136991
aF0.6226276552008284
aF0.5257578915036805
aF3.130694388066512
aF8.5068521629753e-05
aF-0.0002843626102846922
asg5
I0
sg6
F0.5612334801762114
sg7
(F-0.8379243055926722
F-1.597368065510885
F-1.7558320204364222
F-1.367230240498678
F1.5781527757644653
F0.7331263422966003
tp1203
sg9
(lp1204
F0.0294097900390625
aF-0.09999694824218751
aF0.0
aF0.0
aF0.0
aF0.0
asg11
I01
sg12
g13
sg14
I01
sg15
g16
sa(dp1205
g2
F0.0
sg3
(lp1206
F-0.3389161514564011
aF0.6130783754407737
aF0.525704459081741
aF3.1308197249160075
aF0.00016972155723426802
aF-0.00018490583845825985
asg5
I0
sg6
F0.5612334801762114
sg7
(F-0.8305805365191858
F-1.5818708578692835
F-1.7717855612384241
F-1.366570774708883
F1.5781887769699097
F0.7403708100318909
tp1207
sg9
(lp1208
F0.04117431640625
aF-0.092938232421875
aF0.0
aF0.0
aF0.0
aF0.0
asg11
I01
sg12
g13
sg14
I01
sg15
g16
sa(dp1209
g2
F0.0
sg3
(lp1210
F-0.33492906007472306
aF0.602975130718409
aF0.5255756016019422
aF3.1307883607567373
aF0.00015995191325572875
aF-0.00028678432613137115
asg5
I0
sg6
F0.5612334801762114
sg7
(F-0.8248174826251429
F-1.5638206640826624
F-1.7901094595538538
F-1.3662832419024866
F1.5782487392425537
F0.7462356090545654
tp1211
sg9
(lp1212
F0.050585937500000004
aF-0.08823242187500001
aF0.0
aF0.0
aF0.0
aF0.0
asg11
I01
sg12
g13
sg14
I01
sg15
g16
sa(dp1213
g2
F0.0
sg3
(lp1214
F-0.33065172871711107
aF0.5943020036080441
aF0.5252275280666274
aF3.1305807868554867
aF2.263152190780066e-05
aF-8.734396772672633e-05
asg5
I0
sg6
F0.5612334801762114
sg7
(F-0.8206718603717249
F-1.5476649443255823
F-1.8065770308123987
F-1.3661873976336878
F1.5783206224441528
F0.7501814365386963
tp1215
sg9
(lp1216
F0.0654876708984375
aF-0.0748992919921875
aF0.0
aF0.0
aF0.0
aF0.0
asg11
I01
sg12
g13
sg14
I01
sg15
g16
sa(dp1217
g2
F0.0
sg3
(lp1218
F-0.3245040250395572
aF0.5857983877146437
aF0.5253112002647243
aF3.131019440369102
aF0.00041045039548195564
aF-0.00014995216579036843
asg5
I0
sg6
F0.5612334801762114
sg7
(F-0.8186715284930628
F-1.529891316090719
F-1.8237021605121058
F-1.366235081349508
F1.5783206224441528
F0.7522445917129517
tp1219
sg9
(lp1220
F0.07803649902343751
aF-0.06627197265625
aF0.0
aF0.0
aF0.0
aF0.0
asg11
I01
sg12
g13
sg14
I01
sg15
g16
sa(dp1221
g2
F0.0
sg3
(lp1222
F-0.317612634970735
aF0.5790331859863033
aF0.5248456940530966
aF3.1307245107581854
aF0.00018961343474901908
aF-0.00023289910707866915
asg5
I0
sg6
F0.5612334801762114
sg7
(F-0.8193181196795862
F-1.5143221060382288
F-1.839198414479391
F-1.366678539906637
F1.5783565044403076
F0.7516805529594421
tp1223
sg9
(lp1224
F0.0811737060546875
aF-0.0607818603515625
aF0.0
aF0.0
aF0.0
aF0.0
asg11
I01
sg12
g13
sg14
I01
sg15
g16
sa(dp1225
g2
F0.0
sg3
(lp1226
F-0.3093617435790124
aF0.5723512463425778
aF0.524996497735495
aF3.131082076061277
aF0.0004974216719411605
aF-0.00030266852722806353
asg5
I0
sg6
F0.5612334801762114
sg7
(F-0.8216427008258265
F-1.497387711201803
F-1.8547547499286097
F-1.3676021734820765
F1.5783206224441528
F0.749426007270813
tp1227
sg9
(lp1228
F0.08195800781250001
aF-0.05999755859375
aF0.0
aF0.0
aF0.0
aF0.0
asg11
I01
sg12
g13
sg14
I01
sg15
g16
sa(dp1229
g2
F0.0
sg3
(lp1230
F-0.30089977456988276
aF0.5660633776679358
aF0.5244160372512521
aF3.1305830110974364
aF8.277019343538585e-05
aF-0.0003353877201010349
asg5
I0
sg6
F0.5612334801762114
sg7
(F-0.8247335592852991
F-1.4812200705157679
F-1.8703826109515589
F-1.3688128630267542
F1.578332543373108
F0.7463674545288086
tp1231
sg9
(lp1232
F0.083526611328125
aF-0.059213256835937506
aF0.0
aF0.0
aF0.0
aF0.0
asg11
I01
sg12
g13
sg14
I01
sg15
g16
sa(dp1233
g2
F0.0
sg3
(lp1234
F-0.29289658611372665
aF0.560332936745912
aF0.5245349391539962
aF3.1308574504953914
aF0.00040172373951481217
aF-0.00046473792792333204
asg5
I0
sg6
F0.5612334801762114
sg7
(F-0.8279927412616175
F-1.46586782137026
F-1.8839739004718226
F-1.3701794783221644
F1.5783565044403076
F0.743237316608429
tp1235
sg9
(lp1236
F0.08431091308593751
aF-0.058428955078125004
aF0.0
aF0.0
aF0.0
aF0.0
asg11
I01
sg12
g13
sg14
I01
sg15
g16
sa(dp1237
g2
F0.0
sg3
(lp1238
F-0.28434227844345455
aF0.5541649771453555
aF0.5242605001473042
aF3.1306205284817232
aF0.00024088134993253548
aF-0.00024483102517685793
asg5
I0
sg6
F0.5612334801762114
sg7
(F-0.8315385023700159
F-1.4495809713946741
F-1.8986786047564905
F-1.3720734755145472
F1.5783685445785522
F0.7394712567329407
tp1239
sg9
(lp1240
F0.08980102539062501
aF-0.050585937500000004
aF0.0
aF0.0
aF0.0
aF0.0
asg11
I01
sg12
g13
sg14
I01
sg15
g16
sa(dp1241
g2
F0.0
sg3
(lp1242
F-0.2752761731350682
aF0.5483797311469176
aF0.5241566740897954
aF3.1307155044851434
aF0.00031371161573374014
aF-0.00016752516500281666
asg5
I0
sg6
F0.5612334801762114
sg7
(F-0.8362711111651819
F-1.4333413282977503
F-1.9128325621234339
F-1.3740761915790003
F1.5783206224441528
F0.7346614599227905
tp1243
sg9
(lp1244
F0.099212646484375
aF-0.0294097900390625
aF0.0
aF0.0
aF0.0
aF0.0
asg11
I01
sg12
g13
sg14
I01
sg15
g16
sa(dp1245
g2
F0.0
sg3
(lp1246
F-0.26633772508531894
aF0.5444131990411734
aF0.5241076433690165
aF3.1308093931123295
aF0.0002586274042925464
aF-0.0003386797605506294
asg5
I0
sg6
F0.5612334801762114
sg7
(F-0.8430636564837855
F-1.420063320790426
F-1.924112621937887
F-1.3760903517352503
F1.57816481590271
F0.7280409336090088
tp1247
sg9
(lp1248
F0.09999694824218751
aF0.016864013671875
aF0.0
aF0.0
aF0.0
aF0.0
asg11
I01
sg12
g13
sg14
I01
sg15
g16
sa(dp1249
g2
F0.0
sg3
(lp1250
F-0.25608156433606405
aF0.5428635187393065
aF0.5238700613939486
aF3.1305997788545366
aF0.00016532786083688482
aF-0.0003023198515664262
asg5
I0
sg6
F0.5612334801762114
sg7
(F-0.8545525709735315
F-1.4098165670977991
F-1.9329846541034144
F-1.3777688185321253
F1.5781408548355103
F0.7165151238441467
tp1251
sg9
(lp1252
F0.0748992919921875
aF0.082745361328125
aF0.0
aF0.0
aF0.0
aF0.0
asg11
I01
sg12
g13
sg14
I01
sg15
g16
sa(dp1253
g2
F0.0
sg3
(lp1254
F-0.24766628328752213
aF0.5476352238855445
aF0.5238127020044356
aF3.1306542738005914
aF0.00015228089176909677
aF-0.0004023689214356633
asg5
I0
sg6
F0.5612334801762114
sg7
(F-0.8709524313556116
F-1.4112666288958948
F-1.9318717161761683
F-1.377517048512594
F1.5779614448547363
F0.7002158164978027
tp1255
sg9
(lp1256
F0.0498016357421875
aF0.1
aF0.0
aF0.0
aF0.0
aF0.0
asg11
I01
sg12
g13
sg14
I01
sg15
g16
sa(dp1257
g2
F0.0
sg3
(lp1258
F-0.2410670476808534
aF0.5573327765150031
aF0.5238095160030023
aF3.1306011938748277
aF0.00017730887320289935
aF-0.0004638506530071289
asg5
I0
sg6
F0.5612334801762114
sg7
(F-0.8902996222125452
F-1.4222796599017542
F-1.9226754347430628
F-1.3758624235736292
F1.5778535604476929
F0.6809298396110535
tp1259
sg9
(lp1260
F0.0482330322265625
aF0.1
aF0.0
aF0.0
aF0.0
aF0.0
asg11
I01
sg12
g13
sg14
I01
sg15
g16
sa(dp1261
g2
F0.0
sg3
(lp1262
F-0.23580655474978762
aF0.567715159639889
aF0.523693784934611
aF3.130564994269457
aF0.0001613726005091192
aF-0.0003339694743665859
asg5
I0
sg6
F0.5612334801762114
sg7
(F-0.9082439581500452
F-1.4355829397784632
F-1.9115989843951624
F-1.3738001028644007
F1.5777097940444946
F0.6628557443618774
tp1263
sg9
(lp1264
F0.047448730468750006
aF0.1
aF0.0
aF0.0
aF0.0
aF0.0
asg11
I01
sg12
g13
sg14
I01
sg15
g16
sa(dp1265
g2
F0.0
sg3
(lp1266
F-0.2310317566565959
aF0.5774610474501071
aF0.5235888199631876
aF3.130556046254523
aF0.0001667074763610365
aF-0.0002533597853692825
asg5
I0
sg6
F0.5612334801762114
sg7
(F-0.9245227018939417
F-1.4483102003680628
F-1.9008219877826136
F-1.3719657103167933
F1.5775779485702515
F0.6464965343475342
tp1267
sg9
(lp1268
F0.047448730468750006
aF0.1
aF0.0
aF0.0
aF0.0
aF0.0
asg11
I01
sg12
g13
sg14
I01
sg15
g16
sa(dp1269
g2
F0.0
sg3
(lp1270
F-0.22556501518166128
aF0.5875478668072968
aF0.5236197591953508
aF3.1307262629286785
aF0.00025458616248612493
aF-0.00030191048020033014
asg5
I0
sg6
F0.5612334801762114
sg7
(F-0.9417107740985315
F-1.461205784474508
F-1.8895180861102503
F-1.3702996412860315
F1.5773985385894775
F0.6293575763702393
tp1271
sg9
(lp1272
F0.0827423095703125
aF0.067059326171875
aF0.0
aF0.0
aF0.0
aF0.0
asg11
I01
sg12
g13
sg14
I01
sg15
g16
sa(dp1273
g2
F0.0
sg3
(lp1274
F-0.21879213178511966
aF0.5955226847864942
aF0.5233644328485455
aF3.1304143553331647
aF2.1141180888535328e-05
aF-0.000303365487887287
asg5
I0
sg6
F0.5612334801762114
sg7
(F-0.9583118597613733
F-1.470194164906637
F-1.8819144407855433
F-1.3694127241717737
F1.5772427320480347
F0.6127582788467407
tp1275
sg9
(lp1276
F0.09372253417968751
aF0.049020385742187506
aF0.0
aF0.0
aF0.0
aF0.0
asg11
I01
sg12
g13
sg14
I01
sg15
g16
sa(dp1277
g2
F0.0
sg3
(lp1278
F-0.20957167837370988
aF0.6015772438845118
aF0.5234053947754316
aF3.130399184138035
aF5.062784140887103e-05
aF-0.00030297839692156904
asg5
I0
sg6
F0.5612334801762114
sg7
(F-0.976241413746969
F-1.4746888319598597
F-1.8778064886676233
F-1.369136158620016
F1.5771108865737915
F0.5948284268379211
tp1279
sg9
(lp1280
F0.08195800781250001
aF0.0686279296875
aF0.0
aF0.0
aF0.0
aF0.0
asg11
I01
sg12
g13
sg14
I01
sg15
g16
sa(dp1281
g2
F0.0
sg3
(lp1282
F-0.19995281930573305
aF0.6072520037192994
aF0.5234439893091954
aF3.1305142483559334
aF9.695378258704568e-05
aF-0.0003494659682959439
asg5
I0
sg6
F0.5612334801762114
sg7
(F-0.9942911306964319
F-1.478631321583883
F-1.874202076588766
F-1.3687885443316858
F1.5769195556640625
F0.5768258571624756
tp1283
sg9
(lp1284
F0.0443115234375
aF0.098431396484375
aF0.0
aF0.0
aF0.0
aF0.0
asg11
I01
sg12
g13
sg14
I01
sg15
g16
sa(dp1285
g2
F0.0
sg3
(lp1286
F-0.1933300147273486
aF0.6144981973596848
aF0.5235503277880252
aF3.1308268444534133
aF0.00027820475721168587
aF-0.00021849262668457767
asg5
I0
sg6
F0.5612334801762114
sg7
(F-1.0095484892474573
F-1.4869731108294886
F-1.8665269056903284
F-1.3678539435016077
F1.5767637491226196
F0.5614380836486816
tp1287
sg9
(lp1288
F0.014508056640625001
aF0.1
aF0.0
aF0.0
aF0.0
aF0.0
asg11
I01
sg12
g13
sg14
I01
sg15
g16
sa(dp1289
g2
F0.0
sg3
(lp1290
F-0.19038967445477722
aF0.6248493101121773
aF0.5233852736929261
aF3.130815918756333
aF0.00023690815002234516
aF-0.00017645059593835463
asg5
I0
sg6
F0.5612334801762114
sg7
(F-1.0221956411944788
F-1.5025652090655726
F-1.8525036017047327
F-1.3663910071002405
F1.5766199827194214
F0.5487494468688965
tp1291
sg9
(lp1292
F0.0
aF0.1
aF0.0
aF0.0
aF0.0
aF0.0
asg11
I01
sg12
g13
sg14
I01
sg15
g16
sa(dp1293
g2
F0.0
sg3
(lp1294
F-0.19000775169383993
aF0.6345506975242826
aF0.5232349170767754
aF3.130708721821152
aF0.0002317690181700992
aF-0.00035549305225749994
asg5
I0
sg6
F0.5612334801762114
sg7
(F-1.0305903593646448
F-1.5183489958392542
F-1.8380010763751429
F-1.3652518431292933
F1.5765960216522217
F0.5405334830284119
tp1295
sg9
(lp1296
F0.0
aF0.1
aF0.0
aF0.0
aF0.0
aF0.0
asg11
I01
sg12
g13
sg14
I01
sg15
g16
sa(dp1297
g2
F0.0
sg3
(lp1298
F-0.19028658002990567
aF0.6448969714565203
aF0.5231111248214552
aF3.1307755499307652
aF0.00023130651690664335
aF-0.00017584130545438128
asg5
I0
sg6
F0.5612334801762114
sg7
(F-1.0383747259723108
F-1.5354159514056605
F-1.8219779173480433
F-1.3641966024981897
F1.5764881372451782
F0.5325700044631958
tp1299
sg9
(lp1300
F-0.0380401611328125
aF0.1
aF0.0
aF0.0
aF0.0
aF0.0
asg11
I01
sg12
g13
sg14
I01
sg15
g16
sa(dp1301
g2
F0.0
sg3
(lp1302
F-0.19253198915613096
aF0.6553548736166911
aF0.522950903816255
aF3.130752022906655
aF0.00016262233769626506
aF-4.735701996014454e-05
asg5
I0
sg6
F0.5612334801762114
sg7
(F-1.0434520880328577
F-1.5535491148578089
F-1.804636303578512
F-1.3634894529925745
F1.576392650604248
F0.5273647308349609
tp1303
sg9
(lp1304
F-0.048236083984375004
aF0.1
aF0.0
aF0.0
aF0.0
aF0.0
asg11
I01
sg12
g13
sg14
I01
sg15
g16
sa(dp1305
g2
F0.0
sg3
(lp1306
F-0.19677797943410152
aF0.6658284420178692
aF0.5223537734480173
aF3.130294892400132
aF-0.00010421874076622353
aF-3.137306350120582e-05
asg5
I0
sg6
F0.5612334801762114
sg7
(F-1.0458229223834437
F-1.5727742354022425
F-1.7865288893329065
F-1.3629143873797815
F1.5763686895370483
F0.52497798204422
tp1307
sg9
(lp1308
F-0.0584320068359375
aF0.09058837890625
aF0.0
aF0.0
aF0.0
aF0.0
asg11
I01
sg12
g13
sg14
I01
sg15
g16
sa(dp1309
g2
F0.0
sg3
(lp1310
F-0.2014866745948607
aF0.6750435615201299
aF0.5224907368028681
aF3.1307947177322757
aF0.0001644075693131042
aF-0.0001861997180707729
asg5
I0
sg6
F0.5612334801762114
sg7
(F-1.0466135183917444
F-1.5897215048419397
F-1.7692583242999476
F-1.3626740614520472
F1.5763447284698486
F0.52434241771698
tp1311
sg9
(lp1312
F-0.06549072265625
aF0.08431396484375
aF0.0
aF0.0
aF0.0
aF0.0
asg11
I01
sg12
g13
sg14
I01
sg15
g16
sa(dp1313
g2
F0.0
sg3
(lp1314
F-0.20770723592455617
aF0.6844847378253901
aF0.5217810230432637
aF3.1302497918877177
aF-0.00014658351299637147
aF-7.951542396136818e-05
asg5
I0
sg6
F0.5612334801762114
sg7
(F-1.0456674734698694
F-1.6081307570086878
F-1.7514241377459925
F-1.3627217451678675
F1.5763566493988037
F0.5251817107200623
tp1315
sg9
(lp1316
F-0.07019653320312501
aF0.0803924560546875
aF0.0
aF0.0
aF0.0
aF0.0
asg11
I01
sg12
g13
sg14
I01
sg15
g16
sa(dp1317
g2
F0.0
sg3
(lp1318
F-0.21411441680991683
aF0.6924643030844234
aF0.5220107960825284
aF3.131019245847622
aF0.00022164330232601716
aF-2.2400179901044242e-05
asg5
I0
sg6
F0.5612334801762114
sg7
(F-1.0434759298907679
F-1.6237600485431116
F-1.7347882429706019
F-1.362866226826803
F1.5763087272644043
F0.5273167490959167
tp1319
sg9
(lp1320
F-0.07019653320312501
aF0.0803924560546875
aF0.0
aF0.0
aF0.0
aF0.0
asg11
I01
sg12
g13
sg14
I01
sg15
g16
sa(dp1321
g2
F0.0
sg3
(lp1322
F-0.2213676917357547
aF0.700873446902345
aF0.5214704284811617
aF3.130633838298611
aF-7.521422041271432e-06
aF-0.0001471841649964878
asg5
I0
sg6
F0.5612334801762114
sg7
(F-1.040638271962301
F-1.6408880392657679
F-1.7173851172076624
F-1.3635733763324183
F1.576332688331604
F0.5302790999412537
tp1323
sg9
(lp1324
F-0.07176513671875
aF0.0788238525390625
aF0.0
aF0.0
aF0.0
aF0.0
asg11
I01
sg12
g13
sg14
I01
sg15
g16
sa(dp1325
g2
F0.0
sg3
(lp1326
F-0.22812116760085266
aF0.7084196798466028
aF0.5215663434759341
aF3.1309275507554757
aF0.00014759098527523823
aF-0.0003188842466060165
asg5
I0
sg6
F0.5612334801762114
sg7
(F-1.0378716627704065
F-1.6560857931720179
F-1.7007959524737757
F-1.3646166960345667
F1.5763447284698486
F0.5332174897193909
tp1327
sg9
(lp1328
F-0.07803955078125001
aF0.0709808349609375
aF0.0
aF0.0
aF0.0
aF0.0
asg11
I01
sg12
g13
sg14
I01
sg15
g16
sa(dp1329
g2
F0.0
sg3
(lp1330
F-0.23603264359875456
aF0.7162720414576926
aF0.5212579126759688
aF3.130781654206851
aF4.860448745768227e-05
aF-0.00026460103366465136
asg5
I0
sg6
F0.5612334801762114
sg7
(F-1.034039322529928
F-1.6725543181048792
F-1.6831639448748987
F-1.3659351507769983
F1.5763686895370483
F0.536995530128479
tp1331
sg9
(lp1332
F-0.0960784912109375
aF0.0380401611328125
aF0.0
aF0.0
aF0.0
aF0.0
asg11
I01
sg12
g13
sg14
I01
sg15
g16
sa(dp1333
g2
F0.0
sg3
(lp1334
F-0.24485384148704326
aF0.7220652071360706
aF0.5211725120428117
aF3.13086130237986
aF8.736084634238641e-05
aF-0.00011835659701231407
asg5
I0
sg6
F0.5612334801762114
sg7
(F-1.0278480688678187
F-1.6862061659442347
F-1.6680710951434534
F-1.3672540823565882
F1.5764166116714478
F0.5430404543876648
tp1335
sg9
(lp1336
F-0.1
aF0.0
aF0.0
aF0.0
aF0.0
aF0.0
asg11
I01
sg12
g13
sg14
I01
sg15
g16
sa(dp1337
g2
F0.0
sg3
(lp1338
F-0.2544029927806239
aF0.7239789465195254
aF0.5209254695109886
aF3.1306214833498336
aF1.998371914510445e-05
aF-9.707081641559983e-05
asg5
I0
sg6
F0.5612334801762114
sg7
(F-1.0182912985431116
F-1.6944049040423792
F-1.6592066923724573
F-1.3681052366839808
F1.576572060585022
F0.5525750517845154
tp1339
sg9
(lp1340
F-0.1
aF-0.020782470703125
aF0.0
aF0.0
aF0.0
aF0.0
asg11
I01
sg12
g13
sg14
I01
sg15
g16
sa(dp1341
g2
F0.0
sg3
(lp1342
F-0.2648695975895339
aF0.723217327888097
aF0.5210486096176647
aF3.130882214759056
aF0.00020581858138178573
aF-6.68846275605829e-05
asg5
I0
sg6
F0.5612334801762114
sg7
(F-1.0059555212603968
F-1.6989477316485804
F-1.653900448475973
F-1.3684771696673792
F1.5767037868499756
F0.5648801922798157
tp1343
sg9
(lp1344
F-0.1
aF-0.042742919921875004
aF0.0
aF0.0
aF0.0
aF0.0
asg11
I01
sg12
g13
sg14
I01
sg15
g16
sa(dp1345
g2
F0.0
sg3
(lp1346
F-0.27438760943656354
aF0.720363462220582
aF0.5210720630856224
aF3.1308780035650274
aF0.00018270841710878836
aF-9.740948908011927e-05
asg5
I0
sg6
F0.5612334801762114
sg7
(F-0.9932845274554651
F-1.7000144163714808
F-1.6526544729815882
F-1.3685968557940882
F1.576799750328064
F0.5775815844535828
tp1347
sg9
(lp1348
F-0.1
aF-0.045880126953125
aF0.0
aF0.0
aF0.0
aF0.0
asg11
I01
sg12
g13
sg14
I01
sg15
g16
sa(dp1349
g2
F0.0
sg3
(lp1350
F-0.2856416246581264
aF0.7152537502018436
aF0.521121026282433
aF3.130826369995456
aF0.00010607973613347546
aF-4.767277636259927e-05
asg5
I0
sg6
F0.5612334801762114
sg7
(F-0.9770916144000452
F-1.69890004793276
F-1.6538403669940394
F-1.3685129324542444
F1.5769076347351074
F0.5937247276306152
tp1351
sg9
(lp1352
F-0.1
aF-0.045880126953125
aF0.0
aF0.0
aF0.0
aF0.0
asg11
I01
sg12
g13
sg14
I01
sg15
g16
sa(dp1353
g2
F0.0
sg3
(lp1354
F-0.2949894253319079
aF0.7107508097616841
aF0.5210841084307496
aF3.1306734236968308
aF1.2068128079369419e-05
aF-0.0001749428686311629
asg5
I0
sg6
F0.5612334801762114
sg7
(F-0.9634740988360804
F-1.6978686491595667
F-1.6550620237933558
F-1.3684170881854456
F1.5770390033721924
F0.6074691414833069
tp1355
sg9
(lp1356
F-0.1
aF-0.05372314453125
aF0.0
aF0.0
aF0.0
aF0.0
asg11
I01
sg12
g13
sg14
I01
sg15
g16
sa(dp1357
g2
F0.0
sg3
(lp1358
F-0.30523184875105525
aF0.7054623895499001
aF0.5208834767605
aF3.1303938630879093
aF-0.00019277068062675544
aF-0.00017184974351690425
asg5
I0
sg6
F0.5612334801762114
sg7
(F-0.9482987562762659
F-1.69653827348818
F-1.6568830649005335
F-1.3681772390948694
F1.5771708488464355
F0.6226411461830139
tp1359
sg9
(lp1360
F-0.063922119140625
aF-0.08823242187500001
aF0.0
aF0.0
aF0.0
aF0.0
asg11
I01
sg12
g13
sg14
I01
sg15
g16
sa(dp1361
g2
F0.0
sg3
(lp1362
F-0.3133070802999204
aF0.6989701597425296
aF0.5210203137072744
aF3.130623139751668
aF-2.010925530839295e-06
aF-0.0002022412932403771
asg5
I0
sg6
F0.5612334801762114
sg7
(F-0.934511963521139
F-1.6920436064349573
F-1.6618183294879358
F-1.367349926625387
F1.5773146152496338
F0.6364578604698181
tp1363
sg9
(lp1364
F-0.0207855224609375
aF-0.09999694824218751
aF0.0
aF0.0
aF0.0
aF0.0
asg11
I01
sg12
g13
sg14
I01
sg15
g16
sa(dp1365
g2
F0.0
sg3
(lp1366
F-0.3181788002123104
aF0.689469149113572
aF0.5212039422304426
aF3.130911223584555
aF0.00022551764492402518
aF-0.0001955728453462236
asg5
I0
sg6
F0.5612334801762114
sg7
(F-0.9216478506671351
F-1.681040112172262
F-1.6739767233477991
F-1.3657434622394007
F1.5774345397949219
F0.6493150591850281
tp1367
sg9
(lp1368
F0.0
aF-0.09999694824218751
aF0.0
aF0.0
aF0.0
aF0.0
asg11
I01
sg12
g13
sg14
I01
sg15
g16
sa(dp1369
g2
F0.0
sg3
(lp1370
F-0.31926521999392765
aF0.6790351796426275
aF0.5206963276518348
aF3.1304764877733295
aF-0.00012317570388574
aF-0.0001716150347743656
asg5
I0
sg6
F0.5612334801762114
sg7
(F-0.9118731657611292
F-1.6664655844317835
F-1.6909974257098597
F-1.3637893835650843
F1.577506422996521
F0.6590657234191895
tp1371
sg9
(lp1372
F0.0
aF-0.09999694824218751
aF0.0
aF0.0
aF0.0
aF0.0
asg11
I01
sg12
g13
sg14
I01
sg15
g16
sa(dp1373
g2
F0.0
sg3
(lp1374
F-0.319293693296747
aF0.6695258280509921
aF0.5209150749980873
aF3.1309508980530083
aF0.0002506258391827011
aF-0.00019406901325651988
asg5
I0
sg6
F0.5612334801762114
sg7
(F-0.9038117567645472
F-1.6521661917315882
F-1.7064250151263636
F-1.3620026747332972
F1.5775779485702515
F0.6671494841575623
tp1375
sg9
(lp1376
F0.0
aF-0.09999694824218751
aF0.0
aF0.0
aF0.0
aF0.0
asg11
I01
sg12
g13
sg14
I01
sg15
g16
sa(dp1377
g2
F0.0
sg3
(lp1378
F-0.31902585272165374
aF0.6590974739159916
aF0.5204420841669292
aF3.1305259922126014
aF-4.291954869550977e-05
aF-0.00016900011742493887
asg5
I0
sg6
F0.5612334801762114
sg7
(F-0.8950913588153284
F-1.6366570631610315
F-1.7239363829242151
F-1.3604562918292444
F1.577685832977295
F0.6758443713188171
tp1379
sg9
(lp1380
F0.0
aF-0.09999694824218751
aF0.0
aF0.0
aF0.0
aF0.0
asg11
I01
sg12
g13
sg14
I01
sg15
g16
sa(dp1381
g2
F0.0
sg3
(lp1382
F-0.31886696708245943
aF0.6495783386869822
aF0.5206733063786723
aF3.130998469692697
aF0.000326951387032879
aF-0.00023868124748114574
asg5
I0
sg6
F0.5612334801762114
sg7
(F-0.8868373076068323
F-1.622202221547262
F-1.7390406767474573
F-1.3591492811786097
F1.5777456760406494
F0.6841681599617004
tp1383
sg9
(lp1384
F0.0
aF-0.09999694824218751
aF0.0
aF0.0
aF0.0
aF0.0
asg11
I01
sg12
g13
sg14
I01
sg15
g16
sa(dp1385
g2
F0.0
sg3
(lp1386
F-0.31876257021901166
aF0.6392676057431014
aF0.5202168784699525
aF3.1306432204912658
aF-2.4050138354003253e-07
aF-0.00011790566791721073
asg5
I0
sg6
F0.5612334801762114
sg7
(F-0.877601448689596
F-1.6069682280169886
F-1.7557366530047815
F-1.3581059614764612
F1.5777937173843384
F0.6932833194732666
tp1387
sg9
(lp1388
F0.0
aF-0.09999694824218751
aF0.0
aF0.0
aF0.0
aF0.0
asg11
I01
sg12
g13
sg14
I01
sg15
g16
sa(dp1389
g2
F0.0
sg3
(lp1390
F-0.31854397971752
aF0.6296649160215673
aF0.5204894600010134
aF3.131128745535551
aF0.00042481844307006077
aF-0.00011613438516784973
asg5
I0
sg6
F0.5612334801762114
sg7
(F-0.8689282576190394
F-1.5923097769366663
F-1.7705157438861292
F-1.357279125844137
F1.5778775215148926
F0.7019546627998352
tp1391
sg9
(lp1392
F0.0
aF-0.09999694824218751
aF0.0
aF0.0
aF0.0
aF0.0
asg11
I01
sg12
g13
sg14
I01
sg15
g16
sa(dp1393
g2
F0.0
sg3
(lp1394
F-0.3182515806824304
aF0.619348706508467
aF0.5198563242082451
aF3.130452828526602
aF-0.00014465062303253227
aF-0.00023556034110855422
asg5
I0
sg6
F0.5612334801762114
sg7
(F-0.8594406286822718
F-1.5770166555987757
F-1.7870076338397425
F-1.3568957487689417
F1.5779614448547363
F0.7115615010261536
tp1395
sg9
(lp1396
F0.030194091796875003
aF-0.09999694824218751
aF0.0
aF0.0
aF0.0
aF0.0
asg11
I01
sg12
g13
sg14
I01
sg15
g16
sa(dp1397
g2
F0.0
sg3
(lp1398
F-0.3163001008834442
aF0.6090178704951554
aF0.5200030379104643
aF3.130777325701997
aF0.00014656329312392197
aF-0.0001482431000517117
asg5
I0
sg6
F0.5612334801762114
sg7
(F-0.8515570799456995
F-1.5599616209613245
F-1.8038581053363245
F-1.3566082159625452
F1.5780329704284668
F0.7193576097488403
tp1399
sg9
(lp1400
F0.052154541015625
aF-0.0874481201171875
aF0.0
aF0.0
aF0.0
aF0.0
asg11
I01
sg12
g13
sg14
I01
sg15
g16
sa(dp1401
g2
F0.0
sg3
(lp1402
F-0.31177572590256364
aF0.6003511177573152
aF0.5196847420928533
aF3.130589775234826
aF-4.2567433135593765e-05
aF-0.0003443490862213845
asg5
I0
sg6
F0.5612334801762114
sg7
(F-0.8480475584613245
F-1.5435779730426233
F-1.82042104402651
F-1.3566678206073206
F1.5780450105667114
F0.7230633497238159
tp1403
sg9
(lp1404
F0.0568603515625
aF-0.08431091308593751
aF0.0
aF0.0
aF0.0
aF0.0
asg11
I01
sg12
g13
sg14
I01
sg15
g16
sa(dp1405
g2
F0.0
sg3
(lp1406
F-0.30592279293257374
aF0.5915291664728792
aF0.5195591888827981
aF3.1307787911409553
aF8.477132713774957e-05
aF-0.00028695616843836996
asg5
I0
sg6
F0.5612334801762114
sg7
(F-0.8458073774920862
F-1.525708023701803
F-1.8378575483905237
F-1.3568595091449183
F1.5780329704284668
F0.7252463698387146
tp1407
sg9
(lp1408
F0.0639190673828125
aF-0.07803649902343751
aF0.0
aF0.0
aF0.0
aF0.0
asg11
I01
sg12
g13
sg14
I01
sg15
g16
sa(dp1409
g2
F0.0
sg3
(lp1410
F-0.3000142363478922
aF0.5838405768243093
aF0.5194579263889868
aF3.1308733060754634
aF0.00023860364566476047
aF-0.0001925307473116923
asg5
I0
sg6
F0.5612334801762114
sg7
(F-0.8447530905352991
F-1.5094206968890589
F-1.8534134070025843
F-1.3574112097369593
F1.5780929327011108
F0.7262058258056641
tp1411
sg9
(lp1412
F0.074114990234375
aF-0.0717620849609375
aF0.0
aF0.0
aF0.0
aF0.0
asg11
I01
sg12
g13
sg14
I01
sg15
g16
sa(dp1413
g2
F0.0
sg3
(lp1414
F-0.2927003750494404
aF0.576003426647161
aF0.5192076966126371
aF3.1306441617715968
aF8.803102165352747e-05
aF-0.00016820542031278674
asg5
I0
sg6
F0.5612334801762114
sg7
(F-0.8451841513263147
F-1.4918268362628382
F-1.8700469175921839
F-1.3586462179767054
F1.5781288146972656
F0.7257500886917114
tp1415
sg9
(lp1416
F0.07646789550781251
aF-0.0694091796875
aF0.0
aF0.0
aF0.0
aF0.0
asg11
I01
sg12
g13
sg14
I01
sg15
g16
sa(dp1417
g2
F0.0
sg3
(lp1418
F-0.28485972505032164
aF0.5686955221073835
aF0.5192379247139319
aF3.130823621667678
aF0.0002643418808640178
aF-0.00020248232991418883
asg5
I0
sg6
F0.5612334801762114
sg7
(F-0.846837345753805
F-1.474389378224508
F-1.8858063856707972
F-1.3600848356830042
F1.5781288146972656
F0.7241311073303223
tp1419
sg9
(lp1420
F0.07882080078125
aF-0.067840576171875
aF0.0
aF0.0
aF0.0
aF0.0
asg11
I01
sg12
g13
sg14
I01
sg15
g16
sa(dp1421
g2
F0.0
sg3
(lp1422
F-0.2773597182895529
aF0.5621480417514882
aF0.5190211407452706
aF3.130736054302008
aF0.00022382123005703662
aF-0.0003687126364496462
asg5
I0
sg6
F0.5612334801762114
sg7
(F-0.8489583174334925
F-1.458461109791891
F-1.900283161793844
F-1.361643139516012
F1.5781408548355103
F0.7221761345863342
tp1423
sg9
(lp1424
F0.08038940429687501
aF-0.063134765625
aF0.0
aF0.0
aF0.0
aF0.0
asg11
I01
sg12
g13
sg14
I01
sg15
g16
sa(dp1425
g2
F0.0
sg3
(lp1426
F-0.2690279088546142
aF0.5553161170774727
aF0.5190060014481043
aF3.1308795649072665
aF0.0003646571061581813
aF-0.0003649307902817577
asg5
I0
sg6
F0.5612334801762114
sg7
(F-0.8518808523761194
F-1.4412749449359339
F-1.9152634779559534
F-1.3636696974383753
F1.5781288146972656
F0.7192497849464417
tp1427
sg9
(lp1428
F0.0890167236328125
aF-0.054507446289062504
aF0.0
aF0.0
aF0.0
aF0.0
asg11
I01
sg12
g13
sg14
I01
sg15
g16
sa(dp1429
g2
F0.0
sg3
(lp1430
F-0.26102648329283723
aF0.5496600228547975
aF0.5188137273986639
aF3.1307881301965157
aF0.00031075155103580244
aF-0.0003006061252877902
asg5
I0
sg6
F0.5612334801762114
sg7
(F-0.8557985464679163
F-1.4262588659869593
F-1.9283512274371546
F-1.3657315413104456
F1.5781168937683105
F0.7152675986289978
tp1431
sg9
(lp1432
F0.09999694824218751
aF-0.030194091796875003
aF0.0
aF0.0
aF0.0
aF0.0
asg11
I01
sg12
g13
sg14
I01
sg15
g16
sa(dp1433
g2
F0.0
sg3
(lp1434
F-0.25137979333348975
aF0.5450881181701118
aF0.5185605481405676
aF3.130687341406792
aF0.0002864885432887809
aF-0.00031635456364218227
asg5
I0
sg6
F0.5612334801762114
sg7
(F-0.8632257620440882
F-1.411757771168844
F-1.940876309071676
F-1.3678539435016077
F1.578104853630066
F0.707855761051178
tp1435
sg9
(lp1436
F0.09999694824218751
aF0.0
aF0.0
aF0.0
aF0.0
aF0.0
asg11
I01
sg12
g13
sg14
I01
sg15
g16
sa(dp1437
g2
F0.0
sg3
(lp1438
F-0.2410948963018958
aF0.5438544929676595
aF0.5185849350723337
aF3.1307856446552713
aF0.00037298193126222026
aF-0.0003981634541739929
asg5
I0
sg6
F0.5612334801762114
sg7
(F-0.87549335161318
F-1.402170483266012
F-1.9487188498126429
F-1.3695562521563929
F1.578009009361267
F0.6956700682640076
tp1439
sg9
(lp1440
F0.09999694824218751
aF0.0396087646484375
aF0.0
aF0.0
aF0.0
aF0.0
asg11
I01
sg12
g13
sg14
I01
sg15
g16
sa(dp1441
g2
F0.0
sg3
(lp1442
F-0.2315193636247146
aF0.5450357501890328
aF0.5185102556254049
aF3.1307285737638693
aF0.00030537450652246456
aF-0.0004763837656937238
asg5
I0
sg6
F0.5612334801762114
sg7
(F-0.8897483984576624
F-1.3973286787616175
F-1.952754322682516
F-1.3705509344684046
F1.5778775215148926
F0.6814934611320496
tp1443
sg9
(lp1444
F0.09999694824218751
aF0.0552947998046875
aF0.0
aF0.0
aF0.0
aF0.0
asg11
I01
sg12
g13
sg14
I01
sg15
g16
sa(dp1445
g2
F0.0
sg3
(lp1446
F-0.22122013440528496
aF0.5491468798708296
aF0.5184103748772055
aF3.130638016753091
aF0.0002644204897246178
aF-0.00042986884151711573
asg5
I0
sg6
F0.5612334801762114
sg7
(F-0.9083874861346644
F-1.3971369902240198
F-1.9530413786517542
F-1.3706830183612269
F1.5777456760406494
F0.662807822227478
tp1447
sg9
(lp1448
F0.08509521484375
aF0.06627502441406251
aF0.0
aF0.0
aF0.0
aF0.0
asg11
I01
sg12
g13
sg14
I01
sg15
g16
sa(dp1449
g2
F0.0
sg3
(lp1450
F-0.21151257621728284
aF0.5552097928466179
aF0.5182510093650213
aF3.130286453780591
aF7.995818809859328e-05
aF-0.00039279491788387076
asg5
I0
sg6
F0.5612334801762114
sg7
(F-0.9283555189715784
F-1.4010198752032679
F-1.95005971590151
F-1.3703110853778284
F1.5776379108428955
F0.642802357673645
tp1451
sg9
(lp1452
F0.07803649902343751
aF0.07176513671875
aF0.0
aF0.0
aF0.0
aF0.0
asg11
I01
sg12
g13
sg14
I01
sg15
g16
sa(dp1453
g2
F0.0
sg3
(lp1454
F-0.20382368240400503
aF0.5618666517823095
aF0.5182288758656564
aF3.1303051103313733
aF2.587609615632983e-05
aF-0.0003203264427262215
asg5
I0
sg6
F0.5612334801762114
sg7
(F-0.9460104147540491
F-1.4073956648456019
F-1.9448512236224573
F-1.3692801634417933
F1.5774224996566772
F0.6250758171081543
tp1455
sg9
(lp1456
F0.06862487792968751
aF0.08196105957031251
aF0.0
aF0.0
aF0.0
aF0.0
asg11
I01
sg12
g13
sg14
I01
sg15
g16
sa(dp1457
g2
F0.0
sg3
(lp1458
F-0.1961897797441438
aF0.5699657716824145
aF0.518276481614211
aF3.130385406930134
aF2.8867650255289467e-05
aF-0.00043832466539929147
asg5
I0
sg6
F0.5612334801762114
sg7
(F-0.9648631254779261
F-1.4164441267596644
F-1.9372718969928187
F-1.3678658644305628
F1.5772068500518799
F0.6063418984413147
tp1459
sg9
(lp1460
F0.052154541015625
aF0.0945098876953125
aF0.0
aF0.0
aF0.0
aF0.0
asg11
I01
sg12
g13
sg14
I01
sg15
g16
sa(dp1461
g2
F0.0
sg3
(lp1462
F-0.1901226328620586
aF0.5782763096110698
aF0.5182830644414226
aF3.130525151310381
aF0.00010403507825049125
aF-0.0005234522707717532
asg5
I0
sg6
F0.5612334801762114
sg7
(F-0.9814518133746546
F-1.4269660154925745
F-1.9284589926349085
F-1.366103474293844
F1.5770390033721924
F0.5898388624191284
tp1463
sg9
(lp1464
F0.030194091796875003
aF0.1
aF0.0
aF0.0
aF0.0
aF0.0
asg11
I01
sg12
g13
sg14
I01
sg15
g16
sa(dp1465
g2
F0.0
sg3
(lp1466
F-0.18540191327292427
aF0.5882829197128369
aF0.5181465364424224
aF3.1305214795147673
aF0.0001221457342055308
aF-0.0003202827000896225
asg5
I0
sg6
F0.5612334801762114
sg7
(F-0.9974163214312952
F-1.4412749449359339
F-1.91650897661318
F-1.3638375441180628
F1.5769076347351074
F0.5736714005470276
tp1467
sg9
(lp1468
F0.011370849609375
aF0.1
aF0.0
aF0.0
aF0.0
aF0.0
asg11
I01
sg12
g13
sg14
I01
sg15
g16
sa(dp1469
g2
F0.0
sg3
(lp1470
F-0.18311182110744043
aF0.5979262077897405
aF0.5180851563377067
aF3.1306437687211592
aF0.00020376469451205146
aF-0.00011102827965656651
asg5
I0
sg6
F0.5612334801762114
sg7
(F-1.009272877370016
F-1.4562442938434046
F-1.9036601225482386
F-1.361643139516012
F1.576799750328064
F0.5616058707237244
tp1471
sg9
(lp1472
F0.0
aF0.1
aF0.0
aF0.0
aF0.0
aF0.0
asg11
I01
sg12
g13
sg14
I01
sg15
g16
sa(dp1473
g2
F0.0
sg3
(lp1474
F-0.18244171476847457
aF0.6084171226746784
aF0.5177945011453088
aF3.130472462844351
aF9.239057009891153e-05
aF-0.00024076223744479397
asg5
I0
sg6
F0.5612334801762114
sg7
(F-1.019296948109762
F-1.4735377470599573
F-1.8888357321368616
F-1.3594372908221644
F1.5767037868499756
F0.5517117977142334
tp1475
sg9
(lp1476
F0.0
aF0.1
aF0.0
aF0.0
aF0.0
aF0.0
asg11
I01
sg12
g13
sg14
I01
sg15
g16
sa(dp1477
g2
F0.0
sg3
(lp1478
F-0.182301654920497
aF0.6188162850710168
aF0.5178140946643868
aF3.1308186952474095
aF0.0003151376115220606
aF-0.00029920944575504235
asg5
I0
sg6
F0.5612334801762114
sg7
(F-1.0282190481769007
F-1.490676228200094
F-1.8734000364886683
F-1.3573749701129358
F1.5766319036483765
F0.5428483486175537
tp1479
sg9
(lp1480
F0.0
aF0.1
aF0.0
aF0.0
aF0.0
aF0.0
asg11
I01
sg12
g13
sg14
I01
sg15
g16
sa(dp1481
g2
F0.0
sg3
(lp1482
F-0.18228154762437254
aF0.6285365465856888
aF0.5174675236852964
aF3.130547075853903
aF0.00011408971053537709
aF-0.00017876605085704968
asg5
I0
sg6
F0.5612334801762114
sg7
(F-1.036158863698141
F-1.5068915526019495
F-1.8590062300311487
F-1.355936352406637
F1.5765241384506226
F0.5347885489463806
tp1483
sg9
(lp1484
F0.0
aF0.1
aF0.0
aF0.0
aF0.0
aF0.0
asg11
I01
sg12
g13
sg14
I01
sg15
g16
sa(dp1485
g2
F0.0
sg3
(lp1486
F-0.18203723487616916
aF0.6389009421799206
aF0.5173998659115016
aF3.1306265242480475
aF7.254834310408904e-05
aF-0.00028538599531430643
asg5
I0
sg6
F0.5612334801762114
sg7
(F-1.0446737448321741
F-1.5238383452044886
F-1.843210522328512
F-1.3547852675067347
F1.5763686895370483
F0.526381254196167
tp1487
sg9
(lp1488
F0.0
aF0.1
aF0.0
aF0.0
aF0.0
aF0.0
asg11
I01
sg12
g13
sg14
I01
sg15
g16
sa(dp1489
g2
F0.0
sg3
(lp1490
F-0.18187794128941798
aF0.6494230118667524
aF0.517075230549862
aF3.130396216163905
aF-3.704311549850467e-05
aF-0.0002487283979057102
asg5
I0
sg6
F0.5612334801762114
sg7
(F-1.052960220967428
F-1.541145149861471
F-1.827151123677389
F-1.3538382689105433
F1.5763087272644043
F0.518058180809021
tp1491
sg9
(lp1492
F0.0
aF0.1
aF0.0
aF0.0
aF0.0
aF0.0
asg11
I01
sg12
g13
sg14
I01
sg15
g16
sa(dp1493
g2
F0.0
sg3
(lp1494
F-0.1816921404787294
aF0.6597686448731039
aF0.5170465066010443
aF3.1306226992255657
aF0.00013821738609621676
aF-0.00018925892967996754
asg5
I0
sg6
F0.5612334801762114
sg7
(F-1.0609124342547815
F-1.5579121748553675
F-1.810876194630758
F-1.3531068007098597
F1.5762728452682495
F0.5100463628768921
tp1495
sg9
(lp1496
F0.0
aF0.1
aF0.0
aF0.0
aF0.0
aF0.0
asg11
I01
sg12
g13
sg14
I01
sg15
g16
sa(dp1497
g2
F0.0
sg3
(lp1498
F-0.18160447386808748
aF0.6695123032056735
aF0.5166225926823451
aF3.1302294544349194
aF-0.00011073824830732561
aF-0.00027310948281222206
asg5
I0
sg6
F0.5612334801762114
sg7
(F-1.0680730978595179
F-1.5739124456988733
F-1.7956183592425745
F-1.3528674284564417
F1.5761768817901611
F0.5029700398445129
tp1499
sg9
(lp1500
F-0.0270599365234375
aF0.1
aF0.0
aF0.0
aF0.0
aF0.0
asg11
I01
sg12
g13
sg14
I01
sg15
g16
sa(dp1501
g2
F0.0
sg3
(lp1502
F-0.1829352435153078
aF0.6798844525566178
aF0.5168259652081769
aF3.1307669196560233
aF0.00019157696111927027
aF-0.00015626733053508048
asg5
I0
sg6
F0.5612334801762114
sg7
(F-1.073664967213766
F-1.5911358038531702
F-1.7779291311847132
F-1.3527472654925745
F1.5761289596557617
F0.4972614645957947
tp1503
sg9
(lp1504
F-0.06549072265625
aF0.08980407714843751
aF0.0
aF0.0
aF0.0
aF0.0
asg11
I01
sg12
g13
sg14
I01
sg15
g16
sa(dp1505
g2
F0.0
sg3
(lp1506
F-0.18730937721595112
aF0.6891791488565192
aF0.5163350044584705
aF3.1304333811291642
aF5.9908315018268595e-05
aF-0.0002516210438439148
asg5
I0
sg6
F0.5612334801762114
sg7
(F-1.0745156447040003
F-1.6082389990436
F-1.761090103779928
F-1.3528431097613733
F1.576164960861206
F0.4965057075023651
tp1507
sg9
(lp1508
F-0.0811767578125
aF0.0694122314453125
aF0.0
aF0.0
aF0.0
aF0.0
asg11
I01
sg12
g13
sg14
I01
sg15
g16
sa(dp1509
g2
F0.0
sg3
(lp1510
F-0.19505125428287295
aF0.6973273757914474
aF0.5163973217015411
aF3.130908051531338
aF0.00022107427198468201
aF-2.9521486353494744e-05
asg5
I0
sg6
F0.5612334801762114
sg7
(F-1.0703604857074183
F-1.6246350447284144
F-1.7438672224627894
F-1.3531549612628382
F1.5761170387268066
F0.5004395246505737
tp1511
sg9
(lp1512
F-0.08588256835937501
aF0.060784912109375006
aF0.0
aF0.0
aF0.0
aF0.0
asg11
I01
sg12
g13
sg14
I01
sg15
g16
sa(dp1513
g2
F0.0
sg3
(lp1514
F-0.2037800098051397
aF0.7041618021580581
aF0.5159548330447922
aF3.1305446728601845
aF-5.03703864062444e-06
aF-9.903410213301486e-05
asg5
I0
sg6
F0.5612334801762114
sg7
(F-1.0642412344561976
F-1.6396892706500452
F-1.7285121122943323
F-1.3538501898394983
F1.5761529207229614
F0.5066282749176025
tp1515
sg9
(lp1516
F-0.08745117187500001
aF0.056079101562500004
aF0.0
aF0.0
aF0.0
aF0.0
asg11
I01
sg12
g13
sg14
I01
sg15
g16
sa(dp1517
g2
F0.0
sg3
(lp1518
F-0.21217894293104125
aF0.7096253636083218
aF0.5161278604195128
aF3.130907101352372
aF0.00014181275083619026
aF-3.645683235494534e-05
asg5
I0
sg6
F0.5612334801762114
sg7
(F-1.0577505270587366
F-1.652154270802633
F-1.714797321950094
F-1.3546775023089808
F1.576164960861206
F0.5130566954612732
tp1519
sg9
(lp1520
F-0.08980407714843751
aF0.0498046875
aF0.0
aF0.0
aF0.0
aF0.0
asg11
I01
sg12
g13
sg14
I01
sg15
g16
sa(dp1521
g2
F0.0
sg3
(lp1522
F-0.2214952207935894
aF0.7151106140347412
aF0.5156994124252108
aF3.13047835482393
aF-0.000129097992980765
aF-0.00017957562204849584
asg5
I0
sg6
F0.5612334801762114
sg7
(F-1.0503376165973108
F-1.6654828230487269
F-1.700855557118551
F-1.3557565847979944
F1.5762128829956055
F0.5206127166748047
tp1523
sg9
(lp1524
F-0.09058837890625
aF0.0474517822265625
aF0.0
aF0.0
aF0.0
aF0.0
asg11
I01
sg12
g13
sg14
I01
sg15
g16
sa(dp1525
g2
F0.0
sg3
(lp1526
F-0.23029956094007656
aF0.7196024024137264
aF0.5157391261067896
aF3.130602662264269
aF1.622555576985091e-05
aF1.2347882681780956e-05
asg5
I0
sg6
F0.5612334801762114
sg7
(F-1.0430329481707972
F-1.676844898854391
F-1.68821889558901
F-1.356811825429098
F1.5763447284698486
F0.5277246236801147
tp1527
sg9
(lp1528
F-0.09137268066406251
aF0.0474517822265625
aF0.0
aF0.0
aF0.0
aF0.0
asg11
I01
sg12
g13
sg14
I01
sg15
g16
sa(dp1529
g2
F0.0
sg3
(lp1530
F-0.23972179410117933
aF0.7244950657674487
aF0.5156737153629625
aF3.1306591926116965
aF4.386357399884502e-06
aF-0.00029894908738512866
asg5
I0
sg6
F0.5612334801762114
sg7
(F-1.035428826008932
F-1.689287010823385
F-1.6743834654437464
F-1.3581183592425745
F1.5763806104660034
F0.5356401801109314
tp1531
sg9
(lp1532
F-0.09137268066406251
aF0.0474517822265625
aF0.0
aF0.0
aF0.0
aF0.0
asg11
I01
sg12
g13
sg14
I01
sg15
g16
sa(dp1533
g2
F0.0
sg3
(lp1534
F-0.24940791830957904
aF0.7293633491179531
aF0.5153769292364799
aF3.130273805016636
aF-0.00013047317200216493
aF-0.0002032026020729633
asg5
I0
sg6
F0.5612334801762114
sg7
(F-1.0276921431170862
F-1.7020638624774378
F-1.6603205839740198
F-1.3597610632525843
F1.5765360593795776
F0.5432801246643066
tp1535
sg9
(lp1536
F-0.09137268066406251
aF0.0474517822265625
aF0.0
aF0.0
aF0.0
aF0.0
asg11
I01
sg12
g13
sg14
I01
sg15
g16
sa(dp1537
g2
F0.0
sg3
(lp1538
F-0.2582399537155432
aF0.7337063660567723
aF0.5156377225750983
aF3.1307390197828306
aF0.00011730852193255074
aF-0.0002137269167497926
asg5
I0
sg6
F0.5612334801762114
sg7
(F-1.020710293446676
F-1.7133668104754847
F-1.6469767729388636
F-1.3612354437457483
F1.576572060585022
F0.5502725839614868
tp1539
sg9
(lp1540
F-0.09372558593750001
aF0.045098876953125006
aF0.0
aF0.0
aF0.0
aF0.0
asg11
I01
sg12
g13
sg14
I01
sg15
g16
sa(dp1541
g2
F0.0
sg3
(lp1542
F-0.2679588831704308
aF0.7384522098070343
aF0.5152323486619498
aF3.130443387108999
aF-0.00012055737481025059
aF-0.00022374551757016155
asg5
I0
sg6
F0.5612334801762114
sg7
(F-1.013165299092428
F-1.7262042204486292
F-1.6327093283282679
F-1.3629983107196253
F1.5765960216522217
F0.5578278303146362
tp1543
sg9
(lp1544
F-0.1
aF0.010589599609375
aF0.0
aF0.0
aF0.0
aF0.0
asg11
I01
sg12
g13
sg14
I01
sg15
g16
sa(dp1545
g2
F0.0
sg3
(lp1546
F-0.2774309381649244
aF0.7409630402609344
aF0.5152355424930573
aF3.1304794956274447
aF-7.893139114510117e-05
aF-9.31941161621549e-06
asg5
I0
sg6
F0.5612334801762114
sg7
(F-1.0045188109027308
F-1.7353971640216272
F-1.6219280401812952
F-1.3644846121417444
F1.5766918659210205
F0.566259503364563
tp1547
sg9
(lp1548
F-0.0686279296875
aF-0.06862487792968751
aF0.0
aF0.0
aF0.0
aF0.0
asg11
I01
sg12
g13
sg14
I01
sg15
g16
sa(dp1549
g2
F0.0
sg3
(lp1550
F-0.28682432980640915
aF0.7393815870133772
aF0.5153357776546261
aF3.1306806623519785
aF5.4480860065071916e-05
aF-1.3809677292703588e-05
asg5
I0
sg6
F0.5612334801762114
sg7
(F-0.9932368437396448
F-1.738382641469137
F-1.618286434804098
F-1.3648322264300745
F1.576799750328064
F0.5775456428527832
tp1551
sg9
(lp1552
F-0.0286285400390625
aF-0.09999694824218751
aF0.0
aF0.0
aF0.0
aF0.0
asg11
I01
sg12
g13
sg14
I01
sg15
g16
sa(dp1553
g2
F0.0
sg3
(lp1554
F-0.2914203770780447
aF0.7317482862162209
aF0.5153375192958214
aF3.130642599271355
aF2.9632583582671564e-05
aF-0.00013648403703635521
asg5
I0
sg6
F0.5612334801762114
sg7
(F-0.9828532377826136
F-1.7295244375811976
F-1.6287205854998987
F-1.3632381598102015
F1.5768955945968628
F0.5880516767501831
tp1555
sg9
(lp1556
F-0.027844238281250003
aF-0.09999694824218751
aF0.0
aF0.0
aF0.0
aF0.0
asg11
I01
sg12
g13
sg14
I01
sg15
g16
sa(dp1557
g2
F0.0
sg3
(lp1558
F-0.2939923340695939
aF0.7211811407614261
aF0.5155266533445081
aF3.1309347833651016
aF0.0002734588411806088
aF-0.00010361826469107114
asg5
I0
sg6
F0.5612334801762114
sg7
(F-0.9723733107196253
F-1.7149608770953577
F-1.6454432646380823
F-1.360636059437887
F1.5770270824432373
F0.5984982252120972
tp1559
sg9
(lp1560
F-0.027844238281250003
aF-0.09999694824218751
aF0.0
aF0.0
aF0.0
aF0.0
asg11
I01
sg12
g13
sg14
I01
sg15
g16
sa(dp1561
g2
F0.0
sg3
(lp1562
F-0.2966317084444373
aF0.7108113805432792
aF0.5149710831724815
aF3.1304410722087845
aF-8.247530822783795e-05
aF-0.0002739421934072505
asg5
I0
sg6
F0.5612334801762114
sg7
(F-0.9617374579059046
F-1.70117694536318
F-1.662177864705221
F-1.3582261244403284
F1.5771108865737915
F0.6093042492866516
tp1563
sg9
(lp1564
F-0.027844238281250003
aF-0.09999694824218751
aF0.0
aF0.0
aF0.0
aF0.0
asg11
I01
sg12
g13
sg14
I01
sg15
g16
sa(dp1565
g2
F0.0
sg3
(lp1566
F-0.29911535790721355
aF0.7011116546941965
aF0.5152563363128195
aF3.130984204958916
aF0.00027962876104443957
aF-0.000203474894760303
asg5
I0
sg6
F0.5612334801762114
sg7
(F-0.9515684286700647
F-1.68793231645693
F-1.6768515745746058
F-1.3560803572284144
F1.5771828889846802
F0.6194028258323669
tp1567
sg9
(lp1568
F-0.023922729492187503
aF-0.09999694824218751
aF0.0
aF0.0
aF0.0
aF0.0
asg11
I01
sg12
g13
sg14
I01
sg15
g16
sa(dp1569
g2
F0.0
sg3
(lp1570
F-0.301687470799334
aF0.6907725477895301
aF0.5146763148788212
aF3.130389907897174
aF-0.000105510314488329
aF-0.00019467569161030462
asg5
I0
sg6
F0.5612334801762114
sg7
(F-0.940596882496969
F-1.6743043104754847
F-1.6930339972125452
F-1.3541625181781214
F1.5773146152496338
F0.6303650140762329
tp1571
sg9
(lp1572
F-0.023922729492187503
aF-0.09999694824218751
aF0.0
aF0.0
aF0.0
aF0.0
asg11
I01
sg12
g13
sg14
I01
sg15
g16
sa(dp1573
g2
F0.0
sg3
(lp1574
F-0.3040177658743107
aF0.6803835884037389
aF0.5149118697947156
aF3.130842488028758
aF0.0002276260921331226
aF-0.00020901593097161282
asg5
I0
sg6
F0.5612334801762114
sg7
(F-0.9296129385577601
F-1.6600654760943812
F-1.708484951649801
F-1.3523162047015589
F1.5774105787277222
F0.6413631439208984
tp1575
sg9
(lp1576
F-0.015295410156250001
aF-0.09999694824218751
aF0.0
aF0.0
aF0.0
aF0.0
asg11
I01
sg12
g13
sg14
I01
sg15
g16
sa(dp1577
g2
F0.0
sg3
(lp1578
F-0.30577093043752424
aF0.6707832248951152
aF0.5144242338555394
aF3.1303933936311648
aF-8.538184012080158e-05
aF-0.00024645910300627433
asg5
I0
sg6
F0.5612334801762114
sg7
(F-0.9196952025042933
F-1.6470606962787073
F-1.7234457174884241
F-1.3508408705340784
F1.5775179862976074
F0.6513179540634155
tp1579
sg9
(lp1580
F0.0
aF-0.09999694824218751
aF0.0
aF0.0
aF0.0
aF0.0
asg11
I01
sg12
g13
sg14
I01
sg15
g16
sa(dp1581
g2
F0.0
sg3
(lp1582
F-0.30654581583308815
aF0.6604569845087815
aF0.5145881709812171
aF3.130740340365937
aF0.00018235929924927832
aF-0.00016254823945507848
asg5
I0
sg6
F0.5612334801762114
sg7
(F-0.9100282827960413
F-1.6319707075702112
F-1.7394831816302698
F-1.3493903318988245
F1.5776019096374512
F0.6609008312225342
tp1583
sg9
(lp1584
F0.0
aF-0.09999694824218751
aF0.0
aF0.0
aF0.0
aF0.0
asg11
I01
sg12
g13
sg14
I01
sg15
g16
sa(dp1585
g2
F0.0
sg3
(lp1586
F-0.306426006129461
aF0.6508804451695162
aF0.5143256966211865
aF3.130613274575147
aF3.883940958640976e-05
aF-0.00019700628026139455
asg5
I0
sg6
F0.5612334801762114
sg7
(F-0.9017871061908167
F-1.6176117102252405
F-1.7551372686969202
F-1.348227326069967
F1.5776379108428955
F0.6691766381263733
tp1587
sg9
(lp1588
F0.0
aF-0.09999694824218751
aF0.0
aF0.0
aF0.0
aF0.0
asg11
I01
sg12
g13
sg14
I01
sg15
g16
sa(dp1589
g2
F0.0
sg3
(lp1590
F-0.3063417210961625
aF0.6405389966387053
aF0.5143135489743512
aF3.130749270790552
aF0.00017124301632064827
aF-0.00016018560164328584
asg5
I0
sg6
F0.5612334801762114
sg7
(F-0.892623249684469
F-1.6019824186908167
F-1.7715099493609827
F-1.3472321669207972
F1.5777337551116943
F0.6783034205436707
tp1591
sg9
(lp1592
F0.0
aF-0.09999694824218751
aF0.0
aF0.0
aF0.0
aF0.0
asg11
I01
sg12
g13
sg14
I01
sg15
g16
sa(dp1593
g2
F0.0
sg3
(lp1594
F-0.3061286735663268
aF0.6301487828801949
aF0.5139850493359475
aF3.130459062111272
aF-0.00010511270020793237
aF-0.00015902763503195173
asg5
I0
sg6
F0.5612334801762114
sg7
(F-0.883315388356344
F-1.5863531271563929
F-1.7880614439593714
F-1.346644703541891
F1.5777816772460938
F0.6876102685928345
tp1595
sg9
(lp1596
F0.0
aF-0.09999694824218751
aF0.0
aF0.0
aF0.0
aF0.0
asg11
I01
sg12
g13
sg14
I01
sg15
g16
sa(dp1597
g2
F0.0
sg3
(lp1598
F-0.3059618409495523
aF0.620693823833895
aF0.5140092812081719
aF3.130609264477084
aF4.4970806534288166e-05
aF-0.0003742388187017771
asg5
I0
sg6
F0.5612334801762114
sg7
(F-0.8746069113360804
F-1.5719473997699183
F-1.802612606679098
F-1.3462250868426722
F1.5778775215148926
F0.6965336799621582
tp1599
sg9
(lp1600
F0.0
aF-0.09999694824218751
aF0.0
aF0.0
aF0.0
aF0.0
asg11
I01
sg12
g13
sg14
I01
sg15
g16
sa(dp1601
g2
F0.0
sg3
(lp1602
F-0.305821030777871
aF0.6102529827466908
aF0.5137836279632182
aF3.130516739971779
aF-6.164701954791671e-05
aF-0.0001456895625484808
asg5
I0
sg6
F0.5612334801762114
sg7
(F-0.864687744771139
F-1.5561860243426722
F-1.8186481634723108
F-1.3460214773761194
F1.5779374837875366
F0.7062243819236755
tp1603
sg9
(lp1604
F0.017645263671875
aF-0.09999694824218751
aF0.0
aF0.0
aF0.0
aF0.0
asg11
I01
sg12
g13
sg14
I01
sg15
g16
sa(dp1605
g2
F0.0
sg3
(lp1606
F-0.30506893471575586
aF0.6006848661372018
aF0.5137586850299812
aF3.130679049848391
aF9.445437042957864e-05
aF-7.124112730135996e-05
asg5
I0
sg6
F0.5612334801762114
sg7
(F-0.8560856024371546
F-1.541133228932516
F-1.8334386984454554
F-1.3459976355182093
F1.5780209302902222
F0.7147518992424011
tp1607
sg9
(lp1608
F0.0325469970703125
aF-0.09999694824218751
aF0.0
aF0.0
aF0.0
aF0.0
asg11
I01
sg12
g13
sg14
I01
sg15
g16
sa(dp1609
g2
F0.0
sg3
(lp1610
F-0.3021187536366533
aF0.5904308332871007
aF0.5134899141976509
aF3.130678307067238
aF0.00011141991728254827
aF-0.0003077310419608571
asg5
I0
sg6
F0.5612334801762114
sg7
(F-0.8491137663470667
F-1.5234068075763147
F-1.850910488759176
F-1.346189324055807
F1.5780929327011108
F0.7219600677490234
tp1611
sg9
(lp1612
F0.0450958251953125
aF-0.09136962890625
aF0.0
aF0.0
aF0.0
aF0.0
asg11
I01
sg12
g13
sg14
I01
sg15
g16
sa(dp1613
g2
F0.0
sg3
(lp1614
F-0.2979447897729063
aF0.5804215713063503
aF0.5134090007252321
aF3.1308167621975316
aF0.0002238193843333314
aF-0.00024211052416467987
asg5
I0
sg6
F0.5612334801762114
sg7
(F-0.8436148802386683
F-1.504902187977926
F-1.8684542814837855
F-1.3469322363482874
F1.5781288146972656
F0.727393388748169
tp1615
sg9
(lp1616
F0.059213256835937506
aF-0.083526611328125
aF0.0
aF0.0
aF0.0
aF0.0
asg11
I01
sg12
g13
sg14
I01
sg15
g16
sa(dp1617
g2
F0.0
sg3
(lp1618
F-0.2926255962678004
aF0.572248862211611
aF0.5131357813632695
aF3.130681342296628
aF6.167282693943441e-05
aF-0.0002562603360460891
asg5
I0
sg6
F0.5612334801762114
sg7
(F-0.8412664572345179
F-1.4883149305926722
F-1.88414174715151
F-1.3480237166034144
F1.5781168937683105
F0.7297561764717102
tp1619
sg9
(lp1620
F0.07882080078125
aF-0.067840576171875
aF0.0
aF0.0
aF0.0
aF0.0
asg11
I01
sg12
g13
sg14
I01
sg15
g16
sa(dp1621
g2
F0.0
sg3
(lp1622
F-0.28549822358847243
aF0.5643292438967014
aF0.513070343151122
aF3.1308089422437857
aF0.0002077090113946834
aF-0.000340952694917883
asg5
I0
sg6
F0.5612334801762114
sg7
(F-0.8413270155536097
F-1.4704697767840784
F-1.9003551642047327
F-1.3494628111468714
F1.5781408548355103
F0.7297801375389099
tp1623
sg9
(lp1624
F0.08587951660156251
aF-0.055291748046875006
aF0.0
aF0.0
aF0.0
aF0.0
asg11
I01
sg12
g13
sg14
I01
sg15
g16
sa(dp1625
g2
F0.0
sg3
(lp1626
F-0.27787914256013224
aF0.5583912398757228
aF0.5127846679994553
aF3.1305947365457727
aF4.79231649453836e-05
aF-0.0003016343158888405
asg5
I0
sg6
F0.5612334801762114
sg7
(F-0.8441899458514612
F-1.4553807417498987
F-1.9141138235675257
F-1.3510807196246546
F1.5781408548355103
F0.7268776893615723
tp1627
sg9
(lp1628
F0.0952911376953125
aF-0.0450958251953125
aF0.0
aF0.0
aF0.0
aF0.0
asg11
I01
sg12
g13
sg14
I01
sg15
g16
sa(dp1629
g2
F0.0
sg3
(lp1630
F-0.26849683291485477
aF0.5531098087287937
aF0.5128974396475531
aF3.1308742418222404
aF0.00037404168457810355
aF-0.00030696643801635023
asg5
I0
sg6
F0.5612334801762114
sg7
(F-0.8501079718219202
F-1.4396932760821741
F-1.927561108266012
F-1.3529389540301722
F1.5781527757644653
F0.7209646105766296
tp1631
sg9
(lp1632
F0.09999694824218751
aF-0.0309783935546875
aF0.0
aF0.0
aF0.0
aF0.0
asg11
I01
sg12
g13
sg14
I01
sg15
g16
sa(dp1633
g2
F0.0
sg3
(lp1634
F-0.25831440940037753
aF0.549352500664463
aF0.5124970573914316
aF3.1304212234204867
aF5.911737880272647e-05
aF-0.0002858627408978512
asg5
I0
sg6
F0.5612334801762114
sg7
(F-0.8589614073382776
F-1.4261630217181605
F-1.9396427313434046
F-1.3550012747394007
F1.5781408548355103
F0.7120895385742188
tp1635
sg9
(lp1636
F0.09999694824218751
aF-0.010586547851562501
aF0.0
aF0.0
aF0.0
aF0.0
asg11
I01
sg12
g13
sg14
I01
sg15
g16
sa(dp1637
g2
F0.0
sg3
(lp1638
F-0.24874260613096194
aF0.547471891065085
aF0.5126730389109672
aF3.130715931039341
aF0.0003770929097896186
aF-0.00021354036795673967
asg5
I0
sg6
F0.5612334801762114
sg7
(F-0.8693712393390101
F-1.4158805052386683
F-1.9480002562152308
F-1.35657245317568
F1.578104853630066
F0.7016071081161499
tp1639
sg9
(lp1640
F0.09999694824218751
aF0.0
aF0.0
aF0.0
aF0.0
aF0.0
asg11
I01
sg12
g13
sg14
I01
sg15
g16
sa(dp1641
g2
F0.0
sg3
(lp1642
F-0.23842732279750303
aF0.5469618167401743
aF0.5126308880009379
aF3.1308133461869003
aF0.0003627541175097335
aF-0.0002451307050241074
asg5
I0
sg6
F0.5612334801762114
sg7
(F-0.8825247923480433
F-1.4075749556170862
F-1.954932991658346
F-1.3579743544207972
F1.577925443649292
F0.688485860824585
tp1643
sg9
(lp1644
F0.09999694824218751
aF0.0
aF0.0
aF0.0
aF0.0
aF0.0
asg11
I01
sg12
g13
sg14
I01
sg15
g16
sa(dp1645
g2
F0.0
sg3
(lp1646
F-0.22803508526222102
aF0.5468180447159781
aF0.5124408471831594
aF3.1305178852363778
aF0.000226344275934805
aF-0.00021690642185452419
asg5
I0
sg6
F0.5612334801762114
sg7
(F-0.8964803854571741
F-1.4001572767840784
F-1.961254898701803
F-1.3594849745379847
F1.5778895616531372
F0.6745014190673828
tp1647
sg9
(lp1648
F0.09999694824218751
aF0.015295410156250001
aF0.0
aF0.0
aF0.0
aF0.0
asg11
I01
sg12
g13
sg14
I01
sg15
g16
sa(dp1649
g2
F0.0
sg3
(lp1650
F-0.21854140176270073
aF0.5472427817167957
aF0.5123554692144796
aF3.13039775864447
aF0.00011253079561446661
aF-0.0002596611774151069
asg5
I0
sg6
F0.5612334801762114
sg7
(F-0.9100521246539515
F-1.3944762388812464
F-1.9659608046161097
F-1.3607199827777308
F1.577757716178894
F0.6609727144241333
tp1651
sg9
(lp1652
F0.08587951660156251
aF0.05921630859375
aF0.0
aF0.0
aF0.0
aF0.0
asg11
I01
sg12
g13
sg14
I01
sg15
g16
sa(dp1653
g2
F0.0
sg3
(lp1654
F-0.20874615475920189
aF0.5508982936670483
aF0.5124420305116008
aF3.13064634117928
aF0.0002822687796450451
aF-0.00040561708961932687
asg5
I0
sg6
F0.5612334801762114
sg7
(F-0.9276970068560999
F-1.3941529432879847
F-1.9661038557635706
F-1.3607199827777308
F1.5775898694992065
F0.6434742212295532
tp1655
sg9
(lp1656
F0.04117431640625
aF0.09529418945312501
aF0.0
aF0.0
aF0.0
aF0.0
asg11
I01
sg12
g13
sg14
I01
sg15
g16
sa(dp1657
g2
F0.0
sg3
(lp1658
F-0.20260151204801805
aF0.5584504963105271
aF0.5123373818420293
aF3.1304474620149243
aF0.00012330799451362997
aF-0.00038295454025862204
asg5
I0
sg6
F0.5612334801762114
sg7
(F-0.9442499319659632
F-1.4031055609332483
F-1.9589436689959925
F-1.359293286000387
F1.5774345397949219
F0.6268989443778992
tp1659
sg9
(lp1660
F0.0
aF0.1
aF0.0
aF0.0
aF0.0
aF0.0
asg11
I01
sg12
g13
sg14
I01
sg15
g16
sa(dp1661
g2
F0.0
sg3
(lp1662
F-0.20023028689892053
aF0.5688091719227228
aF0.5120367986309159
aF3.1301268536421474
aF-5.1192320457243295e-05
aF-0.0002089226758121316
asg5
I0
sg6
F0.5612334801762114
sg7
(F-0.9580362478839319
F-1.419260327016012
F-1.9460485617267054
F-1.356488052998678
F1.5773506164550781
F0.6129384636878967
tp1663
sg9
(lp1664
F0.0
aF0.1
aF0.0
aF0.0
aF0.0
aF0.0
asg11
I01
sg12
g13
sg14
I01
sg15
g16
sa(dp1665
g2
F0.0
sg3
(lp1666
F-0.19988277752234
aF0.579293115864472
aF0.5120824658468869
aF3.1304759774757422
aF0.0001354997925500681
aF-0.0003254349081592011
asg5
I0
sg6
F0.5612334801762114
sg7
(F-0.968719784413473
F-1.4365413824664515
F-1.9314520994769495
F-1.353478733693258
F1.5772068500518799
F0.6023721098899841
tp1667
sg9
(lp1668
F0.0
aF0.1
aF0.0
aF0.0
aF0.0
aF0.0
asg11
I01
sg12
g13
sg14
I01
sg15
g16
sa(dp1669
g2
F0.0
sg3
(lp1670
F-0.19974712982709225
aF0.588989249559437
aF0.5116493684993472
aF3.1301378713631505
aF-0.00013404826629749418
aF-0.0002888518490623465
asg5
I0
sg6
F0.5612334801762114
sg7
(F-0.9780505339251917
F-1.4528287092791956
F-1.9180892149554651
F-1.3510449568377894
F1.5770869255065918
F0.5930052995681763
tp1671
sg9
(lp1672
F0.0
aF0.1
aF0.0
aF0.0
aF0.0
aF0.0
asg11
I01
sg12
g13
sg14
I01
sg15
g16
sa(dp1673
g2
F0.0
sg3
(lp1674
F-0.1996622842518381
aF0.5994492522336572
aF0.5116645574639642
aF3.1303731072246403
aF3.284347878891733e-05
aF-0.00023898651391993518
asg5
I0
sg6
F0.5612334801762114
sg7
(F-0.9877398649798792
F-1.470074478779928
F-1.9029300848590296
F-1.3487308661090296
F1.5770031213760376
F0.5832662582397461
tp1675
sg9
(lp1676
F-0.0129425048828125
aF0.1
aF0.0
aF0.0
aF0.0
aF0.0
asg11
I01
sg12
g13
sg14
I01
sg15
g16
sa(dp1677
g2
F0.0
sg3
(lp1678
F-0.20048633763157464
aF0.6091053817167824
aF0.5114322114745794
aF3.1303026255189326
aF-1.3640502756481666e-05
aF-0.00013222017007011994
asg5
I0
sg6
F0.5612334801762114
sg7
(F-0.9952009359942835
F-1.4865415732013147
F-1.888524357472555
F-1.3468006292926233
F1.5769315958023071
F0.5756986141204834
tp1679
sg9
(lp1680
F-0.013726806640625
aF0.1
aF0.0
aF0.0
aF0.0
aF0.0
asg11
I01
sg12
g13
sg14
I01
sg15
g16
sa(dp1681
g2
F0.0
sg3
(lp1682
F-0.20179160028716825
aF0.619599086916332
aF0.5113047504518714
aF3.13039497719903
aF5.599814122555093e-05
aF-0.00019356310801427383
asg5
I0
sg6
F0.5612334801762114
sg7
(F-1.0025184790240687
F-1.5044825712787073
F-1.8723104635821741
F-1.3450024763690394
F1.576871633529663
F0.5684425234794617
tp1683
sg9
(lp1684
F-0.013726806640625
aF0.1
aF0.0
aF0.0
aF0.0
aF0.0
asg11
I01
sg12
g13
sg14
I01
sg15
g16
sa(dp1685
g2
F0.0
sg3
(lp1686
F-0.2030588574230881
aF0.629165991843923
aF0.511197600019893
aF3.1305039041646445
aF6.964694684915723e-05
aF-3.982471292055689e-05
asg5
I0
sg6
F0.5612334801762114
sg7
(F-1.0088780562030237
F-1.5207822958575647
F-1.8572576681720179
F-1.3436954657184046
F1.5767637491226196
F0.5619298219680786
tp1687
sg9
(lp1688
F-0.016864013671875
aF0.1
aF0.0
aF0.0
aF0.0
aF0.0
asg11
I01
sg12
g13
sg14
I01
sg15
g16
sa(dp1689
g2
F0.0
sg3
(lp1690
F-0.204424214124777
aF0.6396809919132583
aF0.5110541815402384
aF3.130549310772725
aF0.00011334231750501963
aF-0.0003419086504749187
asg5
I0
sg6
F0.5612334801762114
sg7
(F-1.0157044569598597
F-1.5386040846454065
F-1.840503994618551
F-1.3426044623004358
F1.5767158269882202
F0.5554055571556091
tp1691
sg9
(lp1692
F-0.027844238281250003
aF0.1
aF0.0
aF0.0
aF0.0
aF0.0
asg11
I01
sg12
g13
sg14
I01
sg15
g16
sa(dp1693
g2
F0.0
sg3
(lp1694
F-0.2067029105902007
aF0.6500259744089124
aF0.5109399469584788
aF3.1306149808691948
aF0.00015730463652353734
aF-0.00017811127967810403
asg5
I0
sg6
F0.5612334801762114
sg7
(F-1.0210097471820276
F-1.556509796773092
F-1.8232710997210901
F-1.3418849150287073
F1.5766679048538208
F0.5499365925788879
tp1695
sg9
(lp1696
F-0.0396087646484375
aF0.1
aF0.0
aF0.0
aF0.0
aF0.0
asg11
I01
sg12
g13
sg14
I01
sg15
g16
sa(dp1697
g2
F0.0
sg3
(lp1698
F-0.20993647108369395
aF0.6598012892934029
aF0.5105685866923201
aF3.1302826388417633
aF-9.186192795365182e-05
aF-0.00024476672291839696
asg5
I0
sg6
F0.5612334801762114
sg7
(F-1.0244949499713343
F-1.5740445295916956
F-1.8064211050616663
F-1.3416336218463343
F1.5765960216522217
F0.5465185046195984
tp1699
sg9
(lp1700
F-0.051373291015625
aF0.1
aF0.0
aF0.0
aF0.0
aF0.0
asg11
I01
sg12
g13
sg14
I01
sg15
g16
sa(dp1701
g2
F0.0
sg3
(lp1702
F-0.21449982189466102
aF0.6700819645390838
aF0.5104646605508646
aF3.1303522209760763
aF-2.6027296871082e-05
aF-0.00026576509614142853
asg5
I0
sg6
F0.5612334801762114
sg7
(F-1.026602570210592
F-1.592813793812887
F-1.7875946203814905
F-1.341609303151266
F1.5765960216522217
F0.544431746006012
tp1703
sg9
(lp1704
F-0.06549072265625
aF0.09058837890625
aF0.0
aF0.0
aF0.0
aF0.0
asg11
I01
sg12
g13
sg14
I01
sg15
g16
sa(dp1705
g2
F0.0
sg3
(lp1706
F-0.22082444386540642
aF0.6800965498059272
aF0.5102359240897998
aF3.1304769602015825
aF5.9986543367315495e-05
aF-0.0002541748703826153
asg5
I0
sg6
F0.5612334801762114
sg7
(F-1.0262792746173304
F-1.6120145956622522
F-1.7681687513934534
F-1.3416813055621546
F1.5766079425811768
F0.5447433590888977
tp1707
sg9
(lp1708
F-0.082745361328125
aF0.0725494384765625
aF0.0
aF0.0
aF0.0
aF0.0
asg11
I01
sg12
g13
sg14
I01
sg15
g16
sa(dp1709
g2
F0.0
sg3
(lp1710
F-0.2282169498159777
aF0.6875785966188365
aF0.510064134310541
aF3.1305433041902173
aF7.103240801400897e-06
aF-0.00013889376269271285
asg5
I0
sg6
F0.5612334801762114
sg7
(F-1.022806469594137
F-1.6277039686786097
F-1.7519515196429651
F-1.3421605269061487
F1.5765600204467773
F0.548101544380188
tp1711
sg9
(lp1712
F-0.09764709472656251
aF0.0427459716796875
aF0.0
aF0.0
aF0.0
aF0.0
asg11
I01
sg12
g13
sg14
I01
sg15
g16
sa(dp1713
g2
F0.0
sg3
(lp1714
F-0.23797043395159972
aF0.6931818939649633
aF0.5099923420155176
aF3.1306236926928634
aF2.6261371508149236e-06
aF-4.145068805424548e-05
asg5
I0
sg6
F0.5612334801762114
sg7
(F-1.0152490774737757
F-1.6416667143451136
F-1.737159554158346
F-1.3428805510150355
F1.576583981513977
F0.5555617213249207
tp1715
sg9
(lp1716
F-0.1
aF0.0
aF0.0
aF0.0
aF0.0
aF0.0
asg11
I01
sg12
g13
sg14
I01
sg15
g16
sa(dp1717
g2
F0.0
sg3
(lp1718
F-0.24836752540041115
aF0.6951899939427285
aF0.5100332275417102
aF3.1307981570247296
aF6.738612984288095e-05
aF8.720170441309148e-05
asg5
I0
sg6
F0.5612334801762114
sg7
(F-1.0044706503497522
F-1.650428597127096
F-1.727649990712301
F-1.343384091054098
F1.576643943786621
F0.5662115812301636
tp1719
sg9
(lp1720
F-0.1
aF-0.023919677734375002
aF0.0
aF0.0
aF0.0
aF0.0
asg11
I01
sg12
g13
sg14
I01
sg15
g16
sa(dp1721
g2
F0.0
sg3
(lp1722
F-0.2579780791353283
aF0.6944400093244856
aF0.5099378797097802
aF3.130734062949681
aF5.510298741289537e-05
aF-1.427369335516578e-05
asg5
I0
sg6
F0.5612334801762114
sg7
(F-0.9927218596087855
F-1.6547310988055628
F-1.7231343428241175
F-1.3435877005206507
F1.5767757892608643
F0.5780613422393799
tp1723
sg9
(lp1724
F-0.08196105957031251
aF-0.074114990234375
aF0.0
aF0.0
aF0.0
aF0.0
asg11
I01
sg12
g13
sg14
I01
sg15
g16
sa(dp1725
g2
F0.0
sg3
(lp1726
F-0.26737095299541697
aF0.68868114364958
aF0.5100785707581204
aF3.1308644001066597
aF0.00010819437496751994
aF8.483692194607054e-05
asg5
I0
sg6
F0.5612334801762114
sg7
(F-0.9774749914752405
F-1.6512797514544886
F-1.726692024861471
F-1.3432520071612757
F1.5768835544586182
F0.5932090282440186
tp1727
sg9
(lp1728
F-0.015295410156250001
aF-0.09999694824218751
aF0.0
aF0.0
aF0.0
aF0.0
asg11
I01
sg12
g13
sg14
I01
sg15
g16
sa(dp1729
g2
F0.0
sg3
(lp1730
F-0.272292554370613
aF0.6803536777141924
aF0.5099560119432694
aF3.1306052533225364
aF-1.552899608250507e-05
aF-0.00018446818448338156
asg5
I0
sg6
F0.5612334801762114
sg7
(F-0.9652822653399866
F-1.6415470282184046
F-1.7374113241778772
F-1.3424723784076136
F1.5770390033721924
F0.6056703925132751
tp1731
sg9
(lp1732
F0.0
aF-0.09999694824218751
aF0.0
aF0.0
aF0.0
aF0.0
asg11
I01
sg12
g13
sg14
I01
sg15
g16
sa(dp1733
g2
F0.0
sg3
(lp1734
F-0.2738037795102647
aF0.6700465604901349
aF0.5098012643459812
aF3.1305056737644574
aF-0.00010925684351370164
aF-0.00020995132748273515
asg5
I0
sg6
F0.5612334801762114
sg7
(F-0.9552214781390589
F-1.626744572316305
F-1.7535083929644983
F-1.3412497679339808
F1.5771108865737915
F0.615756630897522
tp1735
sg9
(lp1736
F0.0
aF-0.09999694824218751
aF0.0
aF0.0
aF0.0
aF0.0
asg11
I01
sg12
g13
sg14
I01
sg15
g16
sa(dp1737
g2
F0.0
sg3
(lp1738
F-0.2736038373196347
aF0.6605881540983747
aF0.5097616424276685
aF3.1306808292822903
aF3.479103453694109e-05
aF-0.00023254266993474665
asg5
I0
sg6
F0.5612334801762114
sg7
(F-0.9476278463946741
F-1.612086598073141
F-1.769078556691305
F-1.3400629202472132
F1.5771948099136353
F0.6233725547790527
tp1739
sg9
(lp1740
F0.047448730468750006
aF-0.09215393066406251
aF0.0
aF0.0
aF0.0
aF0.0
asg11
I01
sg12
g13
sg14
I01
sg15
g16
sa(dp1741
g2
F0.0
sg3
(lp1742
F-0.27166513501726164
aF0.6503535853034068
aF0.5093955853770531
aF3.1304350215843364
aF-8.115800575208334e-05
aF-0.0002776353121551421
asg5
I0
sg6
F0.5612334801762114
sg7
(F-0.9412315527545374
F-1.5952704588519495
F-1.7871153990374964
F-1.3390677610980433
F1.5773026943206787
F0.6298133730888367
tp1743
sg9
(lp1744
F0.099212646484375
aF-0.045880126953125
aF0.0
aF0.0
aF0.0
aF0.0
asg11
I01
sg12
g13
sg14
I01
sg15
g16
sa(dp1745
g2
F0.0
sg3
(lp1746
F-0.2650836875198917
aF0.6427977933509041
aF0.5093142149403019
aF3.1304913543580537
aF1.7740963012523447e-05
aF-0.000360170863277752
asg5
I0
sg6
F0.5612334801762114
sg7
(F-0.9425252119647425
F-1.5793903509723108
F-1.803450886403219
F-1.3385165373431605
F1.5773385763168335
F0.6286018490791321
tp1747
sg9
(lp1748
F0.0
aF0.0
aF0.0
aF0.0
aF0.0
aF0.0
asg11
I01
sg12
g13
sg14
I01
sg15
g16
sa(dp1749
g2
F0.0
sg3
(lp1750
F-0.2586643266067604
aF0.6393054535763212
aF0.5091376074216444
aF3.130350560336026
aF1.3328743376487926e-05
aF-0.00030667394834393846
asg5
I0
sg6
F0.5612334801762114
sg7
(F-0.9472206274615687
F-1.5699694792376917
F-1.8131993452655237
F-1.3383367697345179
F1.5773745775222778
F0.6238523125648499
tp1751
sg9
(lp1752
F0.0
aF0.0
aF0.0
aF0.0
aF0.0
aF0.0
asg11
I01
sg12
g13
sg14
I01
sg15
g16
sa(dp1753
g2
F0.0
sg3
(lp1754
F-0.2566404737899648
aF0.6387722904215783
aF0.5091567285704569
aF3.1305118444230735
aF0.00012206211458607931
aF-0.00028016739833654724
asg5
I0
sg6
F0.5612334801762114
sg7
(F-0.9492090384112757
F-1.567836109791891
F-1.81533128419985
F-1.3381570021258753
F1.5773506164550781
F0.6218374967575073
tp1755
sg9
(lp1756
F0.0
aF0.0
aF0.0
aF0.0
aF0.0
aF0.0
asg11
I01
sg12
g13
sg14
I01
sg15
g16
sa(dp1757
g2
F0.0
sg3
(lp1758
F-0.2567272854289002
aF0.6388244771168815
aF0.509050049316562
aF3.1304145638728316
aF5.220456215752071e-05
aF-0.00023207418435879253
asg5
I0
sg6
F0.5612334801762114
sg7
(F-0.9491489569293421
F-1.5680277983294886
F-1.8153074423419397
F-1.3381088415728968
F1.5773506164550781
F0.6218494772911072
tp1759
sg9
(lp1760
F0.0
aF0.0
aF0.0
aF0.0
aF0.0
aF0.0
asg11
I01
sg12
g13
sg14
I01
sg15
g16
sa(dp1761
g2
F0.0
sg3
(lp1762
F-0.25677335970131876
aF0.6388235818251834
aF0.5090475589143423
aF3.1304575902518237
aF5.3697662079023575e-05
aF-0.00015979409764863218
asg5
I0
sg6
F0.5612334801762114
sg7
(F-0.9490888754474085
F-1.5680516401873987
F-1.8152955214129847
F-1.3380611578570765
F1.5773266553878784
F0.6218374967575073
tp1763
sg9
(lp1764
F0.0
aF0.0
aF0.0
aF0.0
aF0.0
aF0.0
asg11
I01
sg12
g13
sg14
I01
sg15
g16
sa(dp1765
g2
F0.0
sg3
(lp1766
F-0.25676409073669304
aF0.6388224476931842
aF0.5091197454631762
aF3.130538238158432
aF0.0001262979804216007
aF-0.00015983484741283926
asg5
I0
sg6
F0.5612334801762114
sg7
(F-0.9491007963763636
F-1.5680039564715784
F-1.815235439931051
F-1.3380611578570765
F1.5773385763168335
F0.6218255162239075
tp1767
sg9
(lp1768
F0.0
aF0.0
aF0.0
aF0.0
aF0.0
aF0.0
asg11
I01
sg12
g13
sg14
I01
sg15
g16
sa(dp1769
g2
F0.0
sg3
(lp1770
F-0.25676314705930764
aF0.6388154314716288
aF0.5091302563347746
aF3.1304978880582333
aF0.00014166961737162542
aF-0.0001601615059739007
asg5
I0
sg6
F0.5612334801762114
sg7
(F-0.9491007963763636
F-1.5679920355426233
F-1.815223519002096
F-1.3381088415728968
F1.5773745775222778
F0.6218255162239075
tp1771
sg9
(lp1772
F0.0
aF0.0
aF0.0
aF0.0
aF0.0
aF0.0
asg11
I01
sg12
g13
sg14
I01
sg15
g16
sa.