(lp0
(dp1
S'start_gripper_pos'
p2
F0.0
sS'curr_pos'
p3
(lp4
F0.16448314144969398
aF0.45945885105137
aF0.5960485278175987
aF3.1309117056502154
aF0.00015904236441239948
aF-0.00010765642931628092
asS'gripper_ac'
p5
I0
sS'curr_gripper_pos'
p6
F0.0
sS'curr_q'
p7
(F-1.572005573903219
F-1.190240208302633
F-1.9619019667254847
F-1.57092792192568
F1.5709435939788818
F-0.0011032263385217789
tp8
sS'xdot_h'
p9
(lp10
F0.08078613281250001
aF0.0
aF0.0
aF0.0
aF0.0
aF0.0
asS'trans_mode'
p11
I01
sS'start_pos'
p12
(lp13
F0.1640211935034053
aF0.4594797794681329
aF0.5962037482894686
aF3.1310188127461176
aF0.00014637214086150502
aF-0.0002895162128952655
asS'slow_mode'
p14
I00
sS'start_q'
p15
(F-1.5710356871234339
F-1.18996507326235
F-1.9617818037616175
F-1.571155850087301
F1.570955514907837
F0.000107858024421148
tp16
sa(dp17
g2
F0.0
sg3
(lp18
F0.17066957123168466
aF0.45949404379660896
aF0.5959621497526053
aF3.130791933950726
aF0.0001828957970415049
aF-0.0002096759471217021
asg5
I0
sg6
F0.0
sg7
(F-1.5854061285602015
F-1.1942909399615687
F-1.959578816090719
F-1.5693214575396937
F1.5708236694335938
F-0.014401261006490529
tp19
sg9
(lp20
F0.192156982421875
aF0.0
aF-0.049407958984375
aF0.0
aF0.0
aF0.0
asg11
I01
sg12
g13
sg14
I00
sg15
g16
sa(dp21
g2
F0.0
sg3
(lp22
F0.1856688673839536
aF0.45918686122599267
aF0.5926665164235361
aF3.1309606895851503
aF0.0001862833556055803
aF-0.0003652515033698573
asg5
I0
sg6
F0.0
sg7
(F-1.6176264921771448
F-1.2039607206927698
F-1.95945912996401
F-1.5595982710467737
F1.5704885721206665
F-0.04646426836122686
tp23
sg9
(lp24
F0.2
aF0.0
aF-0.19999389648437502
aF0.0
aF0.0
aF0.0
asg11
I01
sg12
g13
sg14
I00
sg15
g16
sa(dp25
g2
F0.0
sg3
(lp26
F0.20674966916575183
aF0.45806604714237537
aF0.5739775360964187
aF3.1309232293507088
aF0.0002700708890425551
aF-0.0003006501378064594
asg5
I0
sg6
F0.0
sg7
(F-1.6623476187335413
F-1.2189276854144495
F-1.9828069845782679
F-1.521303955708639
F1.570093035697937
F-0.09124833742250615
tp27
sg9
(lp28
F0.2
aF0.0
aF-0.19999389648437502
aF0.0
aF0.0
aF0.0
asg11
I01
sg12
g13
sg14
I00
sg15
g16
sa(dp29
g2
F0.0
sg3
(lp30
F0.2260808581759993
aF0.4567504042471579
aF0.554385930107428
aF3.1310107498472477
aF0.00026932597410623366
aF-0.00023171551618781787
asg5
I0
sg6
F0.0
sg7
(F-1.7026999632464808
F-1.2350695768939417
F-2.006873432789938
F-1.480971638356344
F1.569674015045166
F-0.13166743913759404
tp31
sg9
(lp32
F0.099609375
aF0.0
aF-0.19999389648437502
aF0.0
aF0.0
aF0.0
asg11
I01
sg12
g13
sg14
I00
sg15
g16
sa(dp33
g2
F0.0
sg3
(lp34
F0.24124048801866954
aF0.4554419366013142
aF0.5334502852734532
aF3.1309137084081806
aF0.0003153825408323214
aF-0.00014833903921764502
asg5
I0
sg6
F0.0
sg7
(F-1.7339232603656214
F-1.2505877653705042
F-2.033583943043844
F-1.438805882130758
F1.5693747997283936
F-0.1629727522479456
tp35
sg9
(lp36
F0.040002441406250006
aF-0.04627685546875
aF-0.19999389648437502
aF0.0
aF0.0
aF0.0
asg11
I01
sg12
g13
sg14
I00
sg15
g16
sa(dp37
g2
F0.0
sg3
(lp38
F0.248266266645762
aF0.4520261081022066
aF0.5125570334555604
aF3.1305744890380853
aF0.00038369682950745697
aF-7.664064961143125e-05
asg5
I0
sg6
F0.0
sg7
(F-1.7492478529559534
F-1.2574661413775843
F-2.0659573713885706
F-1.399876896535055
F1.5692189931869507
F-0.1783683935748499
tp39
sg9
(lp40
F-0.12940673828125002
aF0.0
aF-0.19999389648437502
aF0.0
aF0.0
aF0.0
asg11
I01
sg12
g13
sg14
I00
sg15
g16
sa(dp41
g2
F0.0
sg3
(lp42
F0.24354681643985654
aF0.44798112313444394
aF0.4935822831218283
aF3.130857777014918
aF0.0003073395930871126
aF6.013693973757593e-05
asg5
I0
sg6
F0.0
sg7
(F-1.7411373297320765
F-1.2531521956073206
F-2.1026862303363245
F-1.3671820799456995
F1.5692788362503052
F-0.17039472261537725
tp43
sg9
(lp44
F-0.19999389648437502
aF0.0
aF-0.19999389648437502
aF0.0
aF0.0
aF0.0
asg11
I01
sg12
g13
sg14
I00
sg15
g16
sa(dp45
g2
F0.0
sg3
(lp46
F0.2272210321452572
aF0.44624804963218573
aF0.4730132607490033
aF3.1310398987119283
aF6.84534275359092e-05
aF-0.00014592557470936095
asg5
I0
sg6
F0.0
sg7
(F-1.7079642454730433
F-1.2441285292254847
F-2.1455305258380335
F-1.3331931273089808
F1.569422721862793
F-0.1370151678668421
tp47
sg9
(lp48
F-0.19999389648437502
aF0.0
aF-0.19999389648437502
aF0.0
aF0.0
aF0.0
asg11
I01
sg12
g13
sg14
I00
sg15
g16
sa(dp49
g2
F0.0
sg3
(lp50
F0.2079620488570929
aF0.4452312649477593
aF0.4539527559508319
aF3.131306034101688
aF-9.426409144287078e-06
aF6.176109513962561e-05
asg5
I0
sg6
F0.0
sg7
(F-1.6674321333514612
F-1.2350333372699183
F-2.1858952681170862
F-1.3016980330096644
F1.5697938203811646
F-0.09669238725771123
tp51
sg9
(lp52
F-0.19999389648437502
aF0.0
aF-0.19999389648437502
aF0.0
aF0.0
aF0.0
asg11
I01
sg12
g13
sg14
I00
sg15
g16
sa(dp53
g2
F0.0
sg3
(lp54
F0.1874791901862174
aF0.4439159468180455
aF0.43307017789089175
aF3.1308631169990666
aF-3.603729683285067e-05
aF-0.00018274652644143647
asg5
I0
sg6
F0.0
sg7
(F-1.6231420675860804
F-1.2278793493853968
F-2.228448216115133
F-1.2667744795428675
F1.5702009201049805
F-0.05215961137880498
tp55
sg9
(lp56
F-0.19999389648437502
aF0.0
aF-0.19999389648437502
aF0.0
aF0.0
aF0.0
asg11
I01
sg12
g13
sg14
I00
sg15
g16
sa(dp57
g2
F0.0
sg3
(lp58
F0.16746177047219318
aF0.44207582940119866
aF0.4125416299729662
aF3.1310646692021895
aF4.9809026029583705e-05
aF-0.00012756934741528557
asg5
I0
sg6
F0.0
sg7
(F-1.5787418524371546
F-1.2226422468768519
F-2.2696712652789515
F-1.2306035200702112
F1.5707638263702393
F-0.007818047200338185
tp59
sg9
(lp60
F0.0
aF-0.15607910156250002
aF-0.19999389648437502
aF0.0
aF0.0
aF0.0
asg11
I01
sg12
g13
sg14
I00
sg15
g16
sa(dp61
g2
F0.0
sg3
(lp62
F0.16063343398042576
aF0.43126793746666664
aF0.3934001653562653
aF3.1311412990247454
aF-3.316391732531036e-05
aF-0.0004124955792885593
asg5
I0
sg6
F0.0
sg7
(F-1.5631268660174769
F-1.2103961149798792
F-2.3128913084613245
F-1.1995528380023401
F1.5708476305007935
F0.008081861771643162
tp63
sg9
(lp64
F0.066668701171875
aF-0.2
aF-0.19999389648437502
aF0.0
aF0.0
aF0.0
asg11
I01
sg12
g13
sg14
I00
sg15
g16
sa(dp65
g2
F0.0
sg3
(lp66
F0.16632024838455806
aF0.41076244148847485
aF0.3726167379998634
aF3.1311113734273737
aF8.138126609103544e-05
aF-0.0006363564378690876
asg5
I0
sg6
F0.0
sg7
(F-1.576587978993551
F-1.1903241316424769
F-2.36391264597048
F-1.168633762990133
F1.5708236694335938
F-0.005155865346090138
tp67
sg9
(lp68
F0.0
aF0.0
aF-0.19999389648437502
aF0.0
aF0.0
aF0.0
asg11
I01
sg12
g13
sg14
I00
sg15
g16
sa(dp69
g2
F0.0
sg3
(lp70
F0.17040275159801954
aF0.4012199671965223
aF0.3538669499573055
aF3.131593152113557
aF0.0001834666145855089
aF-0.0004465826448955033
asg5
I0
sg6
F0.0
sg7
(F-1.5868538061725062
F-1.192026440297262
F-2.3991225401507776
F-1.1312411467181605
F1.5708236694335938
F-0.015611950551168263
tp71
sg9
(lp72
F0.0
aF0.0
aF-0.19999389648437502
aF0.0
aF0.0
aF0.0
asg11
I01
sg12
g13
sg14
I00
sg15
g16
sa(dp73
g2
F0.0
sg3
(lp74
F0.1703836000681613
aF0.4005126433111748
aF0.33332549097375236
aF3.1314349533770076
aF0.00011599561237012254
aF-0.00021844019546172735
asg5
I0
sg6
F0.0
sg7
(F-1.586818043385641
F-1.2135117689715784
F-2.427246634160177
F-1.0817888418780726
F1.5707517862319946
F-0.01580363908876592
tp75
sg9
(lp76
F0.0
aF0.0
aF-0.19999389648437502
aF0.0
aF0.0
aF0.0
asg11
I01
sg12
g13
sg14
I00
sg15
g16
sa(dp77
g2
F0.0
sg3
(lp78
F0.17034020142312284
aF0.3996580218437627
aF0.3142217307200167
aF3.1309867610211706
aF0.0001821551781870065
aF-0.00024296691470345207
asg5
I0
sg6
F0.0
sg7
(F-1.5867579619037073
F-1.2358000914203089
F-2.4527254740344446
F-1.0344708601581019
F1.5708117485046387
F-0.01571971574892217
tp79
sg9
(lp80
F0.0
aF0.0
aF-0.19999389648437502
aF0.0
aF0.0
aF0.0
asg11
I01
sg12
g13
sg14
I00
sg15
g16
sa(dp81
g2
F0.0
sg3
(lp82
F0.1703317492694509
aF0.3987591679736857
aF0.2936495588497937
aF3.1309007496543324
aF0.00017133884851649553
aF-0.00026669506937905595
asg5
I0
sg6
F0.0
sg7
(F-1.5867698828326624
F-1.2630141417132776
F-2.4792442957507532
F-0.9808238188373011
F1.570799708366394
F-0.01570779481996709
tp83
sg9
(lp84
F0.0
aF0.0
aF-0.19999389648437502
aF0.0
aF0.0
aF0.0
asg11
I01
sg12
g13
sg14
I00
sg15
g16
sa(dp85
g2
F0.0
sg3
(lp86
F0.17030057996168413
aF0.3977741009550061
aF0.2732110188082039
aF3.1310048764278475
aF0.00018174415680465383
aF-0.00023104202015142747
asg5
I0
sg6
F0.0
sg7
(F-1.5867341200457972
F-1.2933085600482386
F-2.504686419163839
F-0.9249833265887659
F1.5708117485046387
F-0.01570779481996709
tp87
sg9
(lp88
F0.0
aF0.0
aF-0.1513671875
aF0.0
aF0.0
aF0.0
asg11
I01
sg12
g13
sg14
I00
sg15
g16
sa(dp89
g2
F0.0
sg3
(lp90
F0.17029870832762078
aF0.3970586916576808
aF0.2571764418228884
aF3.1311438551768327
aF0.00017943648021384736
aF-0.0002667790492369325
asg5
I0
sg6
F0.0
sg7
(F-1.5867579619037073
F-1.3198044935809534
F-2.5237491766559046
F-0.8792856375323694
F1.5708117485046387
F-0.015695873891012013
tp91
sg9
(lp92
F0.0
aF0.0
aF0.0
aF0.0
aF0.0
aF0.0
asg11
I01
sg12
g13
sg14
I00
sg15
g16
sa(dp93
g2
F0.0
sg3
(lp94
F0.17029904956372344
aF0.39671222763640296
aF0.2529982134026131
aF3.131118396968813
aF0.0001677951152669466
aF-0.0002785784249045471
asg5
I0
sg6
F0.0
sg7
(F-1.5867698828326624
F-1.3267548719989222
F-2.528799358998434
F-0.8673103491412562
F1.570799708366394
F-0.015695873891012013
tp95
sg9
(lp96
F0.0
aF0.0
aF0.0
aF0.0
aF0.0
aF0.0
asg11
I01
sg12
g13
sg14
I00
sg15
g16
sa(dp97
g2
F0.0
sg3
(lp98
F0.17028512928058412
aF0.39657508174179135
aF0.2531692866233299
aF3.1310219823701506
aF0.0001930190511312478
aF-0.00027884666008919643
asg5
I0
sg6
F0.0
sg7
(F-1.5867460409747522
F-1.3261321226703089
F-2.528787914906637
F-0.8680413405047815
F1.5708236694335938
F-0.015672032033101857
tp99
sg9
(lp100
F0.0
aF0.0
aF0.0
aF0.0
aF0.0
aF0.0
asg11
I01
sg12
g13
sg14
I00
sg15
g16
sa(dp101
g2
F0.0
sg3
(lp102
F0.17027730415875414
aF0.39661246589527654
aF0.2532304709273172
aF3.130530713600625
aF0.00018879660225818817
aF-0.0002549696314062562
asg5
I0
sg6
F0.0
sg7
(F-1.586722199116842
F-1.3260839621173304
F-2.528548065816061
F-0.8688204924212855
F1.5708117485046387
F-0.015672032033101857
tp103
sg9
(lp104
F0.0
aF0.0
aF0.0
aF0.0
aF0.0
aF0.0
asg11
I01
sg12
g13
sg14
I00
sg15
g16
sa(dp105
g2
F0.0
sg3
(lp106
F0.17027836361956497
aF0.3966789847773635
aF0.25330169989700385
aF3.1306387106554765
aF0.00018749589208401674
aF-0.00021918869265545373
asg5
I0
sg6
F0.0
sg7
(F-1.586722199116842
F-1.3260958830462855
F-2.5284042994128626
F-0.8688443342791956
F1.5708117485046387
F-0.01570779481996709
tp107
sg9
(lp108
F0.0
aF0.0
aF0.0
aF0.0
aF0.0
aF0.0
asg11
I01
sg12
g13
sg14
I00
sg15
g16
sa(dp109
g2
F0.0
sg3
(lp110
F0.17030233768045672
aF0.3966895050328219
aF0.25324260658555775
aF3.1307822187313956
aF0.00018511276630209377
aF-0.0002906868242201102
asg5
I0
sg6
F0.0
sg7
(F-1.5867818037616175
F-1.3262518087970179
F-2.5284763018237513
F-0.8684728781329554
F1.5708117485046387
F-0.015695873891012013
tp111
sg9
(lp112
F0.0
aF0.0
aF-0.17175903320312502
aF0.0
aF0.0
aF0.0
asg11
I01
sg12
g13
sg14
I00
sg15
g16
sa(dp113
g2
F0.0
sg3
(lp114
F0.1702792813663559
aF0.39659788197248413
aF0.24514956644334118
aF3.1309098577115093
aF0.00015914668239257586
aF-0.00023080268058429978
asg5
I0
sg6
F0.0
sg7
(F-1.586722199116842
F-1.3413756529437464
F-2.5373557249652308
F-0.8443415800677698
F1.570787787437439
F-0.015695873891012013
tp115
sg9
(lp116
F0.0
aF0.0
aF-0.19999389648437502
aF0.0
aF0.0
aF0.0
asg11
I01
sg12
g13
sg14
I00
sg15
g16
sa(dp117
g2
F0.0
sg3
(lp118
F0.1702749198166537
aF0.395935033089082
aF0.228285885434917
aF3.1304002703086553
aF0.00020316295429888262
aF-0.00024320914491123515
asg5
I0
sg6
F0.0
sg7
(F-1.5867460409747522
F-1.3739236036883753
F-2.5556047598468226
F-0.7940548102008265
F1.5708236694335938
F-0.01570779481996709
tp119
sg9
(lp120
F0.0
aF0.0
aF0.0
aF0.0
aF0.0
aF0.0
asg11
I01
sg12
g13
sg14
I00
sg15
g16
sa(dp121
g2
F0.0
sg3
(lp122
F0.1702828332851624
aF0.3958354291948601
aF0.22407467459737013
aF3.131189574596451
aF0.00019064061339193713
aF-0.0002788158222767392
asg5
I0
sg6
F0.0
sg7
(F-1.5867698828326624
F-1.3826726118670862
F-2.5601397196399134
F-0.7799814383136194
F1.5708236694335938
F-0.015695873891012013
tp123
sg9
(lp124
F0.0
aF0.0
aF0.0
aF0.0
aF0.0
aF0.0
asg11
I01
sg12
g13
sg14
I00
sg15
g16
sa(dp125
g2
F0.0
sg3
(lp126
F0.17028373886937762
aF0.39575380696926454
aF0.2242720588247853
aF3.1312490282608008
aF0.00016536975383280942
aF-0.0003147943244583648
asg5
I0
sg6
F0.0
sg7
(F-1.5867698828326624
F-1.38208514848818
F-2.560079876576559
F-0.7805689016925257
F1.570799708366394
F-0.015659634266988576
tp127
sg9
(lp128
F0.0
aF0.0
aF0.0
aF0.0
aF0.0
aF0.0
asg11
I01
sg12
g13
sg14
I00
sg15
g16
sa(dp129
g2
F0.0
sg3
(lp130
F0.1702720766607368
aF0.39568787692004914
aF0.22430021713459997
aF3.1308060554519717
aF0.00018461000489166288
aF-0.00026683986459199565
asg5
I0
sg6
F0.0
sg7
(F-1.5867460409747522
F-1.3818572203265589
F-2.5600438753711146
F-0.7812760511981409
F1.5708117485046387
F-0.015683952962056935
tp131
sg9
(lp132
F0.0
aF0.0
aF0.0
aF0.0
aF0.0
aF0.0
asg11
I01
sg12
g13
sg14
I00
sg15
g16
sa(dp133
g2
F0.0
sg3
(lp134
F0.17028873357654192
aF0.3956678042345572
aF0.22279444038563917
aF3.1310138347491137
aF0.00020556612083137043
aF-0.00029137539123381387
asg5
I0
sg6
F0.0
sg7
(F-1.5867942015277308
F-1.385068718587057
F-2.5615997950183313
F-0.7763012091266077
F1.5708357095718384
F-0.01570779481996709
tp135
sg9
(lp136
F0.0
aF0.0
aF-0.17175903320312502
aF0.0
aF0.0
aF0.0
asg11
I01
sg12
g13
sg14
I00
sg15
g16
sa(dp137
g2
F0.0
sg3
(lp138
F0.17027207814327527
aF0.39532089593828723
aF0.21101603433099142
aF3.130284275250308
aF0.00018102248929283151
aF-0.0002548827511732677
asg5
I0
sg6
F0.0
sg7
(F-1.5867579619037073
F-1.4102957884417933
F-2.5732789675342005
F-0.7401240507708948
F1.570799708366394
F-0.01570779481996709
tp139
sg9
(lp140
F0.0
aF0.0
aF0.0
aF0.0
aF0.0
aF0.0
asg11
I01
sg12
g13
sg14
I00
sg15
g16
sa(dp141
g2
F0.0
sg3
(lp142
F0.17028029778660583
aF0.39537963791506847
aF0.20744866364250975
aF3.131095408565234
aF0.00019199347474087034
aF-0.00030267504461741016
asg5
I0
sg6
F0.0
sg7
(F-1.5867818037616175
F-1.4186251799212855
F-2.5767133871661585
F-0.7275493780719202
F1.5708236694335938
F-0.015683952962056935
tp143
sg9
(lp144
F0.0
aF0.0
aF0.0
aF0.0
aF0.0
aF0.0
asg11
I01
sg12
g13
sg14
I00
sg15
g16
sa.