(lp0
(dp1
S'start_gripper_pos'
p2
F0.0
sS'curr_pos'
p3
(lp4
F0.1640275619696444
aF0.45947812259853177
aF0.5961038415104334
aF3.130959213964967
aF0.00013470988387089957
aF-0.0002648903570512892
asS'gripper_ac'
p5
I0
sS'curr_gripper_pos'
p6
F0.0
sS'curr_q'
p7
(F-1.5710118452655237
F-1.189976994191305
F-1.9619734922992151
F-1.5710719267474573
F1.5709315538406372
F4.793690095539205e-05
tp8
sS'xdot_h'
p9
(lp10
F0.0
aF0.0
aF0.0
aF0.0
aF0.0
aF0.0
asS'trans_mode'
p11
I01
sS'start_pos'
p12
(lp13
F0.16402340800866025
aF0.45950572507935594
aF0.5961980903246437
aF3.1310784179690136
aF0.00012229148803290634
aF-0.000301239120829378
asS'slow_mode'
p14
I00
sS'start_q'
p15
(F-1.5710004011737269
F-1.1900013128863733
F-1.961818043385641
F-1.5710838476764124
F1.5709196329116821
F9.58738019107841e-05
tp16
sa(dp17
g2
F0.0
sg3
(lp18
F0.1640286666651888
aF0.45950404094329933
aF0.5960858127602967
aF3.13094681384671
aF0.00012253385892570107
aF-0.0002887322119108656
asg5
I0
sg6
F0.0
sg7
(F-1.5710118452655237
F-1.1900251547442835
F-1.9619734922992151
F-1.571036163960592
F1.5709196329116821
F7.190534961409867e-05
tp19
sg9
(lp20
F0.0
aF0.0
aF0.0
aF0.0
aF0.0
aF0.0
asg11
I01
sg12
g13
sg14
I00
sg15
g16
sa(dp21
g2
F0.0
sg3
(lp22
F0.16401240758401586
aF0.45948089242650986
aF0.5961216120957088
aF3.1310188118584397
aF0.00018237884799581977
aF-0.00026599112740177157
asg5
I0
sg6
F0.0
sg7
(F-1.5709884802447718
F-1.18996507326235
F-1.96196157137026
F-1.571036163960592
F1.5709794759750366
F7.190534961409867e-05
tp23
sg9
(lp24
F0.0
aF0.0
aF0.0
aF0.0
aF0.0
aF0.0
asg11
I01
sg12
g13
sg14
I00
sg15
g16
sa(dp25
g2
F0.0
sg3
(lp26
F0.16400017377666917
aF0.4594823099770224
aF0.5961093193044678
aF3.1309711316684474
aF0.00013445589584268615
aF-0.00022925120327577862
asg5
I0
sg6
F0.0
sg7
(F-1.5709522406207483
F-1.18996507326235
F-1.9619734922992151
F-1.5710719267474573
F1.5709315538406372
F7.190534961409867e-05
tp27
sg9
(lp28
F0.0
aF0.0
aF0.0
aF0.0
aF0.0
aF0.0
asg11
I01
sg12
g13
sg14
I00
sg15
g16
sa(dp29
g2
F0.0
sg3
(lp30
F0.1640102382398031
aF0.4594816627905648
aF0.5961134220200786
aF3.1310068953282113
aF0.00014662484185045101
aF-0.00024170899023426913
asg5
I0
sg6
F0.0
sg7
(F-1.5709765593158167
F-1.18996507326235
F-1.9619734922992151
F-1.571036163960592
F1.5709435939788818
F5.992112710373476e-05
tp31
sg9
(lp32
F0.0
aF0.0
aF0.0
aF0.0
aF0.0
aF0.0
asg11
I01
sg12
g13
sg14
I00
sg15
g16
sa(dp33
g2
F0.0
sg3
(lp34
F0.1640069321576443
aF0.45949407953438626
aF0.5960841502981227
aF3.1309224907511437
aF0.00018237173502302453
aF-0.00025408776501687554
asg5
I0
sg6
F0.0
sg7
(F-1.5709765593158167
F-1.1900013128863733
F-1.9619858900653284
F-1.5710719267474573
F1.5709794759750366
F7.190534961409867e-05
tp35
sg9
(lp36
F0.0
aF0.0
aF0.0
aF0.0
aF0.0
aF0.0
asg11
I01
sg12
g13
sg14
I00
sg15
g16
sa(dp37
g2
F0.0
sg3
(lp38
F0.1639749457990116
aF0.45950254575261723
aF0.5960800478265599
aF3.1308867288434734
aF0.00017044884787579683
aF-0.00018196425406040009
asg5
I0
sg6
F0.0
sg7
(F-1.570904556904928
F-1.1900013128863733
F-1.9619858900653284
F-1.5711076895343226
F1.5709675550460815
F7.190534961409867e-05
tp39
sg9
(lp40
F0.0
aF0.0
aF0.0
aF0.0
aF0.0
aF0.0
asg11
I01
sg12
g13
sg14
I00
sg15
g16
sa(dp41
g2
F0.0
sg3
(lp42
F0.16400233273237377
aF0.4594852567229529
aF0.5953256188117182
aF3.1310450387818665
aF0.00017046051858753605
aF-0.00024154191419793378
asg5
I0
sg6
F0.0
sg7
(F-1.5709641615497034
F-1.189976994191305
F-1.9633505980121058
F-1.5696089903460901
F1.5709675550460815
F7.190534961409867e-05
tp43
sg9
(lp44
F0.0
aF0.0
aF-0.071368408203125
aF0.0
aF0.0
aF0.0
asg11
I01
sg12
g13
sg14
I00
sg15
g16
sa(dp45
g2
F0.0
sg3
(lp46
F0.16402970167573921
aF0.45939537311958084
aF0.589478495778791
aF3.130650692405795
aF0.00017030031098565164
aF-0.00031319728585161845
asg5
I0
sg6
F0.0
sg7
(F-1.5710237661944788
F-1.190073315297262
F-1.9734318892108362
F-1.5598257223712366
F1.5709675550460815
F8.388957940042019e-05
tp47
sg9
(lp48
F0.0
aF0.0
aF-0.12313232421875
aF0.0
aF0.0
aF0.0
asg11
I01
sg12
g13
sg14
I00
sg15
g16
sa(dp49
g2
F0.0
sg3
(lp50
F0.16402752847298382
aF0.45932271507765565
aF0.5791911693881051
aF3.1311308688976607
aF0.00013421686089805048
aF-0.00031280150996773284
asg5
I0
sg6
F0.0
sg7
(F-1.5710118452655237
F-1.190432373677389
F-1.991296116505758
F-1.5411222616778772
F1.5709315538406372
F9.58738019107841e-05
tp51
sg9
(lp52
F0.0
aF0.0
aF-0.16077880859375002
aF0.0
aF0.0
aF0.0
asg11
I01
sg12
g13
sg14
I00
sg15
g16
sa(dp53
g2
F0.0
sg3
(lp54
F0.16401454424844292
aF0.45910338547744406
aF0.5633881788016867
aF3.1308323740934507
aF0.0001586633005584599
aF-0.00024180024508871692
asg5
I0
sg6
F0.0
sg7
(F-1.5709884802447718
F-1.1916187445269983
F-2.0181754271136683
F-1.5133550802813929
F1.570955514907837
F4.793690095539205e-05
tp55
sg9
(lp56
F0.0
aF0.0
aF-0.16391601562500002
aF0.0
aF0.0
aF0.0
asg11
I01
sg12
g13
sg14
I00
sg15
g16
sa(dp57
g2
F0.0
sg3
(lp58
F0.16400221095885442
aF0.45875975907842376
aF0.5475495579955173
aF3.1308953119124223
aF0.00017044948073475426
aF-0.0002415674358606287
asg5
I0
sg6
F0.0
sg7
(F-1.5709641615497034
F-1.1933563391314905
F-2.0449097792254847
F-1.4848201910602015
F1.5709675550460815
F7.190534961409867e-05
tp59
sg9
(lp60
F0.0
aF0.0
aF-0.16391601562500002
aF0.0
aF0.0
aF0.0
asg11
I01
sg12
g13
sg14
I00
sg15
g16
sa(dp61
g2
F0.0
sg3
(lp62
F0.16401984922090787
aF0.4582784560522531
aF0.5303601271392263
aF3.1305291037570253
aF0.00015851565158961768
aF-0.0002657527821278224
asg5
I0
sg6
F0.0
sg7
(F-1.5710004011737269
F-1.1961005369769495
F-2.0734036604510706
F-1.4539483229266565
F1.570955514907837
F5.992112710373476e-05
tp63
sg9
(lp64
F0.0
aF0.0
aF-0.16391601562500002
aF0.0
aF0.0
aF0.0
asg11
I01
sg12
g13
sg14
I00
sg15
g16
sa(dp65
g2
F0.0
sg3
(lp66
F0.16400316582113567
aF0.4578348511370619
aF0.5145587488341316
aF3.130533868332685
aF0.00015825088917461295
aF-0.00025347938922417744
asg5
I0
sg6
F0.0
sg7
(F-1.5709641615497034
F-1.1994794050799769
F-2.099250141774313
F-1.424718205128805
F1.570955514907837
F8.388957940042019e-05
tp67
sg9
(lp68
F0.0
aF0.0
aF-0.16391601562500002
aF0.0
aF0.0
aF0.0
asg11
I01
sg12
g13
sg14
I00
sg15
g16
sa(dp69
g2
F0.0
sg3
(lp70
F0.1640248940830278
aF0.4573499708490442
aF0.4977316605216433
aF3.130817109607167
aF0.00015827514092162808
aF-0.00030111827848438563
asg5
I0
sg6
F0.0
sg7
(F-1.5710118452655237
F-1.2040684858905237
F-2.1263650099383753
F-1.392731014882223
F1.570955514907837
F8.388957940042019e-05
tp71
sg9
(lp72
F0.0
aF0.0
aF-0.16391601562500002
aF0.0
aF0.0
aF0.0
asg11
I01
sg12
g13
sg14
I00
sg15
g16
sa(dp73
g2
F0.0
sg3
(lp74
F0.1640217936197342
aF0.45698088289291283
aF0.48086499050668874
aF3.1310040302130364
aF0.00013420452056574106
aF-0.00030137444125228946
asg5
I0
sg6
F0.0
sg7
(F-1.5710004011737269
F-1.2100003401385706
F-2.1528804937945765
F-1.3600967566119593
F1.5709315538406372
F9.58738019107841e-05
tp75
sg9
(lp76
F0.0
aF0.0
aF-0.16391601562500002
aF0.0
aF0.0
aF0.0
asg11
I01
sg12
g13
sg14
I00
sg15
g16
sa(dp77
g2
F0.0
sg3
(lp78
F0.1640029627038653
aF0.45662468945533724
aF0.46541467603042447
aF3.131343537834492
aF0.00015832018114320787
aF-0.00025335123041338197
asg5
I0
sg6
F0.0
sg7
(F-1.5709641615497034
F-1.2163994948016565
F-2.1767857710467737
F-1.3294528166400355
F1.570955514907837
F8.388957940042019e-05
tp79
sg9
(lp80
F0.0
aF0.0
aF-0.16391601562500002
aF0.0
aF0.0
aF0.0
asg11
I01
sg12
g13
sg14
I00
sg15
g16
sa(dp81
g2
F0.0
sg3
(lp82
F0.16400964067913956
aF0.45616633253916944
aF0.4482425584123222
aF3.130897228058777
aF0.0001470026206269732
aF-0.00020577444988140257
asg5
I0
sg6
F0.0
sg7
(F-1.5709765593158167
F-1.224715534840719
F-2.20266563097109
F-1.2957032362567347
F1.5709435939788818
F2.3968450477696024e-05
tp83
sg9
(lp84
F0.0
aF0.0
aF-0.16391601562500002
aF0.0
aF0.0
aF0.0
asg11
I01
sg12
g13
sg14
I00
sg15
g16
sa(dp85
g2
F0.0
sg3
(lp86
F0.16402451695217288
aF0.4556001557802693
aF0.4324868529571556
aF3.130686940660588
aF0.00015878677243301862
aF-0.00025320482689905534
asg5
I0
sg6
F0.0
sg7
(F-1.5710118452655237
F-1.2332118193255823
F-2.226149861012594
F-1.263933006917135
F1.570955514907837
F3.5952674807049334e-05
tp87
sg9
(lp88
F0.0
aF0.0
aF-0.165484619140625
aF0.0
aF0.0
aF0.0
asg11
I01
sg12
g13
sg14
I00
sg15
g16
sa(dp89
g2
F0.0
sg3
(lp90
F0.16401265100536017
aF0.45502793436234285
aF0.4155074112845924
aF3.130815197148317
aF0.00017005610278724885
aF-0.0003018503724863244
asg5
I0
sg6
F0.0
sg7
(F-1.5709884802447718
F-1.243697468434469
F-2.2509873549090784
F-1.2284815947162073
F1.5709675550460815
F0.000107858024421148
tp91
sg9
(lp92
F0.0
aF0.0
aF-0.16705322265625
aF0.0
aF0.0
aF0.0
asg11
I01
sg12
g13
sg14
I00
sg15
g16
sa(dp93
g2
F0.0
sg3
(lp94
F0.16402434115261633
aF0.45478448155362944
aF0.3998586275625364
aF3.131276786329944
aF0.00015868534853270388
aF-0.00026509474911951057
asg5
I0
sg6
F0.0
sg7
(F-1.5710118452655237
F-1.255176846181051
F-2.2730944792376917
F-1.1944335142718714
F1.570955514907837
F4.793690095539205e-05
tp95
sg9
(lp96
F0.0
aF0.0
aF-0.16705322265625
aF0.0
aF0.0
aF0.0
asg11
I01
sg12
g13
sg14
I00
sg15
g16
sa(dp97
g2
F0.0
sg3
(lp98
F0.16401247854196904
aF0.45413043999035513
aF0.38260004718607954
aF3.1312016757074406
aF0.00017022301093295793
aF-0.0002898010659775586
asg5
I0
sg6
F0.0
sg7
(F-1.5709884802447718
F-1.2685988585101526
F-2.2972241083728235
F-1.156956974660055
F1.5709675550460815
F9.58738019107841e-05
tp99
sg9
(lp100
F0.0
aF0.0
aF-0.16862182617187502
aF0.0
aF0.0
aF0.0
asg11
I01
sg12
g13
sg14
I00
sg15
g16
sa(dp101
g2
F0.0
sg3
(lp102
F0.16400464735839348
aF0.4534993815258518
aF0.36507317911171194
aF3.13084023986769
aF0.0001344462954295701
aF-0.00024118973075000418
asg5
I0
sg6
F0.0
sg7
(F-1.5709641615497034
F-1.283985439931051
F-2.320958201085226
F-1.1181977430926722
F1.5709315538406372
F7.190534961409867e-05
tp103
sg9
(lp104
F0.0
aF0.0
aF-0.1701904296875
aF0.0
aF0.0
aF0.0
asg11
I01
sg12
g13
sg14
I00
sg15
g16
sa(dp105
g2
F0.0
sg3
(lp106
F0.16401337611513364
aF0.4530244453485824
aF0.34896554847440814
aF3.130978278671967
aF0.0001581617324381807
aF-0.0002897112948632676
asg5
I0
sg6
F0.0
sg7
(F-1.5709884802447718
F-1.299875561391012
F-2.342142407094137
F-1.0809853712665003
F1.570955514907837
F9.58738019107841e-05
tp107
sg9
(lp108
F0.0
aF0.0
aF-0.1701904296875
aF0.0
aF0.0
aF0.0
asg11
I01
sg12
g13
sg14
I00
sg15
g16
sa(dp109
g2
F0.0
sg3
(lp110
F0.16399797722092205
aF0.4525143535422766
aF0.33163285445105234
aF3.131285841556598
aF0.0001463949510739354
aF-0.00024131657134727217
asg5
I0
sg6
F0.0
sg7
(F-1.5709522406207483
F-1.3187020460711878
F-2.3643081823932093
F-1.0396855513202112
F1.5709435939788818
F8.388957940042019e-05
tp111
sg9
(lp112
F0.0
aF0.0
aF-0.1701904296875
aF0.0
aF0.0
aF0.0
asg11
I01
sg12
g13
sg14
I00
sg15
g16
sa(dp113
g2
F0.0
sg3
(lp114
F0.16400996821017746
aF0.45182448317878215
aF0.3153732109991828
aF3.131147799836684
aF0.00013446885012440273
aF-0.00025354614315925144
asg5
I0
sg6
F0.0
sg7
(F-1.5709765593158167
F-1.3377082983600062
F-2.3845935503589075
F-1.0005319754229944
F1.5709315538406372
F7.190534961409867e-05
tp115
sg9
(lp116
F0.0
aF0.0
aF-0.1701904296875
aF0.0
aF0.0
aF0.0
asg11
I01
sg12
g13
sg14
I00
sg15
g16
sa(dp117
g2
F0.0
sg3
(lp118
F0.16399984477078394
aF0.4512105051411467
aF0.29777928249465613
aF3.130855974152819
aF0.00018249549015494267
aF-0.00022971859790467454
asg5
I0
sg6
F0.0
sg7
(F-1.5709641615497034
F-1.3604896704303187
F-2.4055610338794153
F-0.9570749441729944
F1.5709794759750366
F5.992112710373476e-05
tp119
sg9
(lp120
F0.0
aF0.0
aF-0.13568115234375
aF0.0
aF0.0
aF0.0
asg11
I01
sg12
g13
sg14
I00
sg15
g16
sa(dp121
g2
F0.0
sg3
(lp122
F0.16400418570311262
aF0.4507488278891185
aF0.2832512531050858
aF3.130854068145365
aF0.00013444730978968733
aF-0.00024118787158512685
asg5
I0
sg6
F0.0
sg7
(F-1.5709641615497034
F-1.3809827009784144
F-2.422232214604513
F-0.9199126402484339
F1.5709315538406372
F7.190534961409867e-05
tp123
sg9
(lp124
F0.0
aF0.0
aF-0.08705444335937501
aF0.0
aF0.0
aF0.0
asg11
I01
sg12
g13
sg14
I00
sg15
g16
sa(dp125
g2
F0.0
sg3
(lp126
F0.16400522022388822
aF0.45036400388943004
aF0.2733140766669063
aF3.1309379938283874
aF0.00012266089847311367
aF-0.00022906603464513525
asg5
I0
sg6
F0.0
sg7
(F-1.5709641615497034
F-1.3957226912127894
F-2.4334097544299524
F-0.8939111868487757
F1.5709196329116821
F5.992112710373476e-05
tp127
sg9
(lp128
F0.0
aF0.0
aF0.0
aF0.0
aF0.0
aF0.0
asg11
I01
sg12
g13
sg14
I00
sg15
g16
sa(dp129
g2
F0.0
sg3
(lp130
F0.16400192808036806
aF0.45046038942805666
aF0.27182879190560955
aF3.1315292678074234
aF0.00015845666112618796
aF-0.0002413382013645873
asg5
I0
sg6
F0.0
sg7
(F-1.5709641615497034
F-1.3982871214496058
F-2.4349775950061243
F-0.8891876379596155
F1.570955514907837
F7.190534961409867e-05
tp131
sg9
(lp132
F0.0
aF0.0
aF0.0
aF0.0
aF0.0
aF0.0
asg11
I01
sg12
g13
sg14
I00
sg15
g16
sa(dp133
g2
F0.0
sg3
(lp134
F0.1640171278189512
aF0.4503830594225641
aF0.27186145957394175
aF3.1312531782038815
aF0.00017047585626048478
aF-0.00027774605711410283
asg5
I0
sg6
F0.0
sg7
(F-1.5710004011737269
F-1.398095432912008
F-2.4349775950061243
F-0.8896554152118128
F1.5709675550460815
F7.190534961409867e-05
tp135
sg9
(lp136
F0.0
aF0.0
aF0.0
aF0.0
aF0.0
aF0.0
asg11
I01
sg12
g13
sg14
I00
sg15
g16
sa(dp137
g2
F0.0
sg3
(lp138
F0.16400858656567258
aF0.45031790262887217
aF0.27179196608896716
aF3.1307617992706005
aF0.00014647997309453475
aF-0.000253728444977223
asg5
I0
sg6
F0.0
sg7
(F-1.5709765593158167
F-1.398071591054098
F-2.4350255171405237
F-0.8901227156268519
F1.5709435939788818
F7.190534961409867e-05
tp139
sg9
(lp140
F0.0
aF0.0
aF0.0
aF0.0
aF0.0
aF0.0
asg11
I01
sg12
g13
sg14
I00
sg15
g16
sa(dp141
g2
F0.0
sg3
(lp142
F0.1640019065568212
aF0.4503321469842073
aF0.27179181708937605
aF3.130737723818541
aF0.00015878868606043864
aF-0.00020551304734685552
asg5
I0
sg6
F0.0
sg7
(F-1.5709641615497034
F-1.398095432912008
F-2.4350014368640345
F-0.8901470343219202
F1.570955514907837
F3.5952674807049334e-05
tp143
sg9
(lp144
F0.0
aF0.0
aF0.0
aF0.0
aF0.0
aF0.0
asg11
I01
sg12
g13
sg14
I00
sg15
g16
sa(dp145
g2
F0.0
sg3
(lp146
F0.16400858896724807
aF0.4503312275004883
aF0.27179318416731735
aF3.1307496364154126
aF0.00014621919421591126
aF-0.0002776972696401038
asg5
I0
sg6
F0.0
sg7
(F-1.5709765593158167
F-1.398095432912008
F-2.4350014368640345
F-0.8901351133929651
F1.5709435939788818
F9.58738019107841e-05
tp147
sg9
(lp148
F0.0
aF0.0
aF0.0
aF0.0
aF0.0
aF0.0
asg11
I01
sg12
g13
sg14
I00
sg15
g16
sa(dp149
g2
F0.0
sg3
(lp150
F0.1640161659473304
aF0.45032622657289756
aF0.2718118107252159
aF3.130761565549414
aF0.00012277989322421123
aF-0.00024142284645997468
asg5
I0
sg6
F0.0
sg7
(F-1.5709884802447718
F-1.3980596701251429
F-2.4349895159350794
F-0.8901708761798304
F1.5709196329116821
F4.793690095539205e-05
tp151
sg9
(lp152
F0.0
aF0.0
aF0.0
aF0.0
aF0.0
aF0.0
asg11
I01
sg12
g13
sg14
I00
sg15
g16
sa.