(lp0
(dp1
S'start_gripper_pos'
p2
F0.0
sS'curr_pos'
p3
(lp4
F0.16403647720620984
aF0.45947917647669234
aF0.5961063353653983
aF3.130958727710283
aF0.00021837358124560458
aF-0.00032598955650957616
asS'gripper_ac'
p5
I0
sS'curr_gripper_pos'
p6
F0.0
sS'curr_q'
p7
(F-1.5710480848895472
F-1.1899893919574183
F-1.96196157137026
F-1.5710719267474573
F1.571015477180481
F7.190534961409867e-05
tp8
sS'xdot_h'
p9
(lp10
F0.0
aF0.0
aF0.0
aF0.0
aF0.0
aF0.0
asS'trans_mode'
p11
I01
sS'start_pos'
p12
(lp13
F0.1640616965239867
aF0.459439690326186
aF0.5962368412915494
aF3.1310426515318697
aF0.0001822541770809697
aF-0.0003852587027849451
asS'slow_mode'
p14
I00
sS'start_q'
p15
(F-1.5710957686053675
F-1.1899173895465296
F-1.9617937246905726
F-1.5712278524981897
F1.5709794759750366
F8.388957940042019e-05
tp16
sa(dp17
g2
F0.0
sg3
(lp18
F0.16403409972263625
aF0.45948009560348196
aF0.5961049672185096
aF3.13094680944655
aF0.00018237353103226094
aF-0.0003132111375745622
asg5
I0
sg6
F0.0
sg7
(F-1.5710356871234339
F-1.1899893919574183
F-1.96196157137026
F-1.5710838476764124
F1.5709794759750366
F7.190534961409867e-05
tp19
sg9
(lp20
F0.0
aF0.0
aF0.0
aF0.0
aF0.0
aF0.0
asg11
I01
sg12
g13
sg14
I00
sg15
g16
sa(dp21
g2
F0.0
sg3
(lp22
F0.1640419521498662
aF0.459467878919294
aF0.5960939583762435
aF3.13093488585187
aF0.00021837181136756992
aF-0.00033791569187062963
asg5
I0
sg6
F0.0
sg7
(F-1.5710600058185022
F-1.189976994191305
F-1.9619858900653284
F-1.5710838476764124
F1.571015477180481
F7.190534961409867e-05
tp23
sg9
(lp24
F0.0
aF0.0
aF0.0
aF0.0
aF0.0
aF0.0
asg11
I01
sg12
g13
sg14
I00
sg15
g16
sa(dp25
g2
F0.0
sg3
(lp26
F0.1640386895610613
aF0.4594916667031456
aF0.5957035237356041
aF3.131067929859551
aF0.0001946742023327094
aF-0.0003017464099077288
asg5
I0
sg6
F0.0
sg7
(F-1.5710480848895472
F-1.1900013128863733
F-1.9626801649676722
F-1.5702322165118616
F1.5709915161132812
F4.793690095539205e-05
tp27
sg9
(lp28
F0.0
aF0.0
aF-0.19999389648437502
aF0.0
aF0.0
aF0.0
asg11
I01
sg12
g13
sg14
I00
sg15
g16
sa(dp29
g2
F0.0
sg3
(lp30
F0.1640340735993723
aF0.45937096763472657
aF0.5846131941556256
aF3.1306979048201478
aF0.00018261626836526605
aF-0.0002892895030511324
asg5
I0
sg6
F0.0
sg7
(F-1.5710356871234339
F-1.1902526060687464
F-1.981837574635641
F-1.5511935392962855
F1.5709794759750366
F4.793690095539205e-05
tp31
sg9
(lp32
F0.0
aF0.0
aF-0.19999389648437502
aF0.0
aF0.0
aF0.0
asg11
I01
sg12
g13
sg14
I00
sg15
g16
sa(dp33
g2
F0.0
sg3
(lp34
F0.1640317488165354
aF0.45888814691621194
aF0.5636872916858932
aF3.131035981172685
aF0.00020659286989576853
aF-0.0002894807062321631
asg5
I0
sg6
F0.0
sg7
(F-1.5710356871234339
F-1.1911752859698694
F-2.0179598967181605
F-1.5138104597674769
F1.5710034370422363
F4.793690095539205e-05
tp35
sg9
(lp36
F0.0
aF0.0
aF-0.19999389648437502
aF0.0
aF0.0
aF0.0
asg11
I01
sg12
g13
sg14
I00
sg15
g16
sa(dp37
g2
F0.0
sg3
(lp38
F0.16403383860644163
aF0.4583892480398758
aF0.5446255451361199
aF3.131670167056183
aF0.00018218908149044124
aF-0.00033704646912485065
asg5
I0
sg6
F0.0
sg7
(F-1.5710356871234339
F-1.1931164900409144
F-2.050345245991842
F-1.4788497130023401
F1.5709794759750366
F9.58738019107841e-05
tp39
sg9
(lp40
F0.0
aF0.0
aF-0.19999389648437502
aF0.0
aF0.0
aF0.0
asg11
I01
sg12
g13
sg14
I00
sg15
g16
sa(dp41
g2
F0.0
sg3
(lp42
F0.16405905496038733
aF0.4577968635201621
aF0.5239184783948992
aF3.1317579156173996
aF0.00014678883029777928
aF-0.0003369035689718696
asg5
I0
sg6
F0.0
sg7
(F-1.5710838476764124
F-1.1966632048236292
F-2.0846689383136194
F-1.4408915678607386
F1.5709435939788818
F4.793690095539205e-05
tp43
sg9
(lp44
F0.0
aF0.0
aF-0.19999389648437502
aF0.0
aF0.0
aF0.0
asg11
I01
sg12
g13
sg14
I00
sg15
g16
sa(dp45
g2
F0.0
sg3
(lp46
F0.16402699738361431
aF0.45721868640454727
aF0.5047337891049233
aF3.1314946944602866
aF0.0001944534898342901
aF-0.00030131185651826247
asg5
I0
sg6
F0.0
sg7
(F-1.5710237661944788
F-1.2013009230243128
F-2.115746800099508
F-1.4054392019854944
F1.5709915161132812
F7.190534961409867e-05
tp47
sg9
(lp48
F0.0
aF0.0
aF-0.19999389648437502
aF0.0
aF0.0
aF0.0
asg11
I01
sg12
g13
sg14
I00
sg15
g16
sa(dp49
g2
F0.0
sg3
(lp50
F0.16404014137201522
aF0.4564833162890037
aF0.4840961835404189
aF3.131571945891827
aF0.00017061941999190036
aF-0.00031339180641769157
asg5
I0
sg6
F0.0
sg7
(F-1.5710480848895472
F-1.2076275984393519
F-2.1486666838275355
F-1.3661153952227991
F1.5709675550460815
F5.992112710373476e-05
tp51
sg9
(lp52
F0.0
aF0.0
aF-0.19999389648437502
aF0.0
aF0.0
aF0.0
asg11
I01
sg12
g13
sg14
I00
sg15
g16
sa(dp53
g2
F0.0
sg3
(lp54
F0.1640454058632032
aF0.4558093387694377
aF0.46344163080811196
aF3.1315895929590822
aF0.000170860261299583
aF-0.0003013424716334051
asg5
I0
sg6
F0.0
sg7
(F-1.5710600058185022
F-1.2158125082599085
F-2.1807597319232386
F-1.3258197943316858
F1.5709675550460815
F3.5952674807049334e-05
tp55
sg9
(lp56
F0.0
aF0.0
aF-0.19999389648437502
aF0.0
aF0.0
aF0.0
asg11
I01
sg12
g13
sg14
I00
sg15
g16
sa(dp57
g2
F0.0
sg3
(lp58
F0.1640506657076939
aF0.4551767202823587
aF0.4442647599993277
aF3.1313402050752073
aF0.00017072799775923753
aF-0.00032528960597635946
asg5
I0
sg6
F0.0
sg7
(F-1.5710719267474573
F-1.2250750700580042
F-2.209787193928854
F-1.2877791563617151
F1.5709675550460815
F4.793690095539205e-05
tp59
sg9
(lp60
F0.0
aF0.0
aF-0.19999389648437502
aF0.0
aF0.0
aF0.0
asg11
I01
sg12
g13
sg14
I00
sg15
g16
sa(dp61
g2
F0.0
sg3
(lp62
F0.16403290984665905
aF0.4545091775014686
aF0.42367767799511535
aF3.1314427200979793
aF0.0001824101320078423
aF-0.0003131206876229386
asg5
I0
sg6
F0.0
sg7
(F-1.5710356871234339
F-1.2368548552142542
F-2.240274254475729
F-1.2454097906695765
F1.5709794759750366
F7.190534961409867e-05
tp63
sg9
(lp64
F0.0
aF0.0
aF-0.19999389648437502
aF0.0
aF0.0
aF0.0
asg11
I01
sg12
g13
sg14
I00
sg15
g16
sa(dp65
g2
F0.0
sg3
(lp66
F0.16404059680608996
aF0.45388300115616853
aF0.40464946748381087
aF3.131552394409824
aF0.0001584583609687835
aF-0.00032525787662924046
asg5
I0
sg6
F0.0
sg7
(F-1.5710480848895472
F-1.2495692412005823
F-2.2677205244647425
F-1.205139462147848
F1.570955514907837
F7.190534961409867e-05
tp67
sg9
(lp68
F0.0
aF0.0
aF-0.19999389648437502
aF0.0
aF0.0
aF0.0
asg11
I01
sg12
g13
sg14
I00
sg15
g16
sa(dp69
g2
F0.0
sg3
(lp70
F0.16404899387321123
aF0.4530986632751215
aF0.3838962889989765
aF3.131307304907238
aF0.0001827699209728032
aF-0.0003134342395082892
asg5
I0
sg6
F0.0
sg7
(F-1.5710719267474573
F-1.2653992811786097
F-2.2968414465533655
F-1.160433594380514
F1.5709794759750366
F3.5952674807049334e-05
tp71
sg9
(lp72
F0.0
aF0.0
aF-0.19999389648437502
aF0.0
aF0.0
aF0.0
asg11
I01
sg12
g13
sg14
I00
sg15
g16
sa(dp73
g2
F0.0
sg3
(lp74
F0.16406174058665712
aF0.4522092372884996
aF0.3632780332393809
aF3.131110606677657
aF0.0001585514909583159
aF-0.00036102802615079003
asg5
I0
sg6
F0.0
sg7
(F-1.5710957686053675
F-1.2832301298724573
F-2.3250275293933313
F-1.1146133581744593
F1.570955514907837
F5.992112710373476e-05
tp75
sg9
(lp76
F0.0
aF0.0
aF-0.19999389648437502
aF0.0
aF0.0
aF0.0
asg11
I01
sg12
g13
sg14
I00
sg15
g16
sa(dp77
g2
F0.0
sg3
(lp78
F0.1640366319337475
aF0.45131883840799264
aF0.3441596254407255
aF3.130788977785125
aF0.0001945307793698991
aF-0.00031378423920948897
asg5
I0
sg6
F0.0
sg7
(F-1.5710480848895472
F-1.3018172422992151
F-2.3503883520709437
F-1.0709870497332972
F1.5709915161132812
F5.992112710373476e-05
tp79
sg9
(lp80
F0.0
aF0.0
aF-0.19999389648437502
aF0.0
aF0.0
aF0.0
asg11
I01
sg12
g13
sg14
I00
sg15
g16
sa(dp81
g2
F0.0
sg3
(lp82
F0.16402657756705566
aF0.45049214673139065
aF0.3236343442762278
aF3.1305658187377774
aF0.00018247752654107838
aF-0.00028937619206920005
asg5
I0
sg6
F0.0
sg7
(F-1.5710237661944788
F-1.3245261351214808
F-2.3765152136432093
F-1.022374455128805
F1.5709794759750366
F5.992112710373476e-05
tp83
sg9
(lp84
F0.0
aF0.0
aF-0.19999389648437502
aF0.0
aF0.0
aF0.0
asg11
I01
sg12
g13
sg14
I00
sg15
g16
sa(dp85
g2
F0.0
sg3
(lp86
F0.16402217288053864
aF0.44987468501111055
aF0.3049621890907062
aF3.1311525655623114
aF0.0001704684430955555
aF-0.00028920730054356636
asg5
I0
sg6
F0.0
sg7
(F-1.5710118452655237
F-1.3477986494647425
F-2.399385992680685
F-0.9756444136248987
F1.5709675550460815
F7.190534961409867e-05
tp87
sg9
(lp88
F0.0
aF0.0
aF-0.19999389648437502
aF0.0
aF0.0
aF0.0
asg11
I01
sg12
g13
sg14
I00
sg15
g16
sa(dp89
g2
F0.0
sg3
(lp90
F0.16404897089062262
aF0.4490272843052473
aF0.284511146588637
aF3.131322321636349
aF0.0001706040294069657
aF-0.0003372762531014174
asg5
I0
sg6
F0.0
sg7
(F-1.5710719267474573
F-1.375721279774801
F-2.423464838658468
F-0.9234731833087366
F1.5709675550460815
F5.992112710373476e-05
tp91
sg9
(lp92
F0.0
aF0.0
aF-0.19999389648437502
aF0.0
aF0.0
aF0.0
asg11
I01
sg12
g13
sg14
I00
sg15
g16
sa(dp93
g2
F0.0
sg3
(lp94
F0.1640260288607422
aF0.44807966070958943
aF0.26545808845037305
aF3.1310200017665624
aF0.00018225223330177315
aF-0.0003132604198839293
asg5
I0
sg6
F0.0
sg7
(F-1.5710237661944788
F-1.4040759245501917
F-2.444970194493429
F-0.8739154974566858
F1.5709794759750366
F8.388957940042019e-05
tp95
sg9
(lp96
F0.0
aF0.0
aF-0.074505615234375
aF0.0
aF0.0
aF0.0
asg11
I01
sg12
g13
sg14
I00
sg15
g16
sa(dp97
g2
F0.0
sg3
(lp98
F0.16403125836783997
aF0.44760977423067777
aF0.25129965629212403
aF3.1311117994798554
aF0.00018263691814126125
aF-0.00028921391496369663
asg5
I0
sg6
F0.0
sg7
(F-1.5710356871234339
F-1.4273493925677698
F-2.459965531026022
F-0.8355549017535608
F1.5709794759750366
F4.793690095539205e-05
tp99
sg9
(lp100
F0.0
aF0.0
aF0.0
aF0.0
aF0.0
aF0.0
asg11
I01
sg12
g13
sg14
I00
sg15
g16
sa(dp101
g2
F0.0
sg3
(lp102
F0.16403788279103615
aF0.44751227176750424
aF0.2507627887532825
aF3.1312443567163504
aF0.0001704752063600668
aF-0.0003254312767803726
asg5
I0
sg6
F0.0
sg7
(F-1.5710480848895472
F-1.4281166235553187
F-2.4606717268573206
F-0.8339489142047327
F1.5709675550460815
F7.190534961409867e-05
tp103
sg9
(lp104
F0.0
aF0.0
aF0.0
aF0.0
aF0.0
aF0.0
asg11
I01
sg12
g13
sg14
I00
sg15
g16
sa(dp105
g2
F0.0
sg3
(lp106
F0.16402809821642264
aF0.44746476389970014
aF0.2509454705448728
aF3.1312686820005187
aF0.00015880866927452006
aF-0.0002650333767723262
asg5
I0
sg6
F0.0
sg7
(F-1.5710237661944788
F-1.4276970068561
F-2.460575882588522
F-0.8344400564776819
F1.570955514907837
F3.5952674807049334e-05
tp107
sg9
(lp108
F0.0
aF0.0
aF0.0
aF0.0
aF0.0
aF0.0
asg11
I01
sg12
g13
sg14
I00
sg15
g16
sa(dp109
g2
F0.0
sg3
(lp110
F0.16401431653821186
aF0.4474328310394348
aF0.2508855988654592
aF3.1307291347207533
aF0.00019452706718706716
aF-0.0002661121645837103
asg5
I0
sg6
F0.0
sg7
(F-1.5710004011737269
F-1.4277213255511683
F-2.4605518023120325
F-0.8349793593036097
F1.5709915161132812
F5.992112710373476e-05
tp111
sg9
(lp112
F0.0
aF0.0
aF0.0
aF0.0
aF0.0
aF0.0
asg11
I01
sg12
g13
sg14
I00
sg15
g16
sa(dp113
g2
F0.0
sg3
(lp114
F0.16402900312412722
aF0.447417456589912
aF0.2509033815226598
aF3.1307889721000692
aF0.00020619207018059347
aF-0.00032548231447465404
asg5
I0
sg6
F0.0
sg7
(F-1.5710356871234339
F-1.4276731649981897
F-2.4605639616595667
F-0.8349555174456995
F1.5710034370422363
F8.388957940042019e-05
tp115
sg9
(lp116
F0.0
aF0.0
aF0.0
aF0.0
aF0.0
aF0.0
asg11
I01
sg12
g13
sg14
I00
sg15
g16
sa.