(lp0
(dp1
S'start_gripper_pos'
p2
F0.0
sS'curr_pos'
p3
(lp4
F0.16403189129989756
aF0.4594833863802302
aF0.5960899328462949
aF3.1309110845750445
aF0.00020837518489198829
aF-0.00012206788254787787
asS'gripper_ac'
p5
I0
sS'curr_gripper_pos'
p6
F0.0
sS'curr_q'
p7
(F-1.5710356871234339
F-1.1900013128863733
F-1.9619734922992151
F-1.5710957686053675
F1.5710034370422363
F-0.000119511281148732
tp8
sS'xdot_h'
p9
(lp10
F0.0
aF0.0
aF0.0
aF0.0
aF0.0
aF0.0
asS'trans_mode'
p11
I01
sS'start_pos'
p12
(lp13
F0.16401020161861662
aF0.4594977798497034
aF0.5962120161430364
aF3.1310426692412356
aF0.00020722284771995542
aF-0.00018259278418231124
asS'slow_mode'
p14
I00
sS'start_q'
p15
(F-1.5709884802447718
F-1.1899893919574183
F-1.9617937246905726
F-1.571155850087301
F1.5710034370422363
F-1.1746083394825746e-05
tp16
sa(dp17
g2
F0.0
sg3
(lp18
F0.1640285714450753
aF0.4594811150392208
aF0.5960871440582265
aF3.1308867730087124
aF0.00024450480090101666
aF-0.00011053812126069339
asg5
I0
sg6
F0.0
sg7
(F-1.5710356871234339
F-1.1900013128863733
F-1.9619734922992151
F-1.5711200873004358
F1.5710394382476807
F-0.00013143221010381012
tp19
sg9
(lp20
F0.0
aF0.0
aF0.0
aF0.0
aF0.0
aF0.0
asg11
I01
sg12
g13
sg14
I00
sg15
g16
sa(dp21
g2
F0.0
sg3
(lp22
F0.1640386803916744
aF0.45945524496741236
aF0.5960939890041392
aF3.130923004105236
aF0.00019645353631351096
aF-0.0001343359749350223
asg5
I0
sg6
F0.0
sg7
(F-1.5710480848895472
F-1.1899531523333948
F-1.9619978109942835
F-1.5711076895343226
F1.5709915161132812
F-0.000119511281148732
tp23
sg9
(lp24
F0.0
aF0.0
aF0.0
aF0.0
aF0.0
aF0.0
asg11
I01
sg12
g13
sg14
I00
sg15
g16
sa(dp25
g2
F0.0
sg3
(lp26
F0.16403189232559912
aF0.45948767157570847
aF0.5960691159315605
aF3.1308867633964588
aF0.00020825041552594023
aF-0.00013399319604549053
asg5
I0
sg6
F0.0
sg7
(F-1.5710356871234339
F-1.1900132338153284
F-1.9619978109942835
F-1.5710838476764124
F1.5710034370422363
F-0.00010759035219365387
tp27
sg9
(lp28
F0.0
aF0.0
aF0.0
aF0.0
aF0.0
aF0.0
asg11
I01
sg12
g13
sg14
I00
sg15
g16
sa(dp29
g2
F0.0
sg3
(lp30
F0.1640375838221245
aF0.4594653344677707
aF0.5960884337123112
aF3.130886760914823
aF0.00020812279379270186
aF-0.000158311208213436
asg5
I0
sg6
F0.0
sg7
(F-1.5710480848895472
F-1.189976994191305
F-1.9619858900653284
F-1.571132008229391
F1.5710034370422363
F-9.566942323857575e-05
tp31
sg9
(lp32
F0.0
aF0.0
aF0.0
aF0.0
aF0.0
aF0.0
asg11
I01
sg12
g13
sg14
I00
sg15
g16
sa(dp33
g2
F0.0
sg3
(lp34
F0.16401347065392094
aF0.45949884844432654
aF0.5956363055752818
aF3.1309959616295138
aF0.00023219863042635446
aF-9.893841026334434e-05
asg5
I0
sg6
F0.0
sg7
(F-1.5710004011737269
F-1.1900132338153284
F-1.962776009236471
F-1.5701964537249964
F1.571027398109436
F-0.00010759035219365387
tp35
sg9
(lp36
F0.0
aF0.0
aF-0.074505615234375
aF0.0
aF0.0
aF0.0
asg11
I01
sg12
g13
sg14
I00
sg15
g16
sa(dp37
g2
F0.0
sg3
(lp38
F0.1640342500434015
aF0.4594078726188645
aF0.5908510983200506
aF3.130743721858162
aF0.0002445232265637168
aF-0.00012297086535533556
asg5
I0
sg6
F0.0
sg7
(F-1.5710480848895472
F-1.1900370756732386
F-1.9710734526263636
F-1.562127415333883
F1.5710394382476807
F-0.00013143221010381012
tp39
sg9
(lp40
F0.0
aF0.0
aF-0.09176025390625
aF0.0
aF0.0
aF0.0
asg11
I01
sg12
g13
sg14
I00
sg15
g16
sa(dp41
g2
F0.0
sg3
(lp42
F0.16406604525753718
aF0.45937960630404456
aF0.5818216183998681
aF3.1312806367575883
aF0.00019666230073576546
aF-0.00016955296748244383
asg5
I0
sg6
F0.0
sg7
(F-1.5711076895343226
F-1.1903603712665003
F-1.986769978200094
F-1.5455706755267542
F1.5709915161132812
F-0.00014382997621709137
tp43
sg9
(lp44
F0.029022216796875
aF0.0
aF-0.07293701171875
aF0.0
aF0.0
aF0.0
asg11
I01
sg12
g13
sg14
I00
sg15
g16
sa(dp45
g2
F0.0
sg3
(lp46
F0.165818523963327
aF0.45927773916858466
aF0.5734324104624705
aF3.130749347579174
aF0.0002594407000173345
aF-0.0004147448963512171
asg5
I0
sg6
F0.0
sg7
(F-1.5749252478228968
F-1.1920378843890589
F-2.0003235975848597
F-1.5308716932879847
F1.571015477180481
F-0.003716770802633107
tp47
sg9
(lp48
F0.029022216796875
aF0.0
aF-0.07293701171875
aF0.0
aF0.0
aF0.0
asg11
I01
sg12
g13
sg14
I00
sg15
g16
sa(dp49
g2
F0.0
sg3
(lp50
F0.16866133513450937
aF0.4591842129595421
aF0.5665281345488622
aF3.1309097074132697
aF0.0002532011717997704
aF-0.0003761423035550411
asg5
I0
sg6
F0.0
sg7
(F-1.5810864607440394
F-1.1944106260882776
F-2.0110037962542933
F-1.5176594893084925
F1.5709435939788818
F-0.009916130696431935
tp51
sg9
(lp52
F0.035296630859375004
aF0.0
aF-0.07293701171875
aF0.0
aF0.0
aF0.0
asg11
I01
sg12
g13
sg14
I00
sg15
g16
sa(dp53
g2
F0.0
sg3
(lp54
F0.1721069275741828
aF0.4590823177865618
aF0.5589460406557503
aF3.130796701614846
aF0.0002631223789093608
aF-0.0003476963879858199
asg5
I0
sg6
F0.0
sg7
(F-1.5885408560382288
F-1.1975138823138636
F-2.0223777929889124
F-1.503296200429098
F1.5708715915679932
F-0.017398659382955373
tp55
sg9
(lp56
F0.04627685546875
aF0.0
aF-0.07293701171875
aF0.0
aF0.0
aF0.0
asg11
I01
sg12
g13
sg14
I00
sg15
g16
sa(dp57
g2
F0.0
sg3
(lp58
F0.17636068345030073
aF0.45894482494195643
aF0.5518095185078241
aF3.1308495012850073
aF0.0002667431795947199
aF-0.00018315993717512297
asg5
I0
sg6
F0.0
sg7
(F-1.597717587147848
F-1.2012646834002894
F-2.032614056264059
F-1.4892566839801233
F1.5707757472991943
F-0.026739422474996388
tp59
sg9
(lp60
F0.04627685546875
aF0.0
aF-0.07293701171875
aF0.0
aF0.0
aF0.0
asg11
I01
sg12
g13
sg14
I00
sg15
g16
sa(dp61
g2
F0.0
sg3
(lp62
F0.1812118063485302
aF0.4588138894667568
aF0.5445592951842706
aF3.1313095896413508
aF0.00027820188570869655
aF-0.00014839831425025583
asg5
I0
sg6
F0.0
sg7
(F-1.6081507841693323
F-1.2056744734393519
F-2.0427306334124964
F-1.4742701689349573
F1.5706918239593506
F-0.03720695177187139
tp63
sg9
(lp64
F0.055688476562500006
aF0.0
aF-0.07293701171875
aF0.0
aF0.0
aF0.0
asg11
I01
sg12
g13
sg14
I00
sg15
g16
sa(dp65
g2
F0.0
sg3
(lp66
F0.18605134370189538
aF0.45865679172231505
aF0.5375527963040349
aF3.1311900365884786
aF0.0002574577919051578
aF-0.00026825555552859785
asg5
I0
sg6
F0.0
sg7
(F-1.618511978779928
F-1.2103484312640589
F-2.052141014729635
F-1.4603026548968714
F1.570560097694397
F-0.0474475065814417
tp67
sg9
(lp68
F0.060394287109375
aF0.0
aF-0.07293701171875
aF0.0
aF0.0
aF0.0
asg11
I01
sg12
g13
sg14
I00
sg15
g16
sa(dp69
g2
F0.0
sg3
(lp70
F0.19216720993123165
aF0.45848411564610914
aF0.5297622355846676
aF3.1310138109574064
aF0.00028466990296495577
aF-0.00022723820216770588
asg5
I0
sg6
F0.0
sg7
(F-1.6315529982196253
F-1.2164352575885218
F-2.0620420614825647
F-1.4444883505450647
F1.5704405307769775
F-0.06052905717958623
tp71
sg9
(lp72
F0.025885009765625
aF0.0
aF-0.07293701171875
aF0.0
aF0.0
aF0.0
asg11
I01
sg12
g13
sg14
I00
sg15
g16
sa(dp73
g2
F0.0
sg3
(lp74
F0.1962836468580181
aF0.4584102045680128
aF0.5221343418715948
aF3.1308376281251893
aF0.000317630892236023
aF-0.00020747273864724054
asg5
I0
sg6
F0.0
sg7
(F-1.6402867476092737
F-1.221492115651266
F-2.0723021666156214
F-1.4293459097491663
F1.5703686475753784
F-0.069282356892721
tp75
sg9
(lp76
F0.0
aF0.0
aF-0.07293701171875
aF0.0
aF0.0
aF0.0
asg11
I01
sg12
g13
sg14
I00
sg15
g16
sa(dp77
g2
F0.0
sg3
(lp78
F0.19650918504936632
aF0.4583558905293566
aF0.5152028697084718
aF3.1309233451171083
aF0.0002832748400875306
aF2.1301595345420143e-05
asg5
I0
sg6
F0.0
sg7
(F-1.6407654921161097
F-1.2236016432391565
F-2.0832560698138636
F-1.416194264088766
F1.5703327655792236
F-0.06998950639833623
tp79
sg9
(lp80
F0.0
aF0.0
aF-0.08548583984375001
aF0.0
aF0.0
aF0.0
asg11
I01
sg12
g13
sg14
I00
sg15
g16
sa(dp81
g2
F0.0
sg3
(lp82
F0.1965056975059077
aF0.4581329213813317
aF0.5069551168771347
aF3.1304891174294682
aF0.0002997748959963383
aF-0.0001703725564059208
asg5
I0
sg6
F0.0
sg7
(F-1.6407888571368616
F-1.2259262243853968
F-2.0963290373431605
F-1.4012311140643519
F1.570320725440979
F-0.06982118288149053
tp83
sg9
(lp84
F0.0
aF0.0
aF-0.09332885742187501
aF0.0
aF0.0
aF0.0
asg11
I01
sg12
g13
sg14
I00
sg15
g16
sa(dp85
g2
F0.0
sg3
(lp86
F0.1962605523972418
aF0.458096897900565
aF0.498456525894025
aF3.130996170811535
aF0.00019784671862776236
aF-0.00025443870622830956
asg5
I0
sg6
F0.0
sg7
(F-1.6402629057513636
F-1.2286227385150355
F-2.10984450975527
F-1.3845065275775355
F1.5702608823776245
F-0.06921035448183233
tp87
sg9
(lp88
F-0.052545166015625006
aF0.0
aF-0.09489746093750001
aF0.0
aF0.0
aF0.0
asg11
I01
sg12
g13
sg14
I00
sg15
g16
sa(dp89
g2
F0.0
sg3
(lp90
F0.19246309613750487
aF0.45782965319372426
aF0.4885257993440472
aF3.130795292495743
aF0.00013791999899776306
aF-0.00016402336819841708
asg5
I0
sg6
F0.0
sg7
(F-1.6322348753558558
F-1.2291014830218714
F-2.1272266546832483
F-1.3668463865863245
F1.5702728033065796
F-0.061272446309224904
tp91
sg9
(lp92
F-0.0572509765625
aF0.0
aF-0.09489746093750001
aF0.0
aF0.0
aF0.0
asg11
I01
sg12
g13
sg14
I00
sg15
g16
sa(dp93
g2
F0.0
sg3
(lp94
F0.1865875061836248
aF0.4577745034560893
aF0.4789664541945331
aF3.1312874632105414
aF-9.992299651812778e-06
aF-0.00021491672854662686
asg5
I0
sg6
F0.0
sg7
(F-1.6196964422809046
F-1.2285388151751917
F-2.1448124090777796
F-1.349330250416891
F1.5702848434448242
F-0.048682514821187794
tp95
sg9
(lp96
F-0.068231201171875
aF0.0
aF-0.09489746093750001
aF0.0
aF0.0
aF0.0
asg11
I01
sg12
g13
sg14
I00
sg15
g16
sa(dp97
g2
F0.0
sg3
(lp98
F0.18042630315330135
aF0.45749823654403043
aF0.4695597944999752
aF3.1307336658537293
aF1.9729390754009608e-05
aF-2.8792019078425066e-05
asg5
I0
sg6
F0.0
sg7
(F-1.6065118948565882
F-1.2278550306903284
F-2.1620495955096644
F-1.333337132130758
F1.5704286098480225
F-0.03568488756288701
tp99
sg9
(lp100
F-0.07921142578125001
aF0.0
aF-0.09489746093750001
aF0.0
aF0.0
aF0.0
asg11
I01
sg12
g13
sg14
I00
sg15
g16
sa(dp101
g2
F0.0
sg3
(lp102
F0.17254431162051606
aF0.45734323147208267
aF0.46002002121385854
aF3.1313300301251075
aF8.623950101319961e-05
aF-0.00013978229466852704
asg5
I0
sg6
F0.0
sg7
(F-1.5895217100726526
F-1.226537052785055
F-2.1802333037005823
F-1.315881077443258
F1.5706918239593506
F-0.01858550706972295
tp103
sg9
(lp104
F-0.07921142578125001
aF0.0
aF-0.09489746093750001
aF0.0
aF0.0
aF0.0
asg11
I01
sg12
g13
sg14
I00
sg15
g16
sa(dp105
g2
F0.0
sg3
(lp106
F0.16486444002855646
aF0.45709963250394287
aF0.4507366172791202
aF3.130973227705735
aF9.728591464379197e-05
aF3.849856010874741e-05
asg5
I0
sg6
F0.0
sg7
(F-1.5728309790240687
F-1.2256982962237757
F-2.1975300947772425
F-1.2997801939593714
F1.5708715915679932
F-0.0020740667926233414
tp107
sg9
(lp108
F-0.049407958984375
aF0.0
aF-0.09489746093750001
aF0.0
aF0.0
aF0.0
asg11
I01
sg12
g13
sg14
I00
sg15
g16
sa(dp109
g2
F0.0
sg3
(lp110
F0.15827527550593343
aF0.4569005853418356
aF0.44092934975473397
aF3.130747512428467
aF8.260015906425773e-05
aF-0.00020956685043578587
asg5
I0
sg6
F0.0
sg7
(F-1.558413330708639
F-1.2265132109271448
F-2.214863125477926
F-1.281855885182516
F1.571015477180481
F0.012590927071869373
tp111
sg9
(lp112
F-0.02274169921875
aF0.0
aF-0.09489746093750001
aF0.0
aF0.0
aF0.0
asg11
I01
sg12
g13
sg14
I00
sg15
g16
sa(dp113
g2
F0.0
sg3
(lp114
F0.1556497655355321
aF0.45675600594698357
aF0.4320062215717056
aF3.131201670302819
aF9.966546717013159e-05
aF-0.00026946700321028546
asg5
I0
sg6
F0.0
sg7
(F-1.552645508443014
F-1.2299764792071741
F-2.229166809712545
F-1.2636330763446253
F1.57108736038208
F0.01841825619339943
tp115
sg9
(lp116
F0.0
aF0.0
aF-0.09489746093750001
aF0.0
aF0.0
aF0.0
asg11
I01
sg12
g13
sg14
I00
sg15
g16
sa(dp117
g2
F0.0
sg3
(lp118
F0.1555681688678227
aF0.4565823785461541
aF0.4221900181157718
aF3.13120181624561
aF0.00019504136715050357
aF-0.00011507249857573784
asg5
I0
sg6
F0.0
sg7
(F-1.5524781386004847
F-1.2361481825457972
F-2.243422333394186
F-1.2432039419757288
F1.5711828470230103
F0.01843024045228958
tp119
sg9
(lp120
F0.0
aF0.0
aF-0.09489746093750001
aF0.0
aF0.0
aF0.0
asg11
I01
sg12
g13
sg14
I00
sg15
g16
sa(dp121
g2
F0.0
sg3
(lp122
F0.1556560804089787
aF0.45634775306601094
aF0.4129789922353088
aF3.1309976051255126
aF0.00022855117632537773
aF-0.00018734584570069868
asg5
I0
sg6
F0.0
sg7
(F-1.5526698271380823
F-1.2423551718341272
F-2.2565892378436487
F-1.2240336577044886
F1.5712188482284546
F0.01831039786338806
tp123
sg9
(lp124
F0.0
aF0.0
aF-0.09489746093750001
aF0.0
aF0.0
aF0.0
asg11
I01
sg12
g13
sg14
I00
sg15
g16
sa(dp125
g2
F0.0
sg3
(lp126
F0.15570364035064443
aF0.456304966520929
aF0.40352431250169546
aF3.1313944832721288
aF0.00020152536429925844
aF-0.00011496013380908828
asg5
I0
sg6
F0.0
sg7
(F-1.5527656714068812
F-1.2494733969317835
F-2.269862953816549
F-1.2032454649554651
F1.5711828470230103
F0.018142618238925934
tp127
sg9
(lp128
F0.061962890625
aF0.0
aF-0.07607421875
aF0.0
aF0.0
aF0.0
asg11
I01
sg12
g13
sg14
I00
sg15
g16
sa(dp129
g2
F0.0
sg3
(lp130
F0.1590108607027114
aF0.45600400236034
aF0.3948218185724099
aF3.1308176707732867
aF0.00031272933786651654
aF-0.0005557986453977782
asg5
I0
sg6
F0.0
sg7
(F-1.560052220021383
F-1.2582572142230433
F-2.2805398146258753
F-1.1843627134906214
F1.5712307691574097
F0.011295881122350693
tp131
sg9
(lp132
F0.06510009765625001
aF0.0
aF-0.07293701171875
aF0.0
aF0.0
aF0.0
asg11
I01
sg12
g13
sg14
I00
sg15
g16
sa(dp133
g2
F0.0
sg3
(lp134
F0.1647382741751627
aF0.4558962768083333
aF0.38797106556836464
aF3.131138765425734
aF0.0003650285936603938
aF-0.00044450111913956804
asg5
I0
sg6
F0.0
sg7
(F-1.5726154486285608
F-1.2678912321673792
F-2.2873974482165735
F-1.1675546805011194
F1.5711469650268555
F-0.001378361378804982
tp135
sg9
(lp136
F0.03372802734375
aF0.0
aF-0.071368408203125
aF0.0
aF0.0
aF0.0
asg11
I01
sg12
g13
sg14
I00
sg15
g16
sa(dp137
g2
F0.0
sg3
(lp138
F0.16897240780950243
aF0.45569590760053214
aF0.3804646973799234
aF3.130966251302765
aF0.0003570249070789188
aF-0.0003514429056806741
asg5
I0
sg6
F0.0
sg7
(F-1.5818641821490687
F-1.2772629896747034
F-2.295596424733297
F-1.1501591841327112
F1.5710394382476807
F-0.0107196013080042
tp139
sg9
(lp140
F0.03372802734375
aF0.0
aF-0.06979980468750001
aF0.0
aF0.0
aF0.0
asg11
I01
sg12
g13
sg14
I00
sg15
g16
sa(dp141
g2
F0.0
sg3
(lp142
F0.17221799396085893
aF0.4556305152754558
aF0.37371567774474274
aF3.130946434958012
aF0.0003007322660125689
aF-0.000335665223971238
asg5
I0
sg6
F0.0
sg7
(F-1.588923756276266
F-1.285806957875387
F-2.3029571215258997
F-1.1342747847186487
F1.5709075927734375
F-0.017793957387105763
tp143
sg9
(lp144
F0.03372802734375
aF0.0
aF-0.068231201171875
aF0.0
aF0.0
aF0.0
asg11
I01
sg12
g13
sg14
I00
sg15
g16
sa(dp145
g2
F0.0
sg3
(lp146
F0.1756484505897918
aF0.455471057650753
aF0.36652463009499736
aF3.1308080578945723
aF0.00027758099089783084
aF-0.0001628487280814886
asg5
I0
sg6
F0.0
sg7
(F-1.5963776747332972
F-1.2950461546527308
F-2.3107247988330286
F-1.117406193410055
F1.570799708366394
F-0.02542001405824834
tp147
sg9
(lp148
F0.032159423828125
aF0.0
aF-0.06666259765625
aF0.0
aF0.0
aF0.0
asg11
I01
sg12
g13
sg14
I00
sg15
g16
sa(dp149
g2
F0.0
sg3
(lp150
F0.17896533613953108
aF0.4553059117926935
aF0.3595834393474355
aF3.1309443922815734
aF0.00030399679898849414
aF-6.257916774972713e-05
asg5
I0
sg6
F0.0
sg7
(F-1.6035803000079554
F-1.304249111806051
F-2.3181336561786097
F-1.1006587187396448
F1.5707517862319946
F-0.0327227751361292
tp151
sg9
(lp152
F0.0
aF0.0
aF-0.06666259765625
aF0.0
aF0.0
aF0.0
asg11
I01
sg12
g13
sg14
I00
sg15
g16
sa(dp153
g2
F0.0
sg3
(lp154
F0.18028016678693204
aF0.4553265660502095
aF0.35337129845955556
aF3.1310777724237915
aF0.0002689144138301921
aF-0.00011594470878943287
asg5
I0
sg6
F0.0
sg7
(F-1.6064160505877894
F-1.3117993513690394
F-2.3252788225757044
F-1.0858286062823694
F1.5706918239593506
F-0.03550464311708623
tp155
sg9
(lp156
F0.0
aF0.0
aF-0.06666259765625
aF0.0
aF0.0
aF0.0
asg11
I01
sg12
g13
sg14
I00
sg15
g16
sa(dp157
g2
F0.0
sg3
(lp158
F0.18025361740124293
aF0.4551736793177353
aF0.34630516588385074
aF3.1308655130609746
aF0.00020285546253224208
aF-0.00021106666874696575
asg5
I0
sg6
F0.0
sg7
(F-1.6063559691058558
F-1.3191693464862269
F-2.33423096338381
F-1.0697162787066858
F1.5706199407577515
F-0.03534871736635381
tp159
sg9
(lp160
F0.0
aF0.0
aF-0.06666259765625
aF0.0
aF0.0
aF0.0
asg11
I01
sg12
g13
sg14
I00
sg15
g16
sa(dp161
g2
F0.0
sg3
(lp162
F0.1802600642759241
aF0.45498353482242815
aF0.33978467245371446
aF3.130569198332274
aF0.00018856535352765774
aF-0.0003067040891579532
asg5
I0
sg6
F0.0
sg7
(F-1.606379810963766
F-1.3261678854571741
F-2.3424058596240442
F-1.0548384825335901
F1.5705959796905518
F-0.03527671495546514
tp163
sg9
(lp164
F0.0
aF0.0
aF-0.06666259765625
aF0.0
aF0.0
aF0.0
asg11
I01
sg12
g13
sg14
I00
sg15
g16
sa(dp165
g2
F0.0
sg3
(lp166
F0.18022041716760354
aF0.45498255687555367
aF0.33313331757865416
aF3.1310418658313366
aF0.0001834277887274346
aF-0.0002709804882504155
asg5
I0
sg6
F0.0
sg7
(F-1.6062963644610804
F-1.3338730970965784
F-2.3506041208850306
F-1.0384624640094202
F1.5706080198287964
F-0.035229031239644826
tp167
sg9
(lp168
F0.0
aF0.0
aF-0.06666259765625
aF0.0
aF0.0
aF0.0
asg11
I01
sg12
g13
sg14
I00
sg15
g16
sa(dp169
g2
F0.0
sg3
(lp170
F0.18021101674729692
aF0.4548414106323371
aF0.32670189343027445
aF3.130817231237336
aF0.00017942633609051108
aF-0.0002470516828310363
asg5
I0
sg6
F0.0
sg7
(F-1.6062844435321253
F-1.341363255177633
F-2.3584192434894007
F-1.02338153520693
F1.5705959796905518
F-0.035240952168599904
tp171
sg9
(lp172
F0.0
aF0.0
aF-0.06666259765625
aF0.0
aF0.0
aF0.0
asg11
I01
sg12
g13
sg14
I00
sg15
g16
sa(dp173
g2
F0.0
sg3
(lp174
F0.18021655637043593
aF0.4548116036238778
aF0.31975432015307087
aF3.13086946903249
aF0.00016565700826293593
aF-0.0002588354664804588
asg5
I0
sg6
F0.0
sg7
(F-1.6062963644610804
F-1.3499797026263636
F-2.3666415850268763
F-1.0064900557147425
F1.5705840587615967
F-0.035240952168599904
tp175
sg9
(lp176
F0.0
aF0.0
aF-0.06666259765625
aF0.0
aF0.0
aF0.0
asg11
I01
sg12
g13
sg14
I00
sg15
g16
sa(dp177
g2
F0.0
sg3
(lp178
F0.18022699202810233
aF0.45467142574983777
aF0.31331075779967166
aF3.1307517399777116
aF0.00012159998260485706
aF-0.0003060180948695633
asg5
I0
sg6
F0.0
sg7
(F-1.6063202063189905
F-1.3580330053912562
F-2.3742650190936487
F-0.9909294287310999
F1.5705361366271973
F-0.03521711031068975
tp179
sg9
(lp180
F0.0
aF0.0
aF-0.06666259765625
aF0.0
aF0.0
aF0.0
asg11
I01
sg12
g13
sg14
I00
sg15
g16
sa(dp181
g2
F0.0
sg3
(lp182
F0.18023005399045855
aF0.4545105716828353
aF0.306454122638386
aF3.130805246587931
aF0.00014407531597015585
aF-0.0002943512147396557
asg5
I0
sg6
F0.0
sg7
(F-1.6063440481769007
F-1.3668649832354944
F-2.382319513951437
F-0.9739902655230921
F1.570560097694397
F-0.03525287309755498
tp183
sg9
(lp184
F0.0
aF0.0
aF-0.06666259765625
aF0.0
aF0.0
aF0.0
asg11
I01
sg12
g13
sg14
I00
sg15
g16
sa(dp185
g2
F0.0
sg3
(lp186
F0.18021308346827697
aF0.4546202954500823
aF0.2997648110196984
aF3.1312870816180953
aF0.00011503496656901554
aF-0.0002464781198903164
asg5
I0
sg6
F0.0
sg7
(F-1.6062963644610804
F-1.376261059437887
F-2.3897996584521692
F-0.9566314856158655
F1.5705480575561523
F-0.03525287309755498
tp187
sg9
(lp188
F0.0
aF0.0
aF-0.06666259765625
aF0.0
aF0.0
aF0.0
asg11
I01
sg12
g13
sg14
I00
sg15
g16
sa(dp189
g2
F0.0
sg3
(lp190
F0.18021380255948682
aF0.4544858419652812
aF0.293234253048214
aF3.130991145249674
aF0.00012509280553622094
aF-0.00029419541305638345
asg5
I0
sg6
F0.0
sg7
(F-1.6063082853900355
F-1.385284725819723
F-2.397111956273214
F-0.9405916372882288
F1.5705480575561523
F-0.03521711031068975
tp191
sg9
(lp192
F0.0
aF0.0
aF-0.06666259765625
aF0.0
aF0.0
aF0.0
asg11
I01
sg12
g13
sg14
I00
sg15
g16
sa(dp193
g2
F0.0
sg3
(lp194
F0.18020768859724515
aF0.4542214104641259
aF0.28627153978558423
aF3.130852123952608
aF0.00015396540018138574
aF-0.00030639138282008026
asg5
I0
sg6
F0.0
sg7
(F-1.6063202063189905
F-1.3949797789203089
F-2.404999081288473
F-0.9231494108783167
F1.570572018623352
F-0.03521711031068975
tp195
sg9
(lp196
F0.0
aF0.0
aF-0.065093994140625
aF0.0
aF0.0
aF0.0
asg11
I01
sg12
g13
sg14
I00
sg15
g16
sa(dp197
g2
F0.0
sg3
(lp198
F0.18021203457307797
aF0.4542505495369838
aF0.28025405826715283
aF3.131116059836548
aF0.00010913890406083581
aF-0.0002702153078118739
asg5
I0
sg6
F0.0
sg7
(F-1.6063202063189905
F-1.404111687337057
F-2.4114256540881556
F-0.907325569783346
F1.5705361366271973
F-0.03525287309755498
tp199
sg9
(lp200
F0.0
aF0.0
aF-0.038427734375
aF0.0
aF0.0
aF0.0
asg11
I01
sg12
g13
sg14
I00
sg15
g16
sa(dp201
g2
F0.0
sg3
(lp202
F0.1802077041388477
aF0.4541909013081339
aF0.27565598632913746
aF3.1309355771982808
aF0.0001392246203999815
aF-0.00029433138275719215
asg5
I0
sg6
F0.0
sg7
(F-1.6063202063189905
F-1.4110987822162073
F-2.4162843863116663
F-0.8956611792193812
F1.570560097694397
F-0.035229031239644826
tp203
sg9
(lp204
F0.0
aF0.0
aF0.0
aF0.0
aF0.0
aF0.0
asg11
I01
sg12
g13
sg14
I00
sg15
g16
sa(dp205
g2
F0.0
sg3
(lp206
F0.18021568494126947
aF0.4541987621534312
aF0.27515419348219317
aF3.1310560170125914
aF0.00011138216172472248
aF-0.00027022258618382666
asg5
I0
sg6
F0.0
sg7
(F-1.6063321272479456
F-1.4119017759906214
F-2.4168224970446985
F-0.8941987196551722
F1.5705361366271973
F-0.03526479402651006
tp207
sg9
(lp208
F0.0
aF0.0
aF0.0
aF0.0
aF0.0
aF0.0
asg11
I01
sg12
g13
sg14
I00
sg15
g16
sa(dp209
g2
F0.0
sg3
(lp210
F0.18019918853597752
aF0.45416798094968863
aF0.27517999394863746
aF3.130866133244837
aF0.00016577461411816123
aF-0.00027075694822760807
asg5
I0
sg6
F0.0
sg7
(F-1.6063082853900355
F-1.4117940107928675
F-2.4167986551867884
F-0.8945220152484339
F1.5705840587615967
F-0.035240952168599904
tp211
sg9
(lp212
F0.0
aF0.0
aF0.0
aF0.0
aF0.0
aF0.0
asg11
I01
sg12
g13
sg14
I00
sg15
g16
sa(dp213
g2
F0.0
sg3
(lp214
F0.1801935347645164
aF0.45416338107382787
aF0.2751488272992012
aF3.130794177546802
aF0.00016844026534847622
aF-0.00024692780519589854
asg5
I0
sg6
F0.0
sg7
(F-1.6062963644610804
F-1.4118297735797327
F-2.4168224970446985
F-0.8945344130145472
F1.5705840587615967
F-0.03525287309755498
tp215
sg9
(lp216
F0.0
aF0.0
aF0.0
aF0.0
aF0.0
aF0.0
asg11
I01
sg12
g13
sg14
I00
sg15
g16
sa.