(lp0
(dp1
S'start_gripper_pos'
p2
F0.0
sS'curr_pos'
p3
(lp4
F0.16451272513259096
aF0.45950768329092423
aF0.5960676771958668
aF3.130923698529393
aF0.0002534588199457991
aF-0.00032419995602062416
asS'gripper_ac'
p5
I0
sS'curr_gripper_pos'
p6
F0.0
sS'curr_q'
p7
(F-1.5720890204059046
F-1.1903484503375452
F-1.9618056456195276
F-1.5709040800677698
F1.5710394382476807
F-0.0009711424456995132
tp8
sS'xdot_h'
p9
(lp10
F0.189019775390625
aF-0.03372802734375
aF0.0
aF0.0
aF0.0
aF0.0
asS'trans_mode'
p11
I01
sS'start_pos'
p12
(lp13
F0.16401873067278092
aF0.45950385011021705
aF0.5961980920850869
aF3.131078448927105
aF0.0002319392831839127
aF-0.00013420388843701688
asS'slow_mode'
p14
I00
sS'start_q'
p15
(F-1.5710118452655237
F-1.1900013128863733
F-1.961818043385641
F-1.5710838476764124
F1.571027398109436
F-8.374849428349762e-05
tp16
sa(dp17
g2
F0.0
sg3
(lp18
F0.17542861222429795
aF0.4578115846112531
aF0.595917233990744
aF3.1306987185979747
aF0.0003030381589135564
aF-0.0007883324436589159
asg5
I0
sg6
F0.0
sg7
(F-1.5957797209369105
F-1.1945064703570765
F-1.9595072905169886
F-1.5692732969867151
F1.5708357095718384
F-0.024196926747457326
tp19
sg9
(lp20
F0.2
aF-0.061962890625
aF0.0
aF0.0
aF0.0
aF0.0
asg11
I01
sg12
g13
sg14
I00
sg15
g16
sa(dp21
g2
F0.0
sg3
(lp22
F0.19941498979613773
aF0.4492514672785097
aF0.5954583112331737
aF3.130782282497304
aF0.00045321426549137906
aF-0.0006218780475535582
asg5
I0
sg6
F0.0
sg7
(F-1.6484220663653772
F-1.1968191305743616
F-1.9589198271380823
F-1.567463223134176
F1.5704165697097778
F-0.0770042578326624
tp23
sg9
(lp24
F0.09804077148437501
aF-0.138824462890625
aF-0.19528808593750002
aF0.0
aF0.0
aF0.0
asg11
I01
sg12
g13
sg14
I00
sg15
g16
sa(dp25
g2
F0.0
sg3
(lp26
F0.21374749937733342
aF0.4396090823103979
aF0.5886665547437107
aF3.1308693450677496
aF0.0003785816561020568
aF-0.0005582007272938023
asg5
I0
sg6
F0.0
sg7
(F-1.681190315877096
F-1.191930119191305
F-1.973779026662008
F-1.5573800245868128
F1.5699971914291382
F-0.10983354250063115
tp27
sg9
(lp28
F-0.193719482421875
aF0.0
aF-0.19999389648437502
aF0.0
aF0.0
aF0.0
asg11
I01
sg12
g13
sg14
I00
sg15
g16
sa(dp29
g2
F0.0
sg3
(lp30
F0.2049066176330006
aF0.43595188795376655
aF0.5685212185158302
aF3.1304798346614917
aF0.0003018129067025558
aF0.0006597524971422773
asg5
I0
sg6
F0.0
sg7
(F-1.6627543608294886
F-1.1798751989947718
F-2.0161402861224573
F-1.5274665991412562
F1.5700690746307373
F-0.09261542955507451
tp31
sg9
(lp32
F-0.19999389648437502
aF0.032153320312500004
aF-0.19999389648437502
aF0.0
aF0.0
aF0.0
asg11
I01
sg12
g13
sg14
I00
sg15
g16
sa(dp33
g2
F0.0
sg3
(lp34
F0.1856522569446767
aF0.43637657369533717
aF0.5494112296272421
aF3.1311736357687074
aF7.2934596634935225e-06
aF0.0006604959576544173
asg5
I0
sg6
F0.0
sg7
(F-1.6199477354632776
F-1.1676529089557093
F-2.056906048451559
F-1.4982364813434046
F1.5702848434448242
F-0.04980928102602178
tp35
sg9
(lp36
F-0.19999389648437502
aF0.043133544921875
aF-0.19999389648437502
aF0.0
aF0.0
aF0.0
asg11
I01
sg12
g13
sg14
I00
sg15
g16
sa(dp37
g2
F0.0
sg3
(lp38
F0.16476349096433665
aF0.44001206079598376
aF0.5286561950405654
aF3.1313483284371975
aF1.5903015388727036e-05
aF0.0005190752330231789
asg5
I0
sg6
F0.0
sg7
(F-1.5726631323443812
F-1.1628602186786097
F-2.096149746571676
F-1.463623348866598
F1.570787787437439
F-0.002385918294088185
tp39
sg9
(lp40
F0.0
aF0.10430908203125
aF-0.10117187500000001
aF0.0
aF0.0
aF0.0
asg11
I01
sg12
g13
sg14
I00
sg15
g16
sa(dp41
g2
F0.0
sg3
(lp42
F0.15397255620754377
aF0.44805770843857534
aF0.5124379506815954
aF3.13133740050298
aF-1.0796279266490852e-05
aF-0.0001340600234634369
asg5
I0
sg6
F0.0
sg7
(F-1.5485060850726526
F-1.1748908201800745
F-2.117793385182516
F-1.429957691823141
F1.571015477180481
F0.022423233836889267
tp43
sg9
(lp44
F0.2
aF0.0
aF-0.099603271484375
aF0.0
aF0.0
aF0.0
asg11
I01
sg12
g13
sg14
I00
sg15
g16
sa(dp45
g2
F0.0
sg3
(lp46
F0.16838304344105515
aF0.45194689374501384
aF0.50274601304168
aF3.1310717171491786
aF0.00015265510270185683
aF-0.0013359662149954393
asg5
I0
sg6
F0.0
sg7
(F-1.5806201140033167
F-1.1950934568988245
F-2.122941319142477
F-1.4048760573016565
F1.570859670639038
F-0.008488957081929982
tp47
sg9
(lp48
F0.160784912109375
aF0.08705444335937501
aF-0.19999389648437502
aF0.0
aF0.0
aF0.0
asg11
I01
sg12
g13
sg14
I00
sg15
g16
sa(dp49
g2
F0.0
sg3
(lp50
F0.18692012297269586
aF0.4553443387493757
aF0.48535302471628183
aF3.131240103370173
aF0.00028367119996584113
aF-0.0008749891810776425
asg5
I0
sg6
F0.0
sg7
(F-1.620725456868307
F-1.2215402762042444
F-2.1377490202533167
F-1.3634536902057093
F1.570572018623352
F-0.04905444780458623
tp51
sg9
(lp52
F-0.036859130859375
aF0.19215087890625002
aF-0.19999389648437502
aF0.0
aF0.0
aF0.0
asg11
I01
sg12
g13
sg14
I00
sg15
g16
sa(dp53
g2
F0.0
sg3
(lp54
F0.18683227710212413
aF0.47074977127200585
aF0.4655421669785303
aF3.1310367093531353
aF0.0003091516167263764
aF0.00010369061400187505
asg5
I0
sg6
F0.0
sg7
(F-1.6189430395709437
F-1.2592876593219202
F-2.149109665547506
F-1.3145502249347132
F1.5705959796905518
F-0.048250977193013966
tp55
sg9
(lp56
F-0.138818359375
aF0.165484619140625
aF-0.19999389648437502
aF0.0
aF0.0
aF0.0
asg11
I01
sg12
g13
sg14
I00
sg15
g16
sa(dp57
g2
F0.0
sg3
(lp58
F0.17349899421523837
aF0.48747880433014257
aF0.44424577062165754
aF3.1307873756136337
aF0.00014607085397615025
aF0.00032891270603558557
asg5
I0
sg6
F0.0
sg7
(F-1.5903237501727503
F-1.2930806318866175
F-2.1650784651385706
F-1.2650359312640589
F1.570727825164795
F-0.019856754933492482
tp59
sg9
(lp60
F-0.16705322265625
aF-0.050982666015625004
aF-0.19999389648437502
aF0.0
aF0.0
aF0.0
asg11
I01
sg12
g13
sg14
I00
sg15
g16
sa(dp61
g2
F0.0
sg3
(lp62
F0.15674339813394056
aF0.4910224720407457
aF0.4230697032197068
aF3.130107877723986
aF3.0206356825974335e-05
aF0.0002899211146516826
asg5
I0
sg6
F0.0
sg7
(F-1.5561397711383265
F-1.3031829039203089
F-2.197134796773092
F-1.2235544363604944
F1.5709915161132812
F0.01436534058302641
tp63
sg9
(lp64
F0.0
aF-0.2
aF-0.19999389648437502
aF0.0
aF0.0
aF0.0
asg11
I01
sg12
g13
sg14
I00
sg15
g16
sa(dp65
g2
F0.0
sg3
(lp66
F0.15103924809766403
aF0.47443929352798114
aF0.40437148390919136
aF3.131025943955652
aF1.3102243668898084e-05
aF-0.00014484975122559067
asg5
I0
sg6
F0.0
sg7
(F-1.543539826069967
F-1.2816489378558558
F-2.2471569220172327
F-1.1941455046283167
F1.5710989236831665
F0.027399683371186256
tp67
sg9
(lp68
F0.0
aF-0.024316406250000002
aF-0.19999389648437502
aF0.0
aF0.0
aF0.0
asg11
I01
sg12
g13
sg14
I00
sg15
g16
sa(dp69
g2
F0.0
sg3
(lp70
F0.15133780782084796
aF0.4617656973580281
aF0.38385881054258797
aF3.1312968752857526
aF5.357999840983429e-05
aF-0.0003374552092887148
asg5
I0
sg6
F0.0
sg7
(F-1.5434444586383265
F-1.2740033308612269
F-2.2912994066821497
F-1.1573765913592737
F1.5711349248886108
F0.027687305584549904
tp71
sg9
(lp72
F0.0
aF0.0
aF-0.19999389648437502
aF0.0
aF0.0
aF0.0
asg11
I01
sg12
g13
sg14
I00
sg15
g16
sa(dp73
g2
F0.0
sg3
(lp74
F0.15148197392264104
aF0.4606898360333261
aF0.3646783234045884
aF3.1305926323223052
aF3.829299115262844e-05
aF-0.00020530617387055553
asg5
I0
sg6
F0.0
sg7
(F-1.5436957518206995
F-1.290156666432516
F-2.31757098833193
F-1.1156562010394495
F1.5711349248886108
F0.02730380930006504
tp75
sg9
(lp76
F0.0
aF0.0
aF-0.19999389648437502
aF0.0
aF0.0
aF0.0
asg11
I01
sg12
g13
sg14
I00
sg15
g16
sa(dp77
g2
F0.0
sg3
(lp78
F0.1514960183832689
aF0.4599677028595996
aF0.3447644266803307
aF3.1307266024403733
aF0.00010167279814939247
aF-0.000229919081024214
asg5
I0
sg6
F0.0
sg7
(F-1.5436957518206995
F-1.3097975889789026
F-2.3437462488757532
F-1.0697043577777308
F1.5711948871612549
F0.027327777817845345
tp79
sg9
(lp80
F0.0
aF0.0
aF0.0
aF0.0
aF0.0
aF0.0
asg11
I01
sg12
g13
sg14
I00
sg15
g16
sa(dp81
g2
F0.0
sg3
(lp82
F0.15150926446287008
aF0.4599173483266413
aF0.3380974986103858
aF3.131604961031957
aF0.00017326345077671833
aF-0.0003020112491827904
asg5
I0
sg6
F0.0
sg7
(F-1.5437315146075647
F-1.317251984273092
F-2.352255646382467
F-1.0528605620013636
F1.5712428092956543
F0.0273637305945158
tp83
sg9
(lp84
F0.0
aF0.0
aF0.0
aF0.0
aF0.0
aF0.0
asg11
I01
sg12
g13
sg14
I00
sg15
g16
sa(dp85
g2
F0.0
sg3
(lp86
F0.1515058282691124
aF0.4598029955485845
aF0.3373593861288201
aF3.131438764153387
aF0.0001810036891514762
aF-0.00025428875470633804
asg5
I0
sg6
F0.0
sg7
(F-1.5437195936786097
F-1.3178871313678187
F-2.3532727400409144
F-1.0513742605792444
F1.5712547302246094
F0.027327777817845345
tp87
sg9
(lp88
F0.0
aF0.0
aF-0.19999389648437502
aF0.0
aF0.0
aF0.0
asg11
I01
sg12
g13
sg14
I00
sg15
g16
sa(dp89
g2
F0.0
sg3
(lp90
F0.1515028647236849
aF0.4593484600828922
aF0.3228376997414653
aF3.1304071656500376
aF0.0002012748833873973
aF-0.0001832224896696517
asg5
I0
sg6
F0.0
sg7
(F-1.5436957518206995
F-1.3345802466021937
F-2.371105734501974
F-1.017878834401266
F1.5713026523590088
F0.027279842644929886
tp91
sg9
(lp92
F0.0
aF0.0
aF-0.19999389648437502
aF0.0
aF0.0
aF0.0
asg11
I01
sg12
g13
sg14
I00
sg15
g16
sa(dp93
g2
F0.0
sg3
(lp94
F0.15153265005639618
aF0.458808590221819
aF0.3038575195417348
aF3.13076551028571
aF0.00022244983663999312
aF-0.00027895755485413945
asg5
I0
sg6
F0.0
sg7
(F-1.5437315146075647
F-1.3584883848773401
F-2.3939641157733362
F-0.9707534948932093
F1.5713146924972534
F0.027339762076735497
tp95
sg9
(lp96
F0.0
aF0.0
aF-0.19999389648437502
aF0.0
aF0.0
aF0.0
asg11
I01
sg12
g13
sg14
I00
sg15
g16
sa(dp97
g2
F0.0
sg3
(lp98
F0.15153188810717486
aF0.45799663605152574
aF0.2856671473195026
aF3.130509703382565
aF0.0002277762476574054
aF-0.00019551127544635934
asg5
I0
sg6
F0.0
sg7
(F-1.5436838308917444
F-1.3830793539630335
F-2.4152429739581507
F-0.9251392523394983
F1.5713266134262085
F0.02730380930006504
tp99
sg9
(lp100
F0.0
aF0.0
aF0.0
aF0.0
aF0.0
aF0.0
asg11
I01
sg12
g13
sg14
I00
sg15
g16
sa(dp101
g2
F0.0
sg3
(lp102
F0.15153869447643342
aF0.45798571314535264
aF0.28212173658102474
aF3.1314652455831644
aF0.00024158795090758588
aF-0.0002430324163176566
asg5
I0
sg6
F0.0
sg7
(F-1.5436957518206995
F-1.3884242216693323
F-2.4193242231952112
F-0.9147575537310999
F1.5713146924972534
F0.027339762076735497
tp103
sg9
(lp104
F0.0
aF0.0
aF0.0
aF0.0
aF0.0
aF0.0
asg11
I01
sg12
g13
sg14
I00
sg15
g16
sa(dp105
g2
F0.0
sg3
(lp106
F0.15154909274437525
aF0.45784262168199097
aF0.2822958877485246
aF3.1312494206554664
aF0.00022413656632815478
aF-0.0002069459691619167
asg5
I0
sg6
F0.0
sg7
(F-1.5437076727496546
F-1.3878849188434046
F-2.419288221989767
F-0.9155491034137171
F1.5713026523590088
F0.02729182504117489
tp107
sg9
(lp108
F0.0
aF0.0
aF-0.02587890625
aF0.0
aF0.0
aF0.0
asg11
I01
sg12
g13
sg14
I00
sg15
g16
sa(dp109
g2
F0.0
sg3
(lp110
F0.15155718945272725
aF0.45786150613640847
aF0.2799648045356674
aF3.131409871615465
aF0.00025224211571898394
aF-0.00025496252510674234
asg5
I0
sg6
F0.0
sg7
(F-1.5437315146075647
F-1.3915045897113245
F-2.4217892328845423
F-0.9092672506915491
F1.5713266134262085
F0.027315793558955193
tp111
sg9
(lp112
F0.0
aF0.0
aF-0.19999389648437502
aF0.0
aF0.0
aF0.0
asg11
I01
sg12
g13
sg14
I00
sg15
g16
sa(dp113
g2
F0.0
sg3
(lp114
F0.15158505553124343
aF0.45719815447582296
aF0.2629766264453586
aF3.12982942269146
aF0.0002213791627013716
aF-0.000255820392240518
asg5
I0
sg6
F0.0
sg7
(F-1.543755833302633
F-1.4174383322345179
F-2.440028254185812
F-0.8666752020465296
F1.5713386535644531
F0.02729182504117489
tp115
sg9
(lp116
F0.0
aF0.0
aF-0.19999389648437502
aF0.0
aF0.0
aF0.0
asg11
I01
sg12
g13
sg14
I00
sg15
g16
sa(dp117
g2
F0.0
sg3
(lp118
F0.1515656730244157
aF0.45655195760530737
aF0.24324267536684158
aF3.1303411962737178
aF0.0002227692135370082
aF-0.00021957884065084855
asg5
I0
sg6
F0.0
sg7
(F-1.5436719099627894
F-1.4504073301898401
F-2.4605398813830774
F-0.8126829306231897
F1.5713266134262085
F0.027339762076735497
tp119
sg9
(lp120
F0.0
aF0.0
aF0.0
aF0.0
aF0.0
aF0.0
asg11
I01
sg12
g13
sg14
I00
sg15
g16
sa(dp121
g2
F0.0
sg3
(lp122
F0.151590547504349
aF0.4561137932312037
aF0.23573990103892023
aF3.1308008789471784
aF0.00021163176870665767
aF-0.00021908994977162203
asg5
I0
sg6
F0.0
sg7
(F-1.5436957518206995
F-1.4633749167071741
F-2.4683547655688685
F-0.7914412657367151
F1.5713026523590088
F0.027315793558955193
tp123
sg9
(lp124
F0.0
aF0.0
aF0.0
aF0.0
aF0.0
aF0.0
asg11
I01
sg12
g13
sg14
I00
sg15
g16
sa(dp125
g2
F0.0
sg3
(lp126
F0.15158516736736097
aF0.45615403587248976
aF0.23597086413046692
aF3.131076946965494
aF0.00020699909667062588
aF-0.00023095150835391665
asg5
I0
sg6
F0.0
sg7
(F-1.5436838308917444
F-1.463027302418844
F-2.4681509176837366
F-0.7917168776141565
F1.5712907314300537
F0.027339762076735497
tp127
sg9
(lp128
F0.0
aF0.0
aF0.0
aF0.0
aF0.0
aF0.0
asg11
I01
sg12
g13
sg14
I00
sg15
g16
sa(dp129
g2
F0.0
sg3
(lp130
F0.1515986352251724
aF0.4560547466676301
aF0.23602635001004613
aF3.130596951431808
aF0.00019387106899964264
aF-0.000254889574111349
asg5
I0
sg6
F0.0
sg7
(F-1.5437076727496546
F-1.4627278486834925
F-2.4681270758258265
F-0.7925203482257288
F1.5712907314300537
F0.027339762076735497
tp131
sg9
(lp132
F0.0
aF0.0
aF0.0
aF0.0
aF0.0
aF0.0
asg11
I01
sg12
g13
sg14
I00
sg15
g16
sa.