(lp0
(dp1
S'start_gripper_pos'
p2
F0.0
sS'curr_pos'
p3
(lp4
F0.16404085516011885
aF0.4594759186685867
aF0.596090996593866
aF3.1309463456441344
aF0.00023105842690133722
aF-0.00026613882793324726
asS'gripper_ac'
p5
I0
sS'curr_gripper_pos'
p6
F0.0
sS'curr_q'
p7
(F-1.5710600058185022
F-1.1899893919574183
F-1.9619858900653284
F-1.5710600058185022
F1.571027398109436
F0.0
tp8
sS'xdot_h'
p9
(lp10
F0.0
aF0.0
aF0.0
aF0.0
aF0.0
aF0.0
asS'trans_mode'
p11
I01
sS'start_pos'
p12
(lp13
F0.16405291276810607
aF0.45948517301471353
aF0.5961761876799213
aF3.131006429730681
aF0.0002192626576509993
aF-0.00027809518271915894
asS'slow_mode'
p14
I00
sS'start_q'
p15
(F-1.5710480848895472
F-1.1900251547442835
F-1.961829964314596
F-1.5710838476764124
F1.5710753202438354
F-2.366701234990387e-05
tp16
sa(dp17
g2
F0.0
sg3
(lp18
F0.16405949440248532
aF0.45946336428596884
aF0.5961284345105481
aF3.1310188298537196
aF0.00020734912307252123
aF-0.00027796582255057087
asg5
I0
sg6
F0.0
sg7
(F-1.5710957686053675
F-1.18996507326235
F-1.961949650441305
F-1.5710480848895472
F1.5710034370422363
F-2.366701234990387e-05
tp19
sg9
(lp20
F0.0
aF0.0
aF0.0
aF0.0
aF0.0
aF0.0
asg11
I01
sg12
g13
sg14
I00
sg15
g16
sa(dp21
g2
F0.0
sg3
(lp22
F0.1640507036263816
aF0.45948541203297094
aF0.5960827758509673
aF3.130946348469766
aF0.000243222932856741
aF-0.0002783634483675034
asg5
I0
sg6
F0.0
sg7
(F-1.5710838476764124
F-1.1900132338153284
F-1.9619858900653284
F-1.571036163960592
F1.5710394382476807
F-1.1746083394825746e-05
tp23
sg9
(lp24
F0.0
aF0.0
aF0.0
aF0.0
aF0.0
aF0.0
asg11
I01
sg12
g13
sg14
I00
sg15
g16
sa(dp25
g2
F0.0
sg3
(lp26
F0.1640561760770289
aF0.4594666562550432
aF0.5961134003734692
aF3.1309830707336
aF0.00024347554395488447
aF-0.00026643493028131283
asg5
I0
sg6
F0.0
sg7
(F-1.5710957686053675
F-1.189976994191305
F-1.96196157137026
F-1.5710600058185022
F1.5710394382476807
F-3.5587941304981996e-05
tp27
sg9
(lp28
F0.0
aF0.0
aF0.0
aF0.0
aF0.0
aF0.0
asg11
I01
sg12
g13
sg14
I00
sg15
g16
sa(dp29
g2
F0.0
sg3
(lp30
F0.16403974533441967
aF0.45947696181360875
aF0.5960855423562619
aF3.1309582665430526
aF0.00024309791364839984
aF-0.0002662641105821932
asg5
I0
sg6
F0.0
sg7
(F-1.5710600058185022
F-1.1899893919574183
F-1.9619978109942835
F-1.571036163960592
F1.5710394382476807
F0.0
tp31
sg9
(lp32
F0.0
aF0.0
aF-0.043133544921875
aF0.0
aF0.0
aF0.0
asg11
I01
sg12
g13
sg14
I00
sg15
g16
sa(dp33
g2
F0.0
sg3
(lp34
F0.16404738615260506
aF0.459453577020609
aF0.5937612416231516
aF3.13106078643645
aF0.00027897818354770756
aF-0.0002904589435381718
asg5
I0
sg6
F0.0
sg7
(F-1.5710838476764124
F-1.1899893919574183
F-1.9660800139056605
F-1.5668514410602015
F1.5710753202438354
F0.0
tp35
sg9
(lp36
F0.0
aF0.0
aF-0.10117187500000001
aF0.0
aF0.0
aF0.0
asg11
I01
sg12
g13
sg14
I00
sg15
g16
sa(dp37
g2
F0.0
sg3
(lp38
F0.16404193036103348
aF0.4593852540441564
aF0.5844618469952187
aF3.1311790422114916
aF0.00021913871044519257
aF-0.0002659609237404024
asg5
I0
sg6
F0.0
sg7
(F-1.5710600058185022
F-1.190216366444723
F-1.982220474873678
F-1.5503657499896448
F1.571015477180481
F0.0
tp39
sg9
(lp40
F0.0
aF0.0
aF-0.06979980468750001
aF0.0
aF0.0
aF0.0
asg11
I01
sg12
g13
sg14
I00
sg15
g16
sa(dp41
g2
F0.0
sg3
(lp42
F0.16404410336788525
aF0.4592479589569779
aF0.5759880290351843
aF3.1309468271847245
aF0.0001954304154207803
aF-0.00024209105962153034
asg5
I0
sg6
F0.0
sg7
(F-1.5710600058185022
F-1.1905882994281214
F-1.9967673460589808
F-1.5356791655169886
F1.5709915161132812
F-2.366701234990387e-05
tp43
sg9
(lp44
F0.0
aF0.0
aF-0.039996337890625004
aF0.0
aF0.0
aF0.0
asg11
I01
sg12
g13
sg14
I00
sg15
g16
sa(dp45
g2
F0.0
sg3
(lp46
F0.16405388761688475
aF0.45920201523199944
aF0.5710926877473863
aF3.1311618759518702
aF0.0002670581986736755
aF-0.0003022273284326996
asg5
I0
sg6
F0.0
sg7
(F-1.5710957686053675
F-1.1909235159503382
F-2.0051730314837855
F-1.5267232100116175
F1.5710633993148804
F0.0
tp47
sg9
(lp48
F0.0
aF0.0
aF-0.029016113281250002
aF0.0
aF0.0
aF0.0
asg11
I01
sg12
g13
sg14
I00
sg15
g16
sa(dp49
g2
F0.0
sg3
(lp50
F0.1640594124429585
aF0.45918967577538566
aF0.5681362326262372
aF3.131204803869898
aF0.0002077215708073029
aF-0.00024168959341298884
asg5
I0
sg6
F0.0
sg7
(F-1.5710957686053675
F-1.1911991278277796
F-2.0101898352252405
F-1.5213878790484827
F1.5710034370422363
F-5.990663637334137e-05
tp51
sg9
(lp52
F0.0
aF0.0
aF-0.046270751953125
aF0.0
aF0.0
aF0.0
asg11
I01
sg12
g13
sg14
I00
sg15
g16
sa(dp53
g2
F0.0
sg3
(lp54
F0.16404515197846356
aF0.4592183662923935
aF0.5641514048610549
aF3.1313464236777544
aF0.000243590562993938
aF-0.0002301074921114291
asg5
I0
sg6
F0.0
sg7
(F-1.5710719267474573
F-1.1916783491717737
F-2.0169060865985315
F-1.5140507856952112
F1.5710394382476807
F-4.7985707418263246e-05
tp55
sg9
(lp56
F0.0
aF0.0
aF-0.12626953125
aF0.0
aF0.0
aF0.0
asg11
I01
sg12
g13
sg14
I00
sg15
g16
sa(dp57
g2
F0.0
sg3
(lp58
F0.16404511581907977
aF0.45908717153386425
aF0.553845862149819
aF3.1302678063175753
aF0.00024309607080208717
aF-0.00027835288820473523
asg5
I0
sg6
F0.0
sg7
(F-1.5710719267474573
F-1.1930325667010706
F-2.033931557332174
F-1.4967497030841272
F1.5710394382476807
F0.0
tp59
sg9
(lp60
F0.0
aF0.0
aF-0.12626953125
aF0.0
aF0.0
aF0.0
asg11
I01
sg12
g13
sg14
I00
sg15
g16
sa(dp61
g2
F0.0
sg3
(lp62
F0.16407353548077272
aF0.4589166766670574
aF0.541001353424067
aF3.1310908411669605
aF0.0002316878969955471
aF-0.000277727683453083
asg5
I0
sg6
F0.0
sg7
(F-1.5711315313922327
F-1.1949017683612269
F-2.0555174986468714
F-1.4724715391742151
F1.571027398109436
F-5.990663637334137e-05
tp63
sg9
(lp64
F0.0
aF0.0
aF-0.12626953125
aF0.0
aF0.0
aF0.0
asg11
I01
sg12
g13
sg14
I00
sg15
g16
sa(dp65
g2
F0.0
sg3
(lp66
F0.16403058906850287
aF0.45868076112504735
aF0.5278625341933761
aF3.131075565920373
aF0.00021901243634721166
aF-0.00025364846647438444
asg5
I0
sg6
F0.0
sg7
(F-1.5710356871234339
F-1.1973827520953577
F-2.0771387259112757
F-1.4483845869647425
F1.571015477180481
F1.1984225238848012e-05
tp67
sg9
(lp68
F0.0
aF0.0
aF-0.12626953125
aF0.0
aF0.0
aF0.0
asg11
I01
sg12
g13
sg14
I00
sg15
g16
sa(dp69
g2
F0.0
sg3
(lp70
F0.16403943473216345
aF0.45829906866544506
aF0.5154724522716896
aF3.130735115404119
aF0.00024348372070170606
aF-0.00023073251543739056
asg5
I0
sg6
F0.0
sg7
(F-1.5710600058185022
F-1.20007831255068
F-2.0973108450519007
F-1.4258573690997522
F1.5710394382476807
F-3.5587941304981996e-05
tp71
sg9
(lp72
F0.0
aF0.0
aF-0.12626953125
aF0.0
aF0.0
aF0.0
asg11
I01
sg12
g13
sg14
I00
sg15
g16
sa(dp73
g2
F0.0
sg3
(lp74
F0.16405465889713994
aF0.4580705551292043
aF0.5026814008550305
aF3.1311022713379395
aF0.00025501855641602396
aF-0.00030211694298698
asg5
I0
sg6
F0.0
sg7
(F-1.5710957686053675
F-1.2036736647235315
F-2.117865864430563
F-1.4013398329364222
F1.5710513591766357
F0.0
tp75
sg9
(lp76
F0.0
aF0.0
aF-0.130975341796875
aF0.0
aF0.0
aF0.0
asg11
I01
sg12
g13
sg14
I00
sg15
g16
sa(dp77
g2
F0.0
sg3
(lp78
F0.16406002610265397
aF0.4577686057820365
aF0.49033861175119087
aF3.1310512557984937
aF0.0002552678984373255
aF-0.0002903851851972419
asg5
I0
sg6
F0.0
sg7
(F-1.5711076895343226
F-1.2076399962054651
F-2.137401882802145
F-1.3778885046588343
F1.5710513591766357
F-2.366701234990387e-05
tp79
sg9
(lp80
F0.0
aF0.0
aF-0.1325439453125
aF0.0
aF0.0
aF0.0
asg11
I01
sg12
g13
sg14
I00
sg15
g16
sa(dp81
g2
F0.0
sg3
(lp82
F0.16401931718630433
aF0.457423353291881
aF0.47642034994104876
aF3.1307150860885127
aF0.00027923458569425715
aF-0.00020680829292602694
asg5
I0
sg6
F0.0
sg7
(F-1.5710237661944788
F-1.2128403822528284
F-2.1590455214129847
F-1.3513806501971644
F1.5710753202438354
F-2.366701234990387e-05
tp83
sg9
(lp84
F0.0
aF0.0
aF-0.1325439453125
aF0.0
aF0.0
aF0.0
asg11
I01
sg12
g13
sg14
I00
sg15
g16
sa(dp85
g2
F0.0
sg3
(lp86
F0.16405226203796802
aF0.45722202327656686
aF0.46300996071793055
aF3.1312057528978463
aF0.00021950841320473701
aF-0.0002542109075942331
asg5
I0
sg6
F0.0
sg7
(F-1.5710838476764124
F-1.2188079992877405
F-2.179610554371969
F-1.3243573347674769
F1.571015477180481
F-3.5587941304981996e-05
tp87
sg9
(lp88
F0.0
aF0.0
aF-0.134112548828125
aF0.0
aF0.0
aF0.0
asg11
I01
sg12
g13
sg14
I00
sg15
g16
sa(dp89
g2
F0.0
sg3
(lp90
F0.16403584214029504
aF0.45695677133007073
aF0.44989569336173496
aF3.1309639964529468
aF0.00021951645969058473
aF-0.00021850118922549268
asg5
I0
sg6
F0.0
sg7
(F-1.5710480848895472
F-1.2253268400775355
F-2.199289623891012
F-1.298401180897848
F1.571015477180481
F-3.5587941304981996e-05
tp91
sg9
(lp92
F0.0
aF0.0
aF-0.14822998046875
aF0.0
aF0.0
aF0.0
asg11
I01
sg12
g13
sg14
I00
sg15
g16
sa(dp93
g2
F0.0
sg3
(lp94
F0.16404985339163328
aF0.4565284035312153
aF0.4350205662135747
aF3.130846698321646
aF0.0002436132663128761
aF-0.0002421501550188901
asg5
I0
sg6
F0.0
sg7
(F-1.5710838476764124
F-1.233415428792135
F-2.221398655568258
F-1.2683208624469202
F1.5710394382476807
F-4.7985707418263246e-05
tp95
sg9
(lp96
F0.0
aF0.0
aF-0.14822998046875
aF0.0
aF0.0
aF0.0
asg11
I01
sg12
g13
sg14
I00
sg15
g16
sa(dp97
g2
F0.0
sg3
(lp98
F0.16403456220347548
aF0.45623853718651713
aF0.42113104322153594
aF3.1313755101967073
aF0.00023154972984750709
aF-0.0002061355352151917
asg5
I0
sg6
F0.0
sg7
(F-1.5710480848895472
F-1.2420313994037073
F-2.241710964833395
F-1.238863770161764
F1.571027398109436
F-4.7985707418263246e-05
tp99
sg9
(lp100
F0.0
aF0.0
aF-0.14822998046875
aF0.0
aF0.0
aF0.0
asg11
I01
sg12
g13
sg14
I00
sg15
g16
sa(dp101
g2
F0.0
sg3
(lp102
F0.16403777088900137
aF0.45584279466574934
aF0.40570424830072654
aF3.131188576668332
aF0.00019505427927793547
aF-0.00026577219354148953
asg5
I0
sg6
F0.0
sg7
(F-1.5710480848895472
F-1.2526605764972132
F-2.263686482106344
F-1.2064459959613245
F1.5709915161132812
F1.1984225238848012e-05
tp103
sg9
(lp104
F0.0
aF0.0
aF-0.149798583984375
aF0.0
aF0.0
aF0.0
asg11
I01
sg12
g13
sg14
I00
sg15
g16
sa(dp105
g2
F0.0
sg3
(lp106
F0.1640440663203487
aF0.455279242219535
aF0.39018769199052256
aF3.130964942263465
aF0.00024309793090030173
aF-0.00027818341668489453
asg5
I0
sg6
F0.0
sg7
(F-1.5710719267474573
F-1.2642605940448206
F-2.285494629536764
F-1.1732614676104944
F1.5710394382476807
F0.0
tp107
sg9
(lp108
F0.0
aF0.0
aF-0.149798583984375
aF0.0
aF0.0
aF0.0
asg11
I01
sg12
g13
sg14
I00
sg15
g16
sa(dp109
g2
F0.0
sg3
(lp110
F0.16404397177591212
aF0.45493620304150945
aF0.37627726095393005
aF3.1315404875864354
aF0.00024321744913913764
aF-0.00026629801290202346
asg5
I0
sg6
F0.0
sg7
(F-1.5710719267474573
F-1.2760046164142054
F-2.3046210447894495
F-1.141815487538473
F1.5710394382476807
F-1.1746083394825746e-05
tp111
sg9
(lp112
F0.0
aF0.0
aF-0.149798583984375
aF0.0
aF0.0
aF0.0
asg11
I01
sg12
g13
sg14
I00
sg15
g16
sa(dp113
g2
F0.0
sg3
(lp114
F0.16405469692220379
aF0.45452711061303025
aF0.36066170815312304
aF3.1311985982339037
aF0.00024334451976682156
aF-0.00027830274007840055
asg5
I0
sg6
F0.0
sg7
(F-1.5710957686053675
F-1.290516201649801
F-2.325338665639059
F-1.1069281736956995
F1.5710394382476807
F-2.366701234990387e-05
tp115
sg9
(lp116
F0.0
aF0.0
aF-0.149798583984375
aF0.0
aF0.0
aF0.0
asg11
I01
sg12
g13
sg14
I00
sg15
g16
sa(dp117
g2
F0.0
sg3
(lp118
F0.1640513434382053
aF0.45402720896118376
aF0.34643551740331235
aF3.131223160176588
aF0.0002196363896932093
aF-0.00024180998728187545
asg5
I0
sg6
F0.0
sg7
(F-1.5710838476764124
F-1.304681126271383
F-2.3439975420581263
F-1.0740798155414026
F1.571015477180481
F-4.7985707418263246e-05
tp119
sg9
(lp120
F0.0
aF0.0
aF-0.149798583984375
aF0.0
aF0.0
aF0.0
asg11
I01
sg12
g13
sg14
I00
sg15
g16
sa(dp121
g2
F0.0
sg3
(lp122
F0.16404903501912824
aF0.45368217140713873
aF0.33110346075620356
aF3.131297786286225
aF0.00024359277534035534
aF-0.00024204026871980333
asg5
I0
sg6
F0.0
sg7
(F-1.5710838476764124
F-1.321709934865133
F-2.363314453755514
F-1.0376594702350062
F1.5710394382476807
F-4.7985707418263246e-05
tp123
sg9
(lp124
F0.0
aF0.0
aF-0.149798583984375
aF0.0
aF0.0
aF0.0
asg11
I01
sg12
g13
sg14
I00
sg15
g16
sa(dp125
g2
F0.0
sg3
(lp126
F0.16404136571068553
aF0.453033986877411
aF0.31559858887585485
aF3.131253674631465
aF0.0002074673219370532
aF-0.00023023404990421968
asg5
I0
sg6
F0.0
sg7
(F-1.5710600058185022
F-1.3398411909686487
F-2.3826423327075403
F-1.000244442616598
F1.5710034370422363
F-3.5587941304981996e-05
tp127
sg9
(lp128
F0.0
aF0.0
aF-0.149798583984375
aF0.0
aF0.0
aF0.0
asg11
I01
sg12
g13
sg14
I00
sg15
g16
sa(dp129
g2
F0.0
sg3
(lp130
F0.16406273613709793
aF0.4527034763881523
aF0.3013393315097843
aF3.13096470691736
aF0.0002671824786720936
aF-0.00031437642225161025
asg5
I0
sg6
F0.0
sg7
(F-1.5711196104632776
F-1.3584640661822718
F-2.399409834538595
F-0.9651430288897913
F1.5710633993148804
F-1.1746083394825746e-05
tp131
sg9
(lp132
F0.0
aF0.0
aF-0.149798583984375
aF0.0
aF0.0
aF0.0
asg11
I01
sg12
g13
sg14
I00
sg15
g16
sa(dp133
g2
F0.0
sg3
(lp134
F0.16403355340413997
aF0.4522316288801964
aF0.28600711785324606
aF3.131289432703227
aF0.00023118027758966124
aF-0.00024239316612395423
asg5
I0
sg6
F0.0
sg7
(F-1.5710480848895472
F-1.3797357718097132
F-2.4171820322619837
F-0.9257743994342249
F1.571027398109436
F-1.1746083394825746e-05
tp135
sg9
(lp136
F0.0
aF0.0
aF-0.1513671875
aF0.0
aF0.0
aF0.0
asg11
I01
sg12
g13
sg14
I00
sg15
g16
sa(dp137
g2
F0.0
sg3
(lp138
F0.16403768073713754
aF0.4516472501662189
aF0.27179288558163783
aF3.131406260822403
aF0.00024334012472598972
aF-0.00024248942015954667
asg5
I0
sg6
F0.0
sg7
(F-1.5710600058185022
F-1.4006722609149378
F-2.433206621800558
F-0.8886964956866663
F1.5710394382476807
F-2.366701234990387e-05
tp139
sg9
(lp140
F0.0
aF0.0
aF-0.15293579101562502
aF0.0
aF0.0
aF0.0
asg11
I01
sg12
g13
sg14
I00
sg15
g16
sa(dp141
g2
F0.0
sg3
(lp142
F0.1640147061484536
aF0.45108116520304803
aF0.25612905997243174
aF3.130746795263128
aF0.0002552742734431737
aF-0.00019461863630721292
asg5
I0
sg6
F0.0
sg7
(F-1.5710118452655237
F-1.425551716481344
F-2.449864927922384
F-0.8478181997882288
F1.5710513591766357
F-2.366701234990387e-05
tp143
sg9
(lp144
F0.0
aF0.0
aF-0.15450439453125
aF0.0
aF0.0
aF0.0
asg11
I01
sg12
g13
sg14
I00
sg15
g16
sa(dp145
g2
F0.0
sg3
(lp146
F0.16403425435511723
aF0.45065015206712283
aF0.24172660174324767
aF3.1306576285715884
aF0.00021952663823573805
aF-0.00021856844351450974
asg5
I0
sg6
F0.0
sg7
(F-1.5710480848895472
F-1.4502156416522425
F-2.4644771257983606
F-0.8086312452899378
F1.571015477180481
F-3.5587941304981996e-05
tp147
sg9
(lp148
F0.0
aF0.0
aF0.0
aF0.0
aF0.0
aF0.0
asg11
I01
sg12
g13
sg14
I00
sg15
g16
sa(dp149
g2
F0.0
sg3
(lp150
F0.16406423328569572
aF0.4505009249085434
aF0.238468386551435
aF3.1312756045372305
aF0.00024321990453269262
aF-0.00031404615317249287
asg5
I0
sg6
F0.0
sg7
(F-1.5711196104632776
F-1.455956761037008
F-2.4679117838488978
F-0.7988374868976038
F1.5710394382476807
F-1.1746083394825746e-05
tp151
sg9
(lp152
F0.0
aF0.0
aF0.0
aF0.0
aF0.0
aF0.0
asg11
I01
sg12
g13
sg14
I00
sg15
g16
sa(dp153
g2
F0.0
sg3
(lp154
F0.16403846655548776
aF0.4504174382487324
aF0.23868561593811752
aF3.1312283975453483
aF0.00023118084874891777
aF-0.00025432820520856407
asg5
I0
sg6
F0.0
sg7
(F-1.5710600058185022
F-1.4553807417498987
F-2.467839781438009
F-0.799532715474264
F1.571027398109436
F-1.1746083394825746e-05
tp155
sg9
(lp156
F0.0
aF0.0
aF0.0
aF0.0
aF0.0
aF0.0
asg11
I01
sg12
g13
sg14
I00
sg15
g16
sa(dp157
g2
F0.0
sg3
(lp158
F0.16403735218714174
aF0.4504012534383334
aF0.23869820023411203
aF3.1307479930270703
aF0.00024361774345691377
aF-0.0002183323432284435
asg5
I0
sg6
F0.0
sg7
(F-1.5710600058185022
F-1.4553092161761683
F-2.4677322546588343
F-0.8001921812640589
F1.5710394382476807
F-4.7985707418263246e-05
tp159
sg9
(lp160
F0.0
aF0.0
aF0.0
aF0.0
aF0.0
aF0.0
asg11
I01
sg12
g13
sg14
I00
sg15
g16
sa(dp161
g2
F0.0
sg3
(lp162
F0.16404384624584759
aF0.4504528837424013
aF0.23876067162852246
aF3.1308323870314347
aF0.00023131280358351352
aF-0.00025442044633859796
asg5
I0
sg6
F0.0
sg7
(F-1.5710719267474573
F-1.455296818410055
F-2.4676125685321253
F-0.8002398649798792
F1.571027398109436
F-2.366701234990387e-05
tp163
sg9
(lp164
F0.0
aF0.0
aF0.0
aF0.0
aF0.0
aF0.0
asg11
I01
sg12
g13
sg14
I00
sg15
g16
sa.