(lp0
(dp1
S'start_gripper_pos'
p2
F0.0
sS'curr_pos'
p3
(lp4
F0.16402452083994207
aF0.4595191052455875
aF0.5960568523380405
aF3.130946816052273
aF0.0001106219826675224
aF-0.0002651764016792591
asS'gripper_ac'
p5
I0
sS'curr_gripper_pos'
p6
F0.0
sS'curr_q'
p7
(F-1.5710004011737269
F-1.1900489966021937
F-1.9620097319232386
F-1.5709760824786585
F1.5709075927734375
F5.992112710373476e-05
tp8
sS'xdot_h'
p9
(lp10
F0.0
aF0.0
aF0.0
aF0.0
aF0.0
aF0.0
asS'trans_mode'
p11
I01
sS'start_pos'
p12
(lp13
F0.16400565721492005
aF0.45951606828838615
aF0.5960334890512301
aF3.1307789662924717
aF0.00013444180045557117
aF-0.0002411979686048987
asS'slow_mode'
p14
I00
sS'start_q'
p15
(F-1.5709641615497034
F-1.1900489966021937
F-1.961949650441305
F-1.5711200873004358
F1.5709675550460815
F7.190534961409867e-05
tp16
sa(dp17
g2
F0.0
sg3
(lp18
F0.1640135101171793
aF0.4594987090176287
aF0.5960787657600612
aF3.1309944940425
aF0.00017045679286067014
aF-0.0002658692250442127
asg5
I0
sg6
F0.0
sg7
(F-1.5709884802447718
F-1.1900013128863733
F-1.9620097319232386
F-1.5709760824786585
F1.5709675550460815
F7.190534961409867e-05
tp19
sg9
(lp20
F0.0
aF0.0
aF0.0
aF0.0
aF0.0
aF0.0
asg11
I01
sg12
g13
sg14
I00
sg15
g16
sa(dp21
g2
F0.0
sg3
(lp22
F0.16401572427835034
aF0.45952447365886256
aF0.5960677772190776
aF3.130982578390758
aF0.0001467504979450721
aF-0.0002416499331618474
asg5
I0
sg6
F0.0
sg7
(F-1.5709884802447718
F-1.1900489966021937
F-1.9619978109942835
F-1.5709522406207483
F1.5709435939788818
F4.793690095539205e-05
tp23
sg9
(lp24
F0.0
aF0.0
aF0.0
aF0.0
aF0.0
aF0.0
asg11
I01
sg12
g13
sg14
I00
sg15
g16
sa(dp25
g2
F0.0
sg3
(lp26
F0.16400803548002946
aF0.4595174534338257
aF0.5960747019370962
aF3.13103073571042
aF0.000170586038213629
aF-0.00024195856451199074
asg5
I0
sg6
F0.0
sg7
(F-1.5709765593158167
F-1.1900251547442835
F-1.9620097319232386
F-1.570916000996725
F1.5709675550460815
F5.992112710373476e-05
tp27
sg9
(lp28
F0.0
aF0.0
aF0.0
aF0.0
aF0.0
aF0.0
asg11
I01
sg12
g13
sg14
I00
sg15
g16
sa(dp29
g2
F0.0
sg3
(lp30
F0.16400454859756838
aF0.4595249067260265
aF0.5960432088208191
aF3.130946815603551
aF0.0001467487277190383
aF-0.00021733648626131102
asg5
I0
sg6
F0.0
sg7
(F-1.5709641615497034
F-1.1900489966021937
F-1.9620335737811487
F-1.5709522406207483
F1.5709435939788818
F4.793690095539205e-05
tp31
sg9
(lp32
F0.0
aF0.0
aF0.0
aF0.0
aF0.0
aF0.0
asg11
I01
sg12
g13
sg14
I00
sg15
g16
sa(dp33
g2
F0.0
sg3
(lp34
F0.1639968616338277
aF0.459528286058767
aF0.5960842351873956
aF3.1310307295845634
aF0.0001702063159646373
aF-0.00025359053945576314
asg5
I0
sg6
F0.0
sg7
(F-1.5709522406207483
F-1.1900370756732386
F-1.9619858900653284
F-1.57092792192568
F1.5709675550460815
F9.58738019107841e-05
tp35
sg9
(lp36
F0.0
aF0.0
aF0.0
aF0.0
aF0.0
aF0.0
asg11
I01
sg12
g13
sg14
I00
sg15
g16
sa(dp37
g2
F0.0
sg3
(lp38
F0.1640190442171799
aF0.4595277400775373
aF0.5960706611823633
aF3.1310908195496663
aF0.00011050492651186229
aF-0.00026522310374999056
asg5
I0
sg6
F0.0
sg7
(F-1.5709884802447718
F-1.1900370756732386
F-1.9620216528521937
F-1.5708320776568812
F1.5709075927734375
F7.190534961409867e-05
tp39
sg9
(lp40
F0.0
aF0.0
aF-0.068231201171875
aF0.0
aF0.0
aF0.0
asg11
I01
sg12
g13
sg14
I00
sg15
g16
sa(dp41
g2
F0.0
sg3
(lp42
F0.16400453703511753
aF0.4594560188567083
aF0.5927661785642123
aF3.1309663641694048
aF0.00014662235001749072
aF-0.00022931716693690594
asg5
I0
sg6
F0.0
sg7
(F-1.5709641615497034
F-1.1900013128863733
F-1.967792812977926
F-1.565221134816305
F1.5709435939788818
F5.992112710373476e-05
tp43
sg9
(lp44
F0.0
aF0.0
aF-0.1199951171875
aF0.0
aF0.0
aF0.0
asg11
I01
sg12
g13
sg14
I00
sg15
g16
sa(dp45
g2
F0.0
sg3
(lp46
F0.16401567910862053
aF0.45928941753560504
aF0.5820051782207831
aF3.1312562864426665
aF0.00014701178219449728
aF-0.00021764259474158916
asg5
I0
sg6
F0.0
sg7
(F-1.5709884802447718
F-1.1901567617999476
F-1.9865668455706995
F-1.5460017363177698
F1.5709435939788818
F2.3968450477696024e-05
tp47
sg9
(lp48
F0.0
aF0.0
aF-0.1199951171875
aF0.0
aF0.0
aF0.0
asg11
I01
sg12
g13
sg14
I00
sg15
g16
sa(dp49
g2
F0.0
sg3
(lp50
F0.1640145770348321
aF0.4590398981635039
aF0.5695550739972199
aF3.13090151606771
aF9.857084448130367e-05
aF-0.00025319564664413077
asg5
I0
sg6
F0.0
sg7
(F-1.5709765593158167
F-1.1907919088946741
F-2.0078910032855433
F-1.5243971983539026
F1.5708956718444824
F7.190534961409867e-05
tp51
sg9
(lp52
F0.0
aF0.0
aF-0.080780029296875
aF0.0
aF0.0
aF0.0
asg11
I01
sg12
g13
sg14
I00
sg15
g16
sa(dp53
g2
F0.0
sg3
(lp54
F0.16401673008534945
aF0.4589817480446962
aF0.5611773083094184
aF3.1313053977445424
aF0.0001347269675447157
aF-0.00024147869903622492
asg5
I0
sg6
F0.0
sg7
(F-1.5709884802447718
F-1.1916068235980433
F-2.0221503416644495
F-1.5089190641986292
F1.5709315538406372
F4.793690095539205e-05
tp55
sg9
(lp56
F0.0
aF0.0
aF-0.068231201171875
aF0.0
aF0.0
aF0.0
asg11
I01
sg12
g13
sg14
I00
sg15
g16
sa(dp57
g2
F0.0
sg3
(lp58
F0.16401560376817437
aF0.45889736304574513
aF0.5536169315770323
aF3.130904373582048
aF0.00014649045023642292
aF-0.00026562848893339254
asg5
I0
sg6
F0.0
sg7
(F-1.5709884802447718
F-1.1926010290728968
F-2.0347216765033167
F-1.4957545439349573
F1.5709435939788818
F7.190534961409867e-05
tp59
sg9
(lp60
F0.0
aF0.0
aF-0.068231201171875
aF0.0
aF0.0
aF0.0
asg11
I01
sg12
g13
sg14
I00
sg15
g16
sa(dp61
g2
F0.0
sg3
(lp62
F0.1640156089793076
aF0.4589244894866877
aF0.5472490096787658
aF3.1312314821201785
aF0.00014639030841255666
aF-0.0002775641531803827
asg5
I0
sg6
F0.0
sg7
(F-1.5709884802447718
F-1.1936677137957972
F-2.04531699815859
F-1.4837654272662562
F1.5709435939788818
F8.388957940042019e-05
tp63
sg9
(lp64
F0.0
aF0.0
aF-0.08548583984375001
aF0.0
aF0.0
aF0.0
asg11
I01
sg12
g13
sg14
I00
sg15
g16
sa(dp65
g2
F0.0
sg3
(lp66
F0.1640123205033381
aF0.45877737743272745
aF0.5388267789317175
aF3.130508125127841
aF0.0001226345657302469
aF-0.0002415165230921521
asg5
I0
sg6
F0.0
sg7
(F-1.5709765593158167
F-1.195129696522848
F-2.059085194264547
F-1.4692586104022425
F1.5709196329116821
F5.992112710373476e-05
tp67
sg9
(lp68
F0.0
aF0.0
aF-0.08548583984375001
aF0.0
aF0.0
aF0.0
asg11
I01
sg12
g13
sg14
I00
sg15
g16
sa(dp69
g2
F0.0
sg3
(lp70
F0.16402103925331676
aF0.4587239929687213
aF0.5307433828711589
aF3.130793272279444
aF0.00014661170571423553
aF-0.00026558216914326774
asg5
I0
sg6
F0.0
sg7
(F-1.5710004011737269
F-1.1967948118792933
F-2.0723612944232386
F-1.4540322462665003
F1.5709435939788818
F5.992112710373476e-05
tp71
sg9
(lp72
F0.0
aF0.0
aF-0.08548583984375001
aF0.0
aF0.0
aF0.0
asg11
I01
sg12
g13
sg14
I00
sg15
g16
sa(dp73
g2
F0.0
sg3
(lp74
F0.16400550705106326
aF0.4586214463852219
aF0.5218864411999784
aF3.1308271284576583
aF0.00013457434747881223
aF-0.00022920796557775807
asg5
I0
sg6
F0.0
sg7
(F-1.5709641615497034
F-1.198831860219137
F-2.086752239857809
F-1.4375703970538538
F1.5709315538406372
F5.992112710373476e-05
tp75
sg9
(lp76
F0.0
aF0.0
aF-0.08548583984375001
aF0.0
aF0.0
aF0.0
asg11
I01
sg12
g13
sg14
I00
sg15
g16
sa(dp77
g2
F0.0
sg3
(lp78
F0.16402098040787141
aF0.45843565785471424
aF0.5130192842470264
aF3.130884828531695
aF0.00014687398143800828
aF-0.00024160166771586684
asg5
I0
sg6
F0.0
sg7
(F-1.5710004011737269
F-1.2010253111468714
F-2.1011059919940394
F-1.4209654966937464
F1.5709435939788818
F3.5952674807049334e-05
tp79
sg9
(lp80
F0.0
aF0.0
aF-0.088623046875
aF0.0
aF0.0
aF0.0
asg11
I01
sg12
g13
sg14
I00
sg15
g16
sa(dp81
g2
F0.0
sg3
(lp82
F0.16401113891621882
aF0.458319799040441
aF0.5049268038215634
aF3.131073173210355
aF0.00013433731318443493
aF-0.00026553974449635125
asg5
I0
sg6
F0.0
sg7
(F-1.5709765593158167
F-1.2033503691302698
F-2.114070717488424
F-1.405487362538473
F1.5709315538406372
F8.388957940042019e-05
tp83
sg9
(lp84
F0.0
aF0.0
aF-0.090191650390625
aF0.0
aF0.0
aF0.0
asg11
I01
sg12
g13
sg14
I00
sg15
g16
sa(dp85
g2
F0.0
sg3
(lp86
F0.164016568931092
aF0.45814314345543145
aF0.49540221895709424
aF3.130869563742707
aF0.00013431994104165412
aF-0.000277488023989937
asg5
I0
sg6
F0.0
sg7
(F-1.5709884802447718
F-1.2064059416400355
F-2.12909442583193
F-1.3876116911517542
F1.5709315538406372
F8.388957940042019e-05
tp87
sg9
(lp88
F0.0
aF0.0
aF-0.090191650390625
aF0.0
aF0.0
aF0.0
asg11
I01
sg12
g13
sg14
I00
sg15
g16
sa(dp89
g2
F0.0
sg3
(lp90
F0.16400542467213566
aF0.45813065550655313
aF0.4869764639630848
aF3.131179034282937
aF0.00013459593673598047
aF-0.00022916060435408588
asg5
I0
sg6
F0.0
sg7
(F-1.5709641615497034
F-1.2096050421344202
F-2.142226521168844
F-1.3709710280047815
F1.5709315538406372
F5.992112710373476e-05
tp91
sg9
(lp92
F0.0
aF0.0
aF-0.090191650390625
aF0.0
aF0.0
aF0.0
asg11
I01
sg12
g13
sg14
I00
sg15
g16
sa(dp93
g2
F0.0
sg3
(lp94
F0.1640099486130298
aF0.45787483623206193
aF0.4772996443682921
aF3.130808531068642
aF0.00014661264423156836
aF-0.00024173807411197746
asg5
I0
sg6
F0.0
sg7
(F-1.5709765593158167
F-1.2132838408099573
F-2.1572139898883265
F-1.3526752630816858
F1.5709435939788818
F5.992112710373476e-05
tp95
sg9
(lp96
F0.0
aF0.0
aF-0.090191650390625
aF0.0
aF0.0
aF0.0
asg11
I01
sg12
g13
sg14
I00
sg15
g16
sa(dp97
g2
F0.0
sg3
(lp98
F0.164005364882425
aF0.45777443691151487
aF0.4682074824049017
aF3.131096539841851
aF0.0001344650918918599
aF-0.00024115526981167623
asg5
I0
sg6
F0.0
sg7
(F-1.5709641615497034
F-1.217274014149801
F-2.171159092579977
F-1.334451977406637
F1.5709315538406372
F7.190534961409867e-05
tp99
sg9
(lp100
F0.0
aF0.0
aF-0.090191650390625
aF0.0
aF0.0
aF0.0
asg11
I01
sg12
g13
sg14
I00
sg15
g16
sa(dp101
g2
F0.0
sg3
(lp102
F0.16399442820568255
aF0.4576225391691469
aF0.4592688707249672
aF3.130531015808374
aF0.0001348212929662961
aF-0.00018143896837567275
asg5
I0
sg6
F0.0
sg7
(F-1.5709403196917933
F-1.2215402762042444
F-2.184542481099264
F-1.3173678557025355
F1.5709315538406372
F3.5952674807049334e-05
tp103
sg9
(lp104
F0.0
aF0.0
aF-0.09176025390625
aF0.0
aF0.0
aF0.0
asg11
I01
sg12
g13
sg14
I00
sg15
g16
sa(dp105
g2
F0.0
sg3
(lp106
F0.16399979659221148
aF0.4575375079076926
aF0.449911281050378
aF3.1307594092216413
aF0.00019426929458368354
aF-0.00025383369672679753
asg5
I0
sg6
F0.0
sg7
(F-1.5709641615497034
F-1.2264412085162562
F-2.198523823414938
F-1.2982571760760706
F1.5709915161132812
F8.388957940042019e-05
tp107
sg9
(lp108
F0.0
aF0.0
aF-0.09176025390625
aF0.0
aF0.0
aF0.0
asg11
I01
sg12
g13
sg14
I00
sg15
g16
sa(dp109
g2
F0.0
sg3
(lp110
F0.1640052957244721
aF0.4573624101685348
aF0.4411724176159426
aF3.1306263767907154
aF0.00013429918481513934
aF-0.00025320199120499367
asg5
I0
sg6
F0.0
sg7
(F-1.5709641615497034
F-1.231222931538717
F-2.2114508787738245
F-1.2806814352618616
F1.5709315538406372
F8.388957940042019e-05
tp111
sg9
(lp112
F0.0
aF0.0
aF-0.09176025390625
aF0.0
aF0.0
aF0.0
asg11
I01
sg12
g13
sg14
I00
sg15
g16
sa(dp113
g2
F0.0
sg3
(lp114
F0.1640087245095765
aF0.45718137410383597
aF0.4316152104482019
aF3.1307112536544737
aF0.00015839648125845607
aF-0.000253865562494214
asg5
I0
sg6
F0.0
sg7
(F-1.5709765593158167
F-1.2368548552142542
F-2.2254679838763636
F-1.2609475294696253
F1.570955514907837
F7.190534961409867e-05
tp115
sg9
(lp116
F0.0
aF0.0
aF-0.09176025390625
aF0.0
aF0.0
aF0.0
asg11
I01
sg12
g13
sg14
I00
sg15
g16
sa(dp117
g2
F0.0
sg3
(lp118
F0.16400524940365152
aF0.45708644163484746
aF0.4230888351938142
aF3.13115328668988
aF0.00013471946307046527
aF-0.00021718049682701245
asg5
I0
sg6
F0.0
sg7
(F-1.5709641615497034
F-1.2423308531390589
F-2.237844769154684
F-1.242652718220846
F1.5709315538406372
F4.793690095539205e-05
tp119
sg9
(lp120
F0.0
aF0.0
aF-0.09176025390625
aF0.0
aF0.0
aF0.0
asg11
I01
sg12
g13
sg14
I00
sg15
g16
sa(dp121
g2
F0.0
sg3
(lp122
F0.16401087722106503
aF0.45686791705431307
aF0.4132616269587456
aF3.1306516475516206
aF0.00013417022537931368
aF-0.0002775798685738221
asg5
I0
sg6
F0.0
sg7
(F-1.5709765593158167
F-1.248981777821676
F-2.251776997243063
F-1.2225711981402796
F1.5709315538406372
F9.58738019107841e-05
tp123
sg9
(lp124
F0.0
aF0.0
aF-0.09176025390625
aF0.0
aF0.0
aF0.0
asg11
I01
sg12
g13
sg14
I00
sg15
g16
sa(dp125
g2
F0.0
sg3
(lp126
F0.16400410552375166
aF0.456885200556622
aF0.40406509787954636
aF3.131250557361685
aF0.00014651587732455906
aF-0.00024125907691674531
asg5
I0
sg6
F0.0
sg7
(F-1.5709641615497034
F-1.2559683958636683
F-2.264656368886129
F-1.2021063009845179
F1.5709435939788818
F7.190534961409867e-05
tp127
sg9
(lp128
F0.0
aF0.0
aF-0.09176025390625
aF0.0
aF0.0
aF0.0
asg11
I01
sg12
g13
sg14
I00
sg15
g16
sa(dp129
g2
F0.0
sg3
(lp130
F0.16399317834109622
aF0.4566520005059716
aF0.39508035271719055
aF3.130723655811383
aF0.00014673767726903076
aF-0.00019352737548797291
asg5
I0
sg6
F0.0
sg7
(F-1.5709403196917933
F-1.26282245317568
F-2.2770798842059534
F-1.1833556334124964
F1.5709435939788818
F4.793690095539205e-05
tp131
sg9
(lp132
F0.0
aF0.0
aF-0.09176025390625
aF0.0
aF0.0
aF0.0
asg11
I01
sg12
g13
sg14
I00
sg15
g16
sa(dp133
g2
F0.0
sg3
(lp134
F0.1640018279264879
aF0.45647775750632014
aF0.3857333244153
aF3.1311551881667126
aF0.00017046863635161697
aF-0.00024152313765225133
asg5
I0
sg6
F0.0
sg7
(F-1.5709641615497034
F-1.2704680601703089
F-2.289994541798727
F-1.1623638311969202
F1.5709675550460815
F7.190534961409867e-05
tp135
sg9
(lp136
F0.0
aF0.0
aF-0.09176025390625
aF0.0
aF0.0
aF0.0
asg11
I01
sg12
g13
sg14
I00
sg15
g16
sa(dp137
g2
F0.0
sg3
(lp138
F0.16400513224136112
aF0.4563884167042718
aF0.3770322691906676
aF3.1311416009535877
aF0.00013446839565924763
aF-0.00024114921059996956
asg5
I0
sg6
F0.0
sg7
(F-1.5709641615497034
F-1.2781851927386683
F-2.301640574132101
F-1.1430142561541956
F1.5709315538406372
F7.190534961409867e-05
tp139
sg9
(lp140
F0.0
aF0.0
aF-0.09176025390625
aF0.0
aF0.0
aF0.0
asg11
I01
sg12
g13
sg14
I00
sg15
g16
sa(dp141
g2
F0.0
sg3
(lp142
F0.16401397937378254
aF0.45616388880576414
aF0.3672547054566808
aF3.1305670123115066
aF0.00015851798961481235
aF-0.00025382584403701395
asg5
I0
sg6
F0.0
sg7
(F-1.5709884802447718
F-1.2871611754046839
F-2.314530913029806
F-1.1217225233661097
F1.570955514907837
F5.992112710373476e-05
tp143
sg9
(lp144
F0.0
aF0.0
aF-0.09176025390625
aF0.0
aF0.0
aF0.0
asg11
I01
sg12
g13
sg14
I00
sg15
g16
sa(dp145
g2
F0.0
sg3
(lp146
F0.16401285567792442
aF0.4560931466320102
aF0.35870410611718256
aF3.1309727979515456
aF0.0001704551934764046
aF-0.00026587292326847654
asg5
I0
sg6
F0.0
sg7
(F-1.5709884802447718
F-1.2956331411944788
F-2.32570988336672
F-1.1016657988177698
F1.5709675550460815
F7.190534961409867e-05
tp147
sg9
(lp148
F0.0
aF0.0
aF-0.09176025390625
aF0.0
aF0.0
aF0.0
asg11
I01
sg12
g13
sg14
I00
sg15
g16
sa(dp149
g2
F0.0
sg3
(lp150
F0.16400848854178332
aF0.4558722270078997
aF0.3491714020446945
aF3.130960876011639
aF0.00015828744566241575
aF-0.0002658095732744654
asg5
I0
sg6
F0.0
sg7
(F-1.5709765593158167
F-1.305328671132223
F-2.338037077580587
F-1.0796549955951136
F1.570955514907837
F8.388957940042019e-05
tp151
sg9
(lp152
F0.0
aF0.0
aF-0.09176025390625
aF0.0
aF0.0
aF0.0
asg11
I01
sg12
g13
sg14
I00
sg15
g16
sa(dp153
g2
F0.0
sg3
(lp154
F0.16400169603817244
aF0.45569199143163414
aF0.33962046264388007
aF3.130722224109936
aF0.00017069725790099373
aF-0.0002176299052530787
asg5
I0
sg6
F0.0
sg7
(F-1.5709641615497034
F-1.3156817595111292
F-2.350053612385885
F-1.0575240294085901
F1.5709675550460815
F4.793690095539205e-05
tp155
sg9
(lp156
F0.0
aF0.0
aF0.0
aF0.0
aF0.0
aF0.0
asg11
I01
sg12
g13
sg14
I00
sg15
g16
sa(dp157
g2
F0.0
sg3
(lp158
F0.16401288562637445
aF0.45575386117963224
aF0.3352290756459493
aF3.1311289678474816
aF0.00011063311067542181
aF-0.0002413143928002225
asg5
I0
sg6
F0.0
sg7
(F-1.5709765593158167
F-1.320895020161764
F-2.355439011250631
F-1.046518627797262
F1.5709075927734375
F5.992112710373476e-05
tp159
sg9
(lp160
F0.0
aF0.0
aF0.0
aF0.0
aF0.0
aF0.0
asg11
I01
sg12
g13
sg14
I00
sg15
g16
sa(dp161
g2
F0.0
sg3
(lp162
F0.16399415170012366
aF0.45570244362931345
aF0.33524255035037454
aF3.131164253944605
aF0.00013472000424968333
aF-0.0001933371614134746
asg5
I0
sg6
F0.0
sg7
(F-1.5709403196917933
F-1.3207634131061
F-2.35551101366152
F-1.0465429464923304
F1.5709315538406372
F4.793690095539205e-05
tp163
sg9
(lp164
F0.0
aF0.0
aF0.0
aF0.0
aF0.0
aF0.0
asg11
I01
sg12
g13
sg14
I00
sg15
g16
sa(dp165
g2
F0.0
sg3
(lp166
F0.16400389817954647
aF0.45564987780892574
aF0.3352557909165469
aF3.1308402424976762
aF0.00014674345133243932
aF-0.00021735212542594695
asg5
I0
sg6
F0.0
sg7
(F-1.5709641615497034
F-1.320667568837301
F-2.3554750124560755
F-1.0469988028155726
F1.5709435939788818
F4.793690095539205e-05
tp167
sg9
(lp168
F0.0
aF0.0
aF0.0
aF0.0
aF0.0
aF0.0
asg11
I01
sg12
g13
sg14
I00
sg15
g16
sa(dp169
g2
F0.0
sg3
(lp170
F0.16401066377892695
aF0.45568374593337313
aF0.335302682370469
aF3.1309241583813106
aF0.00013406889757440398
aF-0.0002895268425823906
asg5
I0
sg6
F0.0
sg7
(F-1.5709765593158167
F-1.3206794897662562
F-2.3553910891162317
F-1.0469868818866175
F1.5709315538406372
F0.000107858024421148
tp171
sg9
(lp172
F0.0
aF0.0
aF0.0
aF0.0
aF0.0
aF0.0
asg11
I01
sg12
g13
sg14
I00
sg15
g16
sa(dp173
g2
F0.0
sg3
(lp174
F0.16400389898770726
aF0.4556546930148229
aF0.3352649423118037
aF3.1308166337896117
aF0.00014635486332929696
aF-0.0002533061804504797
asg5
I0
sg6
F0.0
sg7
(F-1.5709641615497034
F-1.320667568837301
F-2.3554509321795862
F-1.0470464865313929
F1.5709435939788818
F8.388957940042019e-05
tp175
sg9
(lp176
F0.0
aF0.0
aF0.0
aF0.0
aF0.0
aF0.0
asg11
I01
sg12
g13
sg14
I00
sg15
g16
sa(dp177
g2
F0.0
sg3
(lp178
F0.16401387918974944
aF0.45564254782487196
aF0.33525168908298336
aF3.1308044753198194
aF0.0001584033447648978
aF-0.0002657717251647818
asg5
I0
sg6
F0.0
sg7
(F-1.5709884802447718
F-1.320667568837301
F-2.3554750124560755
F-1.0470345656024378
F1.570955514907837
F7.190534961409867e-05
tp179
sg9
(lp180
F0.0
aF0.0
aF0.0
aF0.0
aF0.0
aF0.0
asg11
I01
sg12
g13
sg14
I00
sg15
g16
sa(dp181
g2
F0.0
sg3
(lp182
F0.164005009986769
aF0.45566004534806503
aF0.3352819318164965
aF3.1308767227509713
aF0.00013483423027642568
aF-0.0002052342154631643
asg5
I0
sg6
F0.0
sg7
(F-1.5709641615497034
F-1.3206551710711878
F-2.355439011250631
F-1.0470107237445276
F1.5709315538406372
F3.5952674807049334e-05
tp183
sg9
(lp184
F0.0
aF0.0
aF0.0
aF0.0
aF0.0
aF0.0
asg11
I01
sg12
g13
sg14
I00
sg15
g16
sa(dp185
g2
F0.0
sg3
(lp186
F0.16400501057005504
aF0.4556635206998504
aF0.3352878026219746
aF3.1308767179105237
aF0.00013444897118606206
aF-0.00024118482637097341
asg5
I0
sg6
F0.0
sg7
(F-1.5709641615497034
F-1.3206551710711878
F-2.355427090321676
F-1.0470226446734827
F1.5709315538406372
F7.190534961409867e-05
tp187
sg9
(lp188
F0.0
aF0.0
aF0.0
aF0.0
aF0.0
aF0.0
asg11
I01
sg12
g13
sg14
I00
sg15
g16
sa(dp189
g2
F0.0
sg3
(lp190
F0.16398871294780068
aF0.4556563624441889
aF0.33528555793418974
aF3.1308886356202588
aF0.00013419329177120088
aF-0.00022938751616804893
asg5
I0
sg6
F0.0
sg7
(F-1.5709283987628382
F-1.3206313292132776
F-2.3554509321795862
F-1.0470107237445276
F1.5709315538406372
F9.58738019107841e-05
tp191
sg9
(lp192
F0.0
aF0.0
aF0.0
aF0.0
aF0.0
aF0.0
asg11
I01
sg12
g13
sg14
I00
sg15
g16
sa(dp193
g2
F0.0
sg3
(lp194
F0.1640095482761768
aF0.45565377359801446
aF0.33526630964605875
aF3.130828554718651
aF0.00014635588221769178
aF-0.0002657022018741989
asg5
I0
sg6
F0.0
sg7
(F-1.5709765593158167
F-1.320667568837301
F-2.3554509321795862
F-1.0470345656024378
F1.5709435939788818
F8.388957940042019e-05
tp195
sg9
(lp196
F0.0
aF0.0
aF0.0
aF0.0
aF0.0
aF0.0
asg11
I01
sg12
g13
sg14
I00
sg15
g16
sa(dp197
g2
F0.0
sg3
(lp198
F0.1639973692533077
aF0.45566443518753563
aF0.33529629876807904
aF3.130864558701399
aF0.00015853633299553962
aF-0.00021753905088990762
asg5
I0
sg6
F0.0
sg7
(F-1.5709522406207483
F-1.320643726979391
F-2.355414930974142
F-1.047058407460348
F1.570955514907837
F5.992112710373476e-05
tp199
sg9
(lp200
F0.0
aF0.0
aF0.0
aF0.0
aF0.0
aF0.0
asg11
I01
sg12
g13
sg14
I00
sg15
g16
sa(dp201
g2
F0.0
sg3
(lp202
F0.16400168971541412
aF0.45565432421151303
aF0.33528304507967466
aF3.1308523945258986
aF0.0001703176050686208
aF-0.0002535582894397405
asg5
I0
sg6
F0.0
sg7
(F-1.5709641615497034
F-1.320643726979391
F-2.355439011250631
F-1.0470464865313929
F1.5709675550460815
F8.388957940042019e-05
tp203
sg9
(lp204
F0.0
aF0.0
aF0.0
aF0.0
aF0.0
aF0.0
asg11
I01
sg12
g13
sg14
I00
sg15
g16
sa(dp205
g2
F0.0
sg3
(lp206
F0.16399957763607736
aF0.455659126989398
aF0.33525950998496024
aF3.130804713888842
aF0.0001343144068245791
aF-0.0002412571104022765
asg5
I0
sg6
F0.0
sg7
(F-1.5709522406207483
F-1.3206794897662562
F-2.3554509321795862
F-1.0470464865313929
F1.5709315538406372
F8.388957940042019e-05
tp207
sg9
(lp208
F0.0
aF0.0
aF0.0
aF0.0
aF0.0
aF0.0
asg11
I01
sg12
g13
sg14
I00
sg15
g16
sa(dp209
g2
F0.0
sg3
(lp210
F0.16400500902646928
aF0.4556543236489555
aF0.3352830445710931
aF3.130852395996081
aF0.00013418976500420183
aF-0.0002651551660763931
asg5
I0
sg6
F0.0
sg7
(F-1.5709641615497034
F-1.320643726979391
F-2.355439011250631
F-1.0470464865313929
F1.5709315538406372
F9.58738019107841e-05
tp211
sg9
(lp212
F0.0
aF0.0
aF0.0
aF0.0
aF0.0
aF0.0
asg11
I01
sg12
g13
sg14
I00
sg15
g16
sa(dp213
g2
F0.0
sg3
(lp214
F0.1640267376722964
aF0.4556536529873756
aF0.33528692673296734
aF3.1308168732364416
aF0.00013431544453330774
aF-0.0003008601219982968
asg5
I0
sg6
F0.0
sg7
(F-1.5710118452655237
F-1.3206551710711878
F-2.355414930974142
F-1.0470946470843714
F1.5709315538406372
F8.388957940042019e-05
tp215
sg9
(lp216
F0.0
aF0.0
aF0.0
aF0.0
aF0.0
aF0.0
asg11
I01
sg12
g13
sg14
I00
sg15
g16
sa(dp217
g2
F0.0
sg3
(lp218
F0.16400500894774997
aF0.45565385459790964
aF0.3353013644283187
aF3.1308886388395543
aF0.00013444984557750252
aF-0.00024118322361156767
asg5
I0
sg6
F0.0
sg7
(F-1.5709641615497034
F-1.3206194082843226
F-2.355427090321676
F-1.0470464865313929
F1.5709315538406372
F7.190534961409867e-05
tp219
sg9
(lp220
F0.0
aF0.0
aF0.0
aF0.0
aF0.0
aF0.0
asg11
I01
sg12
g13
sg14
I00
sg15
g16
sa(dp221
g2
F0.0
sg3
(lp222
F0.1640138805430869
aF0.4556495908158029
aF0.335263575159232
aF3.130804715637406
aF0.00015853264486941134
aF-0.00025378816209060045
asg5
I0
sg6
F0.0
sg7
(F-1.5709884802447718
F-1.320667568837301
F-2.3554509321795862
F-1.047058407460348
F1.570955514907837
F5.992112710373476e-05
tp223
sg9
(lp224
F0.0
aF0.0
aF0.0
aF0.0
aF0.0
aF0.0
asg11
I01
sg12
g13
sg14
I00
sg15
g16
sa(dp225
g2
F0.0
sg3
(lp226
F0.16400288551197753
aF0.4556562781886607
aF0.33528304418309496
aF3.130852403022262
aF9.869597192000492e-05
aF-0.0002168982613412402
asg5
I0
sg6
F0.0
sg7
(F-1.5709522406207483
F-1.320643726979391
F-2.355439011250631
F-1.0470464865313929
F1.5708956718444824
F5.992112710373476e-05
tp227
sg9
(lp228
F0.0
aF0.0
aF0.0
aF0.0
aF0.0
aF0.0
asg11
I01
sg12
g13
sg14
I00
sg15
g16
sa(dp229
g2
F0.0
sg3
(lp230
F0.1640038948357468
aF0.4556299546432425
aF0.3352554949064653
aF3.1307811146894946
aF0.00014674052322235194
aF-0.0002173608019458669
asg5
I0
sg6
F0.0
sg7
(F-1.5709641615497034
F-1.3206313292132776
F-2.3554869333850306
F-1.047082249318258
F1.5709435939788818
F4.793690095539205e-05
tp231
sg9
(lp232
F0.0
aF0.0
aF0.0
aF0.0
aF0.0
aF0.0
asg11
I01
sg12
g13
sg14
I00
sg15
g16
sa.