(lp0
(dp1
S'start_gripper_pos'
p2
F0.0
sS'curr_pos'
p3
(lp4
F0.16400344393594843
aF0.4594918266864295
aF0.5961049668403829
aF3.1309468093153474
aF0.0001582862418603597
aF-0.00025341403373124787
asS'gripper_ac'
p5
I0
sS'curr_gripper_pos'
p6
F0.0
sS'curr_q'
p7
(F-1.5709641615497034
F-1.1899893919574183
F-1.96196157137026
F-1.5710838476764124
F1.570955514907837
F8.388957940042019e-05
tp8
sS'xdot_h'
p9
(lp10
F0.0
aF0.0
aF0.0
aF0.0
aF0.0
aF0.0
asS'trans_mode'
p11
I01
sS'start_pos'
p12
(lp13
F0.16401899008060203
aF0.4595081397560145
aF0.5962147978091632
aF3.1311027299571426
aF0.0001700876372211265
aF-0.0003137224002577908
asS'slow_mode'
p14
I00
sS'start_q'
p15
(F-1.5710004011737269
F-1.1900013128863733
F-1.9617937246905726
F-1.5710838476764124
F1.5709675550460815
F0.000107858024421148
tp16
sa(dp17
g2
F0.0
sg3
(lp18
F0.16401023859807223
aF0.4594836506412411
aF0.5960830481473746
aF3.1309587312637595
aF0.00014636700712530664
aF-0.0002656831490737352
asg5
I0
sg6
F0.0
sg7
(F-1.5709765593158167
F-1.189976994191305
F-1.9620097319232386
F-1.571036163960592
F1.5709435939788818
F8.388957940042019e-05
tp19
sg9
(lp20
F0.0
aF0.0
aF0.0
aF0.0
aF0.0
aF0.0
asg11
I01
sg12
g13
sg14
I00
sg15
g16
sa(dp21
g2
F0.0
sg3
(lp22
F0.16401350799206454
aF0.4594876495375121
aF0.5960909954840776
aF3.1309463334889527
aF0.00017045324247048755
aF-0.00026587743424230236
asg5
I0
sg6
F0.0
sg7
(F-1.5709884802447718
F-1.1899893919574183
F-1.9619858900653284
F-1.5710600058185022
F1.5709675550460815
F7.190534961409867e-05
tp23
sg9
(lp24
F0.0
aF0.0
aF0.0
aF0.0
aF0.0
aF0.0
asg11
I01
sg12
g13
sg14
I00
sg15
g16
sa(dp25
g2
F0.0
sg3
(lp26
F0.164013506647661
aF0.4594806530302946
aF0.5960885029994545
aF3.1309468144144432
aF0.0001707084371037459
aF-0.00024191026216302652
asg5
I0
sg6
F0.0
sg7
(F-1.5709884802447718
F-1.189976994191305
F-1.9619978109942835
F-1.5710600058185022
F1.5709675550460815
F4.793690095539205e-05
tp27
sg9
(lp28
F0.0
aF0.0
aF0.0
aF0.0
aF0.0
aF0.0
asg11
I01
sg12
g13
sg14
I00
sg15
g16
sa(dp29
g2
F0.0
sg3
(lp30
F0.16401350539218987
aF0.4594741193077013
aF0.5961189001391115
aF3.131018810695914
aF0.00017033186849231706
aF-0.0002778486397519502
asg5
I0
sg6
F0.0
sg7
(F-1.5709884802447718
F-1.1899531523333948
F-1.9619734922992151
F-1.571036163960592
F1.5709675550460815
F8.388957940042019e-05
tp31
sg9
(lp32
F0.0
aF0.0
aF0.0
aF0.0
aF0.0
aF0.0
asg11
I01
sg12
g13
sg14
I00
sg15
g16
sa(dp33
g2
F0.0
sg3
(lp34
F0.16400454202653017
aF0.45948575483654314
aF0.5960898701269093
aF3.13095873301852
aF0.00014649444408167892
aF-0.00024130183062933406
asg5
I0
sg6
F0.0
sg7
(F-1.5709641615497034
F-1.189976994191305
F-1.9619978109942835
F-1.5710480848895472
F1.5709435939788818
F7.190534961409867e-05
tp35
sg9
(lp36
F0.0
aF0.0
aF0.0
aF0.0
aF0.0
aF0.0
asg11
I01
sg12
g13
sg14
I00
sg15
g16
sa(dp37
g2
F0.0
sg3
(lp38
F0.1639859008237682
aF0.45949619015809995
aF0.5961022172104024
aF3.1310068897668297
aF0.00017033084691394273
aF-0.0002177691883239376
asg5
I0
sg6
F0.0
sg7
(F-1.5709283987628382
F-1.189976994191305
F-1.9619858900653284
F-1.5710118452655237
F1.5709675550460815
F8.388957940042019e-05
tp39
sg9
(lp40
F0.0
aF0.0
aF0.0
aF0.0
aF0.0
aF0.0
asg11
I01
sg12
g13
sg14
I00
sg15
g16
sa(dp41
g2
F0.0
sg3
(lp42
F0.16400233323358523
aF0.45948824209928796
aF0.5961133990004996
aF3.1309830499505678
aF0.00017045594923940856
aF-0.0002415524806918774
asg5
I0
sg6
F0.0
sg7
(F-1.5709641615497034
F-1.189976994191305
F-1.96196157137026
F-1.5710600058185022
F1.5709675550460815
F7.190534961409867e-05
tp43
sg9
(lp44
F0.0
aF0.0
aF0.0
aF0.0
aF0.0
aF0.0
asg11
I01
sg12
g13
sg14
I00
sg15
g16
sa(dp45
g2
F0.0
sg3
(lp46
F0.16402230378788615
aF0.459480680207865
aF0.595739507347521
aF3.1310087969771465
aF0.00013407814761206907
aF-0.0003133573527152425
asg5
I0
sg6
F0.0
sg7
(F-1.5710004011737269
F-1.189976994191305
F-1.9626200834857386
F-1.5703757444964808
F1.5709315538406372
F0.000107858024421148
tp47
sg9
(lp48
F0.0
aF0.0
aF-0.03529052734375
aF0.0
aF0.0
aF0.0
asg11
I01
sg12
g13
sg14
I00
sg15
g16
sa(dp49
g2
F0.0
sg3
(lp50
F0.16401240214148735
aF0.45945257190285677
aF0.5929907699731627
aF3.130786115322002
aF0.00018236166128667228
aF-0.0002660335642806053
asg5
I0
sg6
F0.0
sg7
(F-1.5709884802447718
F-1.1900251547442835
F-1.9673498312579554
F-1.5658205191241663
F1.5709794759750366
F7.190534961409867e-05
tp51
sg9
(lp52
F0.0
aF0.0
aF-0.036859130859375
aF0.0
aF0.0
aF0.0
asg11
I01
sg12
g13
sg14
I00
sg15
g16
sa(dp53
g2
F0.0
sg3
(lp54
F0.16400232718318086
aF0.45945220031463846
aF0.5895789014851988
aF3.130999264457581
aF0.00017058409553324643
aF-0.00022956616691799923
asg5
I0
sg6
F0.0
sg7
(F-1.5709641615497034
F-1.190096680318014
F-1.9733122030841272
F-1.5595734755145472
F1.5709675550460815
F5.992112710373476e-05
tp55
sg9
(lp56
F0.0
aF0.0
aF-0.046270751953125
aF0.0
aF0.0
aF0.0
asg11
I01
sg12
g13
sg14
I00
sg15
g16
sa(dp57
g2
F0.0
sg3
(lp58
F0.16400232638626958
aF0.45944745758670974
aF0.5851094901094473
aF3.1311771226762493
aF0.000170470252629129
aF-0.00024151939849311239
asg5
I0
sg6
F0.0
sg7
(F-1.5709641615497034
F-1.1902645269977015
F-1.9810588995562952
F-1.551481072102682
F1.5709675550460815
F7.190534961409867e-05
tp59
sg9
(lp60
F0.0
aF0.0
aF-0.080780029296875
aF0.0
aF0.0
aF0.0
asg11
I01
sg12
g13
sg14
I00
sg15
g16
sa(dp61
g2
F0.0
sg3
(lp62
F0.16400231271389287
aF0.4593660026944517
aF0.578211850919919
aF3.1310011718062376
aF0.00017058421327626096
aF-0.00022956584155493418
asg5
I0
sg6
F0.0
sg7
(F-1.5709641615497034
F-1.1905882994281214
F-1.9928887526141565
F-1.5395033995257776
F1.5709675550460815
F5.992112710373476e-05
tp63
sg9
(lp64
F0.0
aF0.0
aF-0.08705444335937501
aF0.0
aF0.0
aF0.0
asg11
I01
sg12
g13
sg14
I00
sg15
g16
sa(dp65
g2
F0.0
sg3
(lp66
F0.16400341054742215
aF0.4592929227403621
aF0.5691380808328812
aF3.130698859687638
aF0.0001586566705819947
aF-0.0002175027333866155
asg5
I0
sg6
F0.0
sg7
(F-1.5709641615497034
F-1.1913188139544886
F-2.0082624594317835
F-1.5237014929400843
F1.570955514907837
F4.793690095539205e-05
tp67
sg9
(lp68
F0.0
aF0.0
aF-0.08705444335937501
aF0.0
aF0.0
aF0.0
asg11
I01
sg12
g13
sg14
I00
sg15
g16
sa(dp69
g2
F0.0
sg3
(lp70
F0.16400670768674624
aF0.4592263162025535
aF0.5601534108599105
aF3.130816158997231
aF0.00012239514677801536
aF-0.00025304803890356626
asg5
I0
sg6
F0.0
sg7
(F-1.5709641615497034
F-1.192253891621725
F-2.0234554449664515
F-1.507456127797262
F1.5709196329116821
F8.388957940042019e-05
tp71
sg9
(lp72
F0.0
aF0.0
aF-0.08705444335937501
aF0.0
aF0.0
aF0.0
asg11
I01
sg12
g13
sg14
I00
sg15
g16
sa(dp73
g2
F0.0
sg3
(lp74
F0.16402085925227666
aF0.45912976731634697
aF0.551608390636858
aF3.130644972220421
aF0.00020644205985790963
aF-0.0002777031318042704
asg5
I0
sg6
F0.0
sg7
(F-1.5710118452655237
F-1.1933921019183558
F-2.0377147833453577
F-1.4922297636615198
F1.5710034370422363
F5.992112710373476e-05
tp75
sg9
(lp76
F0.0
aF0.0
aF-0.09332885742187501
aF0.0
aF0.0
aF0.0
asg11
I01
sg12
g13
sg14
I00
sg15
g16
sa(dp77
g2
F0.0
sg3
(lp78
F0.1640011631168653
aF0.4590652305666012
aF0.5423131905868875
aF3.131076030133375
aF0.0001822570414272591
aF-0.0002536455636904086
asg5
I0
sg6
F0.0
sg7
(F-1.5709641615497034
F-1.1948660055743616
F-2.053230587636129
F-1.4748089949237269
F1.5709794759750366
F8.388957940042019e-05
tp79
sg9
(lp80
F0.0
aF0.0
aF-0.10274047851562501
aF0.0
aF0.0
aF0.0
asg11
I01
sg12
g13
sg14
I00
sg15
g16
sa(dp81
g2
F0.0
sg3
(lp82
F0.16402631971477036
aF0.4588649915585713
aF0.5324909006331687
aF3.1306201751261917
aF0.00014620657507866016
aF-0.00031300214822908823
asg5
I0
sg6
F0.0
sg7
(F-1.5710118452655237
F-1.1966751257525843
F-2.0693209807025355
F-1.4573653380023401
F1.5709435939788818
F9.58738019107841e-05
tp83
sg9
(lp84
F0.0
aF0.0
aF-0.10430908203125
aF0.0
aF0.0
aF0.0
asg11
I01
sg12
g13
sg14
I00
sg15
g16
sa(dp85
g2
F0.0
sg3
(lp86
F0.16401009704068917
aF0.45869831989152976
aF0.5217747133924209
aF3.130803285859855
aF0.00014661232162008547
aF-0.00024173884312398257
asg5
I0
sg6
F0.0
sg7
(F-1.5709765593158167
F-1.1990121046649378
F-2.0868352095233362
F-1.4373310248004358
F1.5709435939788818
F5.992112710373476e-05
tp87
sg9
(lp88
F0.0
aF0.0
aF-0.10430908203125
aF0.0
aF0.0
aF0.0
asg11
I01
sg12
g13
sg14
I00
sg15
g16
sa(dp89
g2
F0.0
sg3
(lp90
F0.16400437903217968
aF0.45851469909030246
aF0.5110299440245687
aF3.1309978319110083
aF0.0001463703481882676
aF-0.00025327965985846
asg5
I0
sg6
F0.0
sg7
(F-1.5709641615497034
F-1.2017563025103968
F-2.104206387196676
F-1.4170210997210901
F1.5709435939788818
F8.388957940042019e-05
tp91
sg9
(lp92
F0.0
aF0.0
aF-0.10430908203125
aF0.0
aF0.0
aF0.0
asg11
I01
sg12
g13
sg14
I00
sg15
g16
sa(dp93
g2
F0.0
sg3
(lp94
F0.16400545155250706
aF0.4582907980270036
aF0.5010695370692804
aF3.130986867294768
aF0.00013445704983560118
aF-0.00024117001647727755
asg5
I0
sg6
F0.0
sg7
(F-1.5709641615497034
F-1.204620663319723
F-2.1201279799090784
F-1.3982461134540003
F1.5709315538406372
F7.190534961409867e-05
tp95
sg9
(lp96
F0.0
aF0.0
aF-0.1074462890625
aF0.0
aF0.0
aF0.0
asg11
I01
sg12
g13
sg14
I00
sg15
g16
sa(dp97
g2
F0.0
sg3
(lp98
F0.1640054281828255
aF0.4581515692443104
aF0.49008587436917694
aF3.131063159629979
aF0.00013433645894696345
aF-0.0002531433235742183
asg5
I0
sg6
F0.0
sg7
(F-1.5709641615497034
F-1.208419148121969
F-2.1373780409442347
F-1.3771212736712855
F1.5709315538406372
F8.388957940042019e-05
tp99
sg9
(lp100
F0.0
aF0.0
aF-0.11842651367187501
aF0.0
aF0.0
aF0.0
asg11
I01
sg12
g13
sg14
I00
sg15
g16
sa(dp101
g2
F0.0
sg3
(lp102
F0.1640197749390861
aF0.4579145139364026
aF0.4788760902648722
aF3.1307927909118827
aF0.0001582730591991988
aF-0.0002896780357021176
asg5
I0
sg6
F0.0
sg7
(F-1.5710004011737269
F-1.212672535573141
F-2.154759709035055
F-1.3557565847979944
F1.570955514907837
F8.388957940042019e-05
tp103
sg9
(lp104
F0.0
aF0.0
aF-0.11842651367187501
aF0.0
aF0.0
aF0.0
asg11
I01
sg12
g13
sg14
I00
sg15
g16
sa(dp105
g2
F0.0
sg3
(lp106
F0.1640020384065745
aF0.4577317495559422
aF0.4668471024974501
aF3.1312310114111344
aF0.00017084674489783934
aF-0.0002055594676750024
asg5
I0
sg6
F0.0
sg7
(F-1.5709641615497034
F-1.2178376356707972
F-2.173290554677145
F-1.3316224257098597
F1.5709675550460815
F3.5952674807049334e-05
tp107
sg9
(lp108
F0.0
aF0.0
aF-0.11842651367187501
aF0.0
aF0.0
aF0.0
asg11
I01
sg12
g13
sg14
I00
sg15
g16
sa(dp109
g2
F0.0
sg3
(lp110
F0.16400656779548017
aF0.45747261720580373
aF0.4551350473492413
aF3.1306497398928603
aF0.0001823515841587148
aF-0.00025413750426013737
asg5
I0
sg6
F0.0
sg7
(F-1.5709765593158167
F-1.2234457174884241
F-2.1908748785602015
F-1.3090112845050257
F1.5709794759750366
F7.190534961409867e-05
tp111
sg9
(lp112
F0.0
aF0.0
aF-0.1199951171875
aF0.0
aF0.0
aF0.0
asg11
I01
sg12
g13
sg14
I00
sg15
g16
sa(dp113
g2
F0.0
sg3
(lp114
F0.16403908804803782
aF0.45726931270773896
aF0.443000454953083
aF3.131077467228688
aF0.00012254342350270867
aF-0.0003125580597599389
asg5
I0
sg6
F0.0
sg7
(F-1.5710356871234339
F-1.2299163977252405
F-2.2090213934527796
F-1.283966366444723
F1.5709196329116821
F7.190534961409867e-05
tp115
sg9
(lp116
F0.0
aF0.0
aF-0.1199951171875
aF0.0
aF0.0
aF0.0
asg11
I01
sg12
g13
sg14
I00
sg15
g16
sa(dp117
g2
F0.0
sg3
(lp118
F0.16401302305427432
aF0.45696412565875605
aF0.4304888141436612
aF3.131062202877781
aF0.0001703355868331871
aF-0.0002778412486087958
asg5
I0
sg6
F0.0
sg7
(F-1.5709884802447718
F-1.2371304670916956
F-2.227443043385641
F-1.258345905934469
F1.5709675550460815
F8.388957940042019e-05
tp119
sg9
(lp120
F0.0
aF0.0
aF-0.1199951171875
aF0.0
aF0.0
aF0.0
asg11
I01
sg12
g13
sg14
I00
sg15
g16
sa(dp121
g2
F0.0
sg3
(lp122
F0.16399429942583416
aF0.45672824770525067
aF0.4191470861803726
aF3.1312720126970923
aF0.00013423059045884308
aF-0.00024125699141962247
asg5
I0
sg6
F0.0
sg7
(F-1.5709403196917933
F-1.2443683783160608
F-2.2438891569720667
F-1.2344520727740687
F1.5709315538406372
F9.58738019107841e-05
tp123
sg9
(lp124
F0.0
aF0.0
aF-0.1199951171875
aF0.0
aF0.0
aF0.0
asg11
I01
sg12
g13
sg14
I00
sg15
g16
sa(dp125
g2
F0.0
sg3
(lp126
F0.1640096992801564
aF0.456491521079159
aF0.40663391666703297
aF3.1310407490103898
aF0.0001465004690640229
aF-0.00025368758162526607
asg5
I0
sg6
F0.0
sg7
(F-1.5709765593158167
F-1.2532122770892542
F-2.2615559736834925
F-1.208172623311178
F1.5709435939788818
F7.190534961409867e-05
tp127
sg9
(lp128
F0.0
aF0.0
aF-0.1199951171875
aF0.0
aF0.0
aF0.0
asg11
I01
sg12
g13
sg14
I00
sg15
g16
sa(dp129
g2
F0.0
sg3
(lp130
F0.1639942326428717
aF0.4562644885763157
aF0.39505358493169535
aF3.1306998097134735
aF0.0001343054532186876
aF-0.00022935027109810546
asg5
I0
sg6
F0.0
sg7
(F-1.5709403196917933
F-1.2620795408831995
F-2.277606789265768
F-1.1835954825030726
F1.5709315538406372
F8.388957940042019e-05
tp131
sg9
(lp132
F0.0
aF0.0
aF-0.1199951171875
aF0.0
aF0.0
aF0.0
asg11
I01
sg12
g13
sg14
I00
sg15
g16
sa(dp133
g2
F0.0
sg3
(lp134
F0.16401503163998657
aF0.45592009068234035
aF0.3828468025690369
aF3.1311385023850415
aF0.00014663293131776895
aF-0.000253610621820172
asg5
I0
sg6
F0.0
sg7
(F-1.5709884802447718
F-1.271942440663473
F-2.2945550123797815
F-1.1563456694232386
F1.5709435939788818
F5.992112710373476e-05
tp135
sg9
(lp136
F0.0
aF0.0
aF-0.1199951171875
aF0.0
aF0.0
aF0.0
asg11
I01
sg12
g13
sg14
I00
sg15
g16
sa(dp137
g2
F0.0
sg3
(lp138
F0.1640106517992409
aF0.45561723714576513
aF0.3711893470756487
aF3.130713879631773
aF0.0001345673961718206
aF-0.0002416209716610144
asg5
I0
sg6
F0.0
sg7
(F-1.5709765593158167
F-1.2822235266314905
F-2.3101864496814173
F-1.1308577696429651
F1.5709315538406372
F5.992112710373476e-05
tp139
sg9
(lp140
F0.0
aF0.0
aF-0.1199951171875
aF0.0
aF0.0
aF0.0
asg11
I01
sg12
g13
sg14
I00
sg15
g16
sa(dp141
g2
F0.0
sg3
(lp142
F0.16400276696178798
aF0.4554585410498383
aF0.3589122728151193
aF3.130962312220537
aF0.00015866975023055133
aF-0.00021746093321592483
asg5
I0
sg6
F0.0
sg7
(F-1.5709641615497034
F-1.2941468397723597
F-2.3262959162341517
F-1.1025765577899378
F1.570955514907837
F4.793690095539205e-05
tp143
sg9
(lp144
F0.0
aF0.0
aF-0.1199951171875
aF0.0
aF0.0
aF0.0
asg11
I01
sg12
g13
sg14
I00
sg15
g16
sa(dp145
g2
F0.0
sg3
(lp146
F0.16402029035921828
aF0.45505446665255617
aF0.3465182364608595
aF3.1310169106664762
aF0.00014675219718548552
aF-0.0002535658238162581
asg5
I0
sg6
F0.0
sg7
(F-1.5710004011737269
F-1.3066228071795862
F-2.3424657026873987
F-1.07387620607485
F1.5709435939788818
F4.793690095539205e-05
tp147
sg9
(lp148
F0.0
aF0.0
aF-0.1199951171875
aF0.0
aF0.0
aF0.0
asg11
I01
sg12
g13
sg14
I00
sg15
g16
sa(dp149
g2
F0.0
sg3
(lp150
F0.16400376509938375
aF0.454856954258403
aF0.33509991363201896
aF3.1310221488529457
aF0.00014624574914235384
aF-0.0002652596534153075
asg5
I0
sg6
F0.0
sg7
(F-1.5709641615497034
F-1.3192651907550257
F-2.3568037191974085
F-1.0468905607806605
F1.5709435939788818
F9.58738019107841e-05
tp151
sg9
(lp152
F0.0
aF0.0
aF-0.1199951171875
aF0.0
aF0.0
aF0.0
asg11
I01
sg12
g13
sg14
I00
sg15
g16
sa(dp153
g2
F0.0
sg3
(lp154
F0.16402126384929192
aF0.45438507458234595
aF0.3225697611668892
aF3.1305505612922433
aF0.00013442504042409533
aF-0.00027746829784695674
asg5
I0
sg6
F0.0
sg7
(F-1.5710004011737269
F-1.3336098829852503
F-2.372373882924215
F-1.017447296773092
F1.5709315538406372
F7.190534961409867e-05
tp155
sg9
(lp156
F0.0
aF0.0
aF-0.1199951171875
aF0.0
aF0.0
aF0.0
asg11
I01
sg12
g13
sg14
I00
sg15
g16
sa(dp157
g2
F0.0
sg3
(lp158
F0.1640220134040812
aF0.4542345521379104
aF0.3112591970819185
aF3.1308543052227407
aF0.00018249538687488265
aF-0.00027740261829676947
asg5
I0
sg6
F0.0
sg7
(F-1.5710118452655237
F-1.3479302565204065
F-2.385897938405172
F-0.9892991224872034
F1.5709794759750366
F5.992112710373476e-05
tp159
sg9
(lp160
F0.0
aF0.0
aF-0.1199951171875
aF0.0
aF0.0
aF0.0
asg11
I01
sg12
g13
sg14
I00
sg15
g16
sa(dp161
g2
F0.0
sg3
(lp162
F0.16400702112665436
aF0.45388976529116937
aF0.29893511425867636
aF3.130872187353313
aF0.00017057624950690735
aF-0.00024198560983950987
asg5
I0
sg6
F0.0
sg7
(F-1.5709765593158167
F-1.3641331831561487
F-2.4004269281970423
F-0.9585493246661585
F1.5709675550460815
F5.992112710373476e-05
tp163
sg9
(lp164
F0.0
aF0.0
aF-0.1199951171875
aF0.0
aF0.0
aF0.0
asg11
I01
sg12
g13
sg14
I00
sg15
g16
sa(dp165
g2
F0.0
sg3
(lp166
F0.1640091795225644
aF0.45360783981065406
aF0.28746260738036783
aF3.1308757615976464
aF0.0001463599168114772
aF-0.0002656952927842521
asg5
I0
sg6
F0.0
sg7
(F-1.5709765593158167
F-1.3802273909198206
F-2.4135077635394495
F-0.9293707052813929
F1.5709435939788818
F8.388957940042019e-05
tp167
sg9
(lp168
F0.0
aF0.0
aF-0.121563720703125
aF0.0
aF0.0
aF0.0
asg11
I01
sg12
g13
sg14
I00
sg15
g16
sa(dp169
g2
F0.0
sg3
(lp170
F0.16399700363085434
aF0.45331948500428265
aF0.275344357637101
aF3.131227910520673
aF0.00015868292526245424
aF-0.00020549786014967367
asg5
I0
sg6
F0.0
sg7
(F-1.5709522406207483
F-1.3982275168048304
F-2.426995340977804
F-0.8975308577166956
F1.570955514907837
F4.793690095539205e-05
tp171
sg9
(lp172
F0.0
aF0.0
aF0.0
aF0.0
aF0.0
aF0.0
asg11
I01
sg12
g13
sg14
I00
sg15
g16
sa(dp173
g2
F0.0
sg3
(lp174
F0.1640068723506092
aF0.45306433212152536
aF0.2689860476374431
aF3.131002596191956
aF0.00017020356791997243
aF-0.00027791402296078495
asg5
I0
sg6
F0.0
sg7
(F-1.5709765593158167
F-1.4078987280475062
F-2.433936421071188
F-0.881143871937887
F1.5709675550460815
F9.58738019107841e-05
tp175
sg9
(lp176
F0.0
aF0.0
aF0.0
aF0.0
aF0.0
aF0.0
asg11
I01
sg12
g13
sg14
I00
sg15
g16
sa(dp177
g2
F0.0
sg3
(lp178
F0.16401559112803746
aF0.45305472781446204
aF0.26905894150439336
aF3.1311110833752687
aF0.00013446615821699465
aF-0.00026547200927771287
asg5
I0
sg6
F0.0
sg7
(F-1.5709884802447718
F-1.4077666441546839
F-2.4339004198657435
F-0.8812034765826624
F1.5709315538406372
F7.190534961409867e-05
tp179
sg9
(lp180
F0.0
aF0.0
aF0.0
aF0.0
aF0.0
aF0.0
asg11
I01
sg12
g13
sg14
I00
sg15
g16
sa(dp181
g2
F0.0
sg3
(lp182
F0.164014465769831
aF0.45297532535309826
aF0.26908896217441475
aF3.1307267552529408
aF0.00014673783079754656
aF-0.00024168747366203294
asg5
I0
sg6
F0.0
sg7
(F-1.5709884802447718
F-1.4075630346881312
F-2.4338884989367884
F-0.8818033377276819
F1.5709435939788818
F4.793690095539205e-05
tp183
sg9
(lp184
F0.0
aF0.0
aF0.0
aF0.0
aF0.0
aF0.0
asg11
I01
sg12
g13
sg14
I00
sg15
g16
sa.