(lp0
(dp1
S'trans_mode'
p2
I01
sS'axes'
p3
(lp4
F0.0
aF0.0
aF0.0
asS'slow_mode'
p5
I0
sS'gripper_ac'
p6
I0
sa(dp7
g2
I01
sg3
(lp8
F0.0
aF0.0
aF0.0
asg5
I0
sg6
I0
sa(dp9
g2
I01
sg3
(lp10
F0.0
aF0.0
aF0.0
asg5
I0
sg6
I0
sa(dp11
g2
I01
sg3
(lp12
F0.0
aF0.0
aF0.0
asg5
I0
sg6
I0
sa(dp13
g2
I01
sg3
(lp14
F0.0
aF0.0
aF0.0
asg5
I0
sg6
I0
sa(dp15
g2
I01
sg3
(lp16
F0.0
aF0.0
aF0.0
asg5
I0
sg6
I0
sa(dp17
g2
I01
sg3
(lp18
F0.0
aF0.0
aF0.0
asg5
I0
sg6
I0
sa(dp19
g2
I01
sg3
(lp20
F0.0
aF0.0
aF0.0
asg5
I0
sg6
I0
sa(dp21
g2
I01
sg3
(lp22
F0.0
aF0.0
aF-0.5
asg5
I0
sg6
I0
sa(dp23
g2
I01
sg3
(lp24
F0.0
aF0.0
aF-0.5
asg5
I0
sg6
I0
sa(dp25
g2
I01
sg3
(lp26
F0.0
aF0.0
aF-0.5
asg5
I0
sg6
I0
sa(dp27
g2
I01
sg3
(lp28
F0.0
aF0.0
aF-1.0
asg5
I0
sg6
I0
sa(dp29
g2
I01
sg3
(lp30
F0.0
aF0.0
aF-1.0
asg5
I0
sg6
I0
sa(dp31
g2
I01
sg3
(lp32
F0.0
aF0.0
aF-1.0
asg5
I0
sg6
I0
sa(dp33
g2
I01
sg3
(lp34
F0.0
aF0.0
aF-1.0
asg5
I0
sg6
I0
sa(dp35
g2
I01
sg3
(lp36
F0.0
aF0.0
aF-1.0
asg5
I0
sg6
I0
sa(dp37
g2
I01
sg3
(lp38
F0.0
aF0.0
aF-1.0
asg5
I0
sg6
I0
sa(dp39
g2
I01
sg3
(lp40
F0.0
aF0.0
aF-1.0
asg5
I0
sg6
I0
sa(dp41
g2
I01
sg3
(lp42
F0.0
aF0.0
aF-1.0
asg5
I0
sg6
I0
sa(dp43
g2
I01
sg3
(lp44
F0.0
aF0.0
aF-1.0
asg5
I0
sg6
I0
sa(dp45
g2
I01
sg3
(lp46
F0.0
aF0.0
aF-1.0
asg5
I0
sg6
I0
sa(dp47
g2
I01
sg3
(lp48
F0.0
aF0.0
aF-1.0
asg5
I0
sg6
I0
sa(dp49
g2
I01
sg3
(lp50
F0.0
aF0.0
aF-1.0
asg5
I0
sg6
I0
sa(dp51
g2
I01
sg3
(lp52
F0.0
aF0.0
aF-1.0
asg5
I0
sg6
I0
sa(dp53
g2
I01
sg3
(lp54
F0.0
aF0.0
aF-1.0
asg5
I0
sg6
I0
sa(dp55
g2
I01
sg3
(lp56
F0.0
aF0.0
aF-1.0
asg5
I0
sg6
I0
sa(dp57
g2
I01
sg3
(lp58
F0.0
aF0.0
aF-1.0
asg5
I0
sg6
I0
sa(dp59
g2
I01
sg3
(lp60
F0.0
aF0.0
aF-1.0
asg5
I0
sg6
I0
sa(dp61
g2
I01
sg3
(lp62
F0.0
aF0.0
aF-1.0
asg5
I0
sg6
I0
sa(dp63
g2
I01
sg3
(lp64
F0.0
aF0.0
aF-1.0
asg5
I0
sg6
I0
sa(dp65
g2
I01
sg3
(lp66
F0.0
aF0.0
aF-1.0
asg5
I0
sg6
I0
sa(dp67
g2
I01
sg3
(lp68
F0.0
aF0.0
aF-1.0
asg5
I0
sg6
I0
sa(dp69
g2
I01
sg3
(lp70
F0.0
aF0.0
aF-1.0
asg5
I0
sg6
I0
sa(dp71
g2
I01
sg3
(lp72
F0.0
aF0.0
aF-1.0
asg5
I0
sg6
I0
sa(dp73
g2
I01
sg3
(lp74
F0.0
aF0.0
aF-1.0
asg5
I0
sg6
I0
sa(dp75
g2
I01
sg3
(lp76
F0.0
aF0.0
aF-1.0
asg5
I0
sg6
I0
sa(dp77
g2
I01
sg3
(lp78
F0.0
aF0.0
aF-1.0
asg5
I0
sg6
I0
sa(dp79
g2
I01
sg3
(lp80
F0.0
aF0.0
aF-1.0
asg5
I0
sg6
I0
sa(dp81
g2
I01
sg3
(lp82
F0.0
aF0.0
aF-1.0
asg5
I0
sg6
I0
sa(dp83
g2
I01
sg3
(lp84
F0.0
aF0.0
aF0.0
asg5
I0
sg6
I0
sa(dp85
g2
I01
sg3
(lp86
F0.0
aF0.0
aF0.0
asg5
I0
sg6
I0
sa(dp87
g2
I01
sg3
(lp88
F0.0
aF0.0
aF0.0
asg5
I0
sg6
I0
sa(dp89
g2
I01
sg3
(lp90
F0.0
aF0.0
aF0.0
asg5
I0
sg6
I0
sa.