(lp0
(dp1
S'start_gripper_pos'
p2
F0.0
sS'curr_pos'
p3
(lp4
F0.16403193084723233
aF0.45948313144921166
aF0.5961393347581302
aF3.1310307354299867
aF0.0001464997335085261
aF-0.00030089592727585964
asS'gripper_ac'
p5
I0
sS'curr_gripper_pos'
p6
F0.0
sS'curr_q'
p7
(F-1.5710237661944788
F-1.189976994191305
F-1.9619258085833948
F-1.5710480848895472
F1.5709435939788818
F7.190534961409867e-05
tp8
sS'xdot_h'
p9
(lp10
F0.0
aF0.0
aF0.0
aF0.0
aF0.0
aF0.0
asS'trans_mode'
p11
I01
sS'start_pos'
p12
(lp13
F0.1640211926137509
aF0.45947541999268665
aF0.5962177432312159
aF3.1310431279362203
aF0.0001461213676586346
aF-0.0003134797648313839
asS'slow_mode'
p14
I00
sS'start_q'
p15
(F-1.5710004011737269
F-1.1899531523333948
F-1.9618056456195276
F-1.5711796919452112
F1.5709435939788818
F0.000107858024421148
tp16
sa(dp17
g2
F0.0
sg3
(lp18
F0.16400123507782433
aF0.45949392557136687
aF0.596127113612156
aF3.131043128369034
aF0.00018225421800163207
aF-0.0002536515602154063
asg5
I0
sg6
F0.0
sg7
(F-1.5709641615497034
F-1.189976994191305
F-1.961949650441305
F-1.5710118452655237
F1.5709794759750366
F8.388957940042019e-05
tp19
sg9
(lp20
F0.0
aF0.0
aF0.0
aF0.0
aF0.0
aF0.0
asg11
I01
sg12
g13
sg14
I00
sg15
g16
sa(dp21
g2
F0.0
sg3
(lp22
F0.16400565369517653
aF0.4594950967224656
aF0.5961022470115364
aF3.130982572540826
aF0.00013420243270200746
aF-0.0002651376969186535
asg5
I0
sg6
F0.0
sg7
(F-1.5709641615497034
F-1.1899893919574183
F-1.9619734922992151
F-1.571036163960592
F1.5709315538406372
F9.58738019107841e-05
tp23
sg9
(lp24
F0.0
aF0.0
aF0.0
aF0.0
aF0.0
aF0.0
asg11
I01
sg12
g13
sg14
I00
sg15
g16
sa(dp25
g2
F0.0
sg3
(lp26
F0.1640124095194013
aF0.459490964544348
aF0.5960883308757801
aF3.1309825700491594
aF0.00018224902074595275
aF-0.00027798129212315087
asg5
I0
sg6
F0.0
sg7
(F-1.5709884802447718
F-1.1899893919574183
F-1.9619978109942835
F-1.5710118452655237
F1.5709794759750366
F8.388957940042019e-05
tp27
sg9
(lp28
F0.0
aF0.0
aF0.0
aF0.0
aF0.0
aF0.0
asg11
I01
sg12
g13
sg14
I00
sg15
g16
sa(dp29
g2
F0.0
sg3
(lp30
F0.16401461825490568
aF0.4594884930726023
aF0.5960981301522286
aF3.1310307345536126
aF0.0001584199975245988
aF-0.0002657358831078482
asg5
I0
sg6
F0.0
sg7
(F-1.5709884802447718
F-1.189976994191305
F-1.9619978109942835
F-1.5709760824786585
F1.570955514907837
F7.190534961409867e-05
tp31
sg9
(lp32
F0.0
aF0.0
aF0.0
aF0.0
aF0.0
aF0.0
asg11
I01
sg12
g13
sg14
I00
sg15
g16
sa(dp33
g2
F0.0
sg3
(lp34
F0.16399248806725492
aF0.45949099173339614
aF0.5961175795699704
aF3.131043132319848
aF0.00015842090977022288
aF-0.00021757336607213234
asg5
I0
sg6
F0.0
sg7
(F-1.5709403196917933
F-1.18996507326235
F-1.9619734922992151
F-1.5709999243365687
F1.570955514907837
F7.190534961409867e-05
tp35
sg9
(lp36
F0.0
aF0.0
aF0.0
aF0.0
aF0.0
aF0.0
asg11
I01
sg12
g13
sg14
I00
sg15
g16
sa(dp37
g2
F0.0
sg3
(lp38
F0.16402450986766748
aF0.45946533988196986
aF0.5953681268304981
aF3.1309611171969878
aF0.0001102406318288956
aF-0.0003011254624043242
asg5
I0
sg6
F0.0
sg7
(F-1.5710004011737269
F-1.18996507326235
F-1.963266674672262
F-1.5697887579547327
F1.5709075927734375
F9.58738019107841e-05
tp39
sg9
(lp40
F0.0
aF0.0
aF-0.052545166015625006
aF0.0
aF0.0
aF0.0
asg11
I01
sg12
g13
sg14
I00
sg15
g16
sa(dp41
g2
F0.0
sg3
(lp42
F0.16400673914104175
aF0.4594136905633386
aF0.5911882178229376
aF3.1306592781057994
aF0.00012225075167556
aF-0.0002650507454210467
asg5
I0
sg6
F0.0
sg7
(F-1.5709641615497034
F-1.1900251547442835
F-1.9704745451556605
F-1.5628226439105433
F1.5709196329116821
F9.58738019107841e-05
tp43
sg9
(lp44
F0.0
aF0.0
aF-0.060388183593750006
aF0.0
aF0.0
aF0.0
asg11
I01
sg12
g13
sg14
I00
sg15
g16
sa(dp45
g2
F0.0
sg3
(lp46
F0.1640102266722113
aF0.4594174929110003
aF0.5859109323816218
aF3.1313549864567847
aF0.0001466462323804068
aF-0.00024165794777572796
asg5
I0
sg6
F0.0
sg7
(F-1.5709765593158167
F-1.1901448408709925
F-1.9797657171832483
F-1.552716080342428
F1.5709435939788818
F5.992112710373476e-05
tp47
sg9
(lp48
F0.0
aF0.0
aF-0.06666259765625
aF0.0
aF0.0
aF0.0
asg11
I01
sg12
g13
sg14
I00
sg15
g16
sa(dp49
g2
F0.0
sg3
(lp50
F0.1640091180018447
aF0.4593644540944533
aF0.5791227679681229
aF3.131191426779675
aF0.0001583071713104634
aF-0.00026577307775569334
asg5
I0
sg6
F0.0
sg7
(F-1.5709765593158167
F-1.1904919783221644
F-1.991391960774557
F-1.5409062544452112
F1.570955514907837
F8.388957940042019e-05
tp51
sg9
(lp52
F0.0
aF0.0
aF-0.080780029296875
aF0.0
aF0.0
aF0.0
asg11
I01
sg12
g13
sg14
I00
sg15
g16
sa(dp53
g2
F0.0
sg3
(lp54
F0.16402226200437559
aF0.45927595801228704
aF0.5715803005412112
aF3.130764664402892
aF0.00013470027604276755
aF-0.0002534724720288297
asg5
I0
sg6
F0.0
sg7
(F-1.5710004011737269
F-1.1910432020770472
F-2.0041678587542933
F-1.5280059019671839
F1.5709315538406372
F4.793690095539205e-05
tp55
sg9
(lp56
F0.0
aF0.0
aF-0.099603271484375
aF0.0
aF0.0
aF0.0
asg11
I01
sg12
g13
sg14
I00
sg15
g16
sa(dp57
g2
F0.0
sg3
(lp58
F0.16400798915243903
aF0.45926044898182
aF0.5618006609010939
aF3.131076029115033
aF0.00017021074049922364
aF-0.0002779015241670388
asg5
I0
sg6
F0.0
sg7
(F-1.5709765593158167
F-1.1920622030841272
F-2.0207374731646937
F-1.5101059118853968
F1.5709675550460815
F9.58738019107841e-05
tp59
sg9
(lp60
F0.0
aF0.0
aF-0.11058349609375001
aF0.0
aF0.0
aF0.0
asg11
I01
sg12
g13
sg14
I00
sg15
g16
sa(dp61
g2
F0.0
sg3
(lp62
F0.16398584830094415
aF0.4590985765112533
aF0.5512125548295724
aF3.130609686451287
aF0.00017042841385143438
aF-0.0002058533306398228
asg5
I0
sg6
F0.0
sg7
(F-1.5709283987628382
F-1.1933806578265589
F-2.0384090582477015
F-1.49158221880068
F1.5709675550460815
F7.190534961409867e-05
tp63
sg9
(lp64
F0.0
aF0.0
aF-0.115289306640625
aF0.0
aF0.0
aF0.0
asg11
I01
sg12
g13
sg14
I00
sg15
g16
sa(dp65
g2
F0.0
sg3
(lp66
F0.16400334525575583
aF0.45890393535093993
aF0.5395788556664122
aF3.1308428588139376
aF0.00015827734499629321
aF-0.0002534304871816643
asg5
I0
sg6
F0.0
sg7
(F-1.5709641615497034
F-1.195153538380758
F-2.0578158537494105
F-1.4701693693744105
F1.570955514907837
F8.388957940042019e-05
tp67
sg9
(lp68
F0.0
aF0.0
aF-0.1199951171875
aF0.0
aF0.0
aF0.0
asg11
I01
sg12
g13
sg14
I00
sg15
g16
sa(dp69
g2
F0.0
sg3
(lp70
F0.16402435441798122
aF0.45870367772115617
aF0.5273443414528886
aF3.1310283499159923
aF0.00011012055411304635
aF-0.00031310160411855237
asg5
I0
sg6
F0.0
sg7
(F-1.5710004011737269
F-1.197550121937887
F-2.0779412428485315
F-1.4474619070636194
F1.5709075927734375
F0.000107858024421148
tp71
sg9
(lp72
F0.0
aF0.0
aF-0.1199951171875
aF0.0
aF0.0
aF0.0
asg11
I01
sg12
g13
sg14
I00
sg15
g16
sa(dp73
g2
F0.0
sg3
(lp74
F0.16399994413068883
aF0.4584164974097205
aF0.5156762745483585
aF3.1308061369365494
aF0.0001941440476106434
aF-0.00026580814399767134
asg5
I0
sg6
F0.0
sg7
(F-1.5709641615497034
F-1.2001984755145472
F-2.09689170518984
F-1.4260852972613733
F1.5709915161132812
F9.58738019107841e-05
tp75
sg9
(lp76
F0.0
aF0.0
aF-0.121563720703125
aF0.0
aF0.0
aF0.0
asg11
I01
sg12
g13
sg14
I00
sg15
g16
sa(dp77
g2
F0.0
sg3
(lp78
F0.16400432545785854
aF0.4581954996438768
aF0.5034248327884393
aF3.1311971515995367
aF0.00014651195583375822
aF-0.00024126690159314562
asg5
I0
sg6
F0.0
sg7
(F-1.5709641615497034
F-1.2036016623126429
F-2.1166089216815394
F-1.4025738875018519
F1.5709435939788818
F7.190534961409867e-05
tp79
sg9
(lp80
F0.0
aF0.0
aF-0.12626953125
aF0.0
aF0.0
aF0.0
asg11
I01
sg12
g13
sg14
I00
sg15
g16
sa(dp81
g2
F0.0
sg3
(lp82
F0.16399986330016522
aF0.45793491941788866
aF0.4913042478032179
aF3.1310731727362455
aF0.00019454839903072793
aF-0.0002298056122549611
asg5
I0
sg6
F0.0
sg7
(F-1.5709641615497034
F-1.207531754170553
F-2.135750118886129
F-1.3796265761004847
F1.5709915161132812
F5.992112710373476e-05
tp83
sg9
(lp84
F0.0
aF0.0
aF-0.13724975585937502
aF0.0
aF0.0
aF0.0
asg11
I01
sg12
g13
sg14
I00
sg15
g16
sa(dp85
g2
F0.0
sg3
(lp86
F0.16399656132395637
aF0.45760231505883714
aF0.4773042822742811
aF3.1307846836487006
aF0.00017031180026252216
aF-0.00024164889262864042
asg5
I0
sg6
F0.0
sg7
(F-1.5709522406207483
F-1.2127564589129847
F-2.157525364552633
F-1.352915112172262
F1.5709675550460815
F8.388957940042019e-05
tp87
sg9
(lp88
F0.0
aF0.0
aF-0.14195556640625
aF0.0
aF0.0
aF0.0
asg11
I01
sg12
g13
sg14
I00
sg15
g16
sa(dp89
g2
F0.0
sg3
(lp90
F0.16400309048583928
aF0.4573860468373789
aF0.46416345634442824
aF3.1311790347114017
aF0.00015868050161313625
aF-0.000217426544791857
asg5
I0
sg6
F0.0
sg7
(F-1.5709641615497034
F-1.218508545552389
F-2.177707020436422
F-1.3265870253192347
F1.570955514907837
F4.793690095539205e-05
tp91
sg9
(lp92
F0.0
aF0.0
aF-0.143524169921875
aF0.0
aF0.0
aF0.0
asg11
I01
sg12
g13
sg14
I00
sg15
g16
sa(dp93
g2
F0.0
sg3
(lp94
F0.16400303096460636
aF0.45703142341706277
aF0.44906087246951487
aF3.130786117089048
aF0.00015840199323692895
aF-0.00024145593808539722
asg5
I0
sg6
F0.0
sg7
(F-1.5709641615497034
F-1.2259381453143519
F-2.2003911177264612
F-1.296866242085592
F1.570955514907837
F7.190534961409867e-05
tp95
sg9
(lp96
F0.0
aF0.0
aF-0.143524169921875
aF0.0
aF0.0
aF0.0
asg11
I01
sg12
g13
sg14
I00
sg15
g16
sa(dp97
g2
F0.0
sg3
(lp98
F0.16401626248414317
aF0.45654840561542226
aF0.43412672069378155
aF3.1306330509023717
aF0.00013416841502164045
aF-0.0002895032926248664
asg5
I0
sg6
F0.0
sg7
(F-1.5709884802447718
F-1.2340148130999964
F-2.222619358693258
F-1.2667143980609339
F1.5709315538406372
F9.58738019107841e-05
tp99
sg9
(lp100
F0.0
aF0.0
aF-0.143524169921875
aF0.0
aF0.0
aF0.0
asg11
I01
sg12
g13
sg14
I00
sg15
g16
sa(dp101
g2
F0.0
sg3
(lp102
F0.1640074416065855
aF0.45622261252898066
aF0.42076872847602287
aF3.1312205087362144
aF0.00017010055025136453
aF-0.0002898605088971772
asg5
I0
sg6
F0.0
sg7
(F-1.5709765593158167
F-1.2422469297992151
F-2.242213551198141
F-1.238300625477926
F1.5709675550460815
F0.000107858024421148
tp103
sg9
(lp104
F0.0
aF0.0
aF-0.143524169921875
aF0.0
aF0.0
aF0.0
asg11
I01
sg12
g13
sg14
I00
sg15
g16
sa(dp105
g2
F0.0
sg3
(lp106
F0.1640106977789279
aF0.4558723108771159
aF0.4058300641133373
aF3.131032170050745
aF0.0001347134854919605
aF-0.00022959457932202398
asg5
I0
sg6
F0.0
sg7
(F-1.5709765593158167
F-1.2526128927813929
F-2.263447109852926
F-1.2068894545184534
F1.5709315538406372
F4.793690095539205e-05
tp107
sg9
(lp108
F0.0
aF0.0
aF-0.143524169921875
aF0.0
aF0.0
aF0.0
asg11
I01
sg12
g13
sg14
I00
sg15
g16
sa(dp109
g2
F0.0
sg3
(lp110
F0.16399079363867342
aF0.4554332501456878
aF0.39197827539655855
aF3.130876717306373
aF0.00017057652924374852
aF-0.0002057452131139682
asg5
I0
sg6
F0.0
sg7
(F-1.5709403196917933
F-1.2630022207843226
F-2.2828848997699183
F-1.1772177855121058
F1.5709675550460815
F5.992112710373476e-05
tp111
sg9
(lp112
F0.0
aF0.0
aF-0.143524169921875
aF0.0
aF0.0
aF0.0
asg11
I01
sg12
g13
sg14
I00
sg15
g16
sa(dp113
g2
F0.0
sg3
(lp114
F0.16401265762420714
aF0.4550624205792467
aF0.3774843957968369
aF3.131370720608519
aF0.00017060701427667186
aF-0.0002538214932939321
asg5
I0
sg6
F0.0
sg7
(F-1.5709884802447718
F-1.2751172224627894
F-2.3028371969806116
F-1.1446564833270472
F1.5709675550460815
F5.992112710373476e-05
tp115
sg9
(lp116
F0.0
aF0.0
aF-0.143524169921875
aF0.0
aF0.0
aF0.0
asg11
I01
sg12
g13
sg14
I00
sg15
g16
sa(dp117
g2
F0.0
sg3
(lp118
F0.1640126830504471
aF0.45462986037429387
aF0.3624020654844372
aF3.130834045390211
aF0.00011074402248189304
aF-0.00022936348576299648
asg5
I0
sg6
F0.0
sg7
(F-1.5709765593158167
F-1.288934055958883
F-2.32289702097048
F-1.1113165060626429
F1.5709075927734375
F4.793690095539205e-05
tp119
sg9
(lp120
F0.0
aF0.0
aF-0.143524169921875
aF0.0
aF0.0
aF0.0
asg11
I01
sg12
g13
sg14
I00
sg15
g16
sa(dp121
g2
F0.0
sg3
(lp122
F0.16399604099217616
aF0.4542651804239382
aF0.34884030245748243
aF3.131024292282865
aF0.0001702056871866421
aF-0.00025359163512182065
asg5
I0
sg6
F0.0
sg7
(F-1.5709522406207483
F-1.3024762312518519
F-2.3406463305102747
F-1.0798347632037562
F1.5709675550460815
F9.58738019107841e-05
tp123
sg9
(lp124
F0.0
aF0.0
aF-0.143524169921875
aF0.0
aF0.0
aF0.0
asg11
I01
sg12
g13
sg14
I00
sg15
g16
sa(dp125
g2
F0.0
sg3
(lp126
F0.16400361497518662
aF0.4539624792649456
aF0.33410186665145725
aF3.1311940539144647
aF0.00014663634513138957
aF-0.00022928378098481384
asg5
I0
sg6
F0.0
sg7
(F-1.5709641615497034
F-1.3186543623553675
F-2.359293047581808
F-1.044840161000387
F1.5709435939788818
F5.992112710373476e-05
tp127
sg9
(lp128
F0.0
aF0.0
aF-0.14509277343750002
aF0.0
aF0.0
aF0.0
asg11
I01
sg12
g13
sg14
I00
sg15
g16
sa(dp129
g2
F0.0
sg3
(lp130
F0.164006933230665
aF0.45340205998236416
aF0.3202353518941866
aF3.1307853989044454
aF0.00017031186158497709
aF-0.0002659674658806316
asg5
I0
sg6
F0.0
sg7
(F-1.5709765593158167
F-1.3345921675311487
F-2.3765750567065638
F-1.01202899614443
F1.5709675550460815
F8.388957940042019e-05
tp131
sg9
(lp132
F0.0
aF0.0
aF-0.14509277343750002
aF0.0
aF0.0
aF0.0
asg11
I01
sg12
g13
sg14
I00
sg15
g16
sa(dp133
g2
F0.0
sg3
(lp134
F0.16399918766899282
aF0.4531579955660715
aF0.30545627620950644
aF3.1310264447791503
aF0.00013445995215545596
aF-0.00022924376600110902
asg5
I0
sg6
F0.0
sg7
(F-1.5709522406207483
F-1.3536103407489222
F-2.394143883381979
F-0.9752009550677698
F1.5709315538406372
F7.190534961409867e-05
tp135
sg9
(lp136
F0.0
aF0.0
aF-0.14509277343750002
aF0.0
aF0.0
aF0.0
asg11
I01
sg12
g13
sg14
I00
sg15
g16
sa(dp137
g2
F0.0
sg3
(lp138
F0.16400116903959666
aF0.45255206548561056
aF0.2914973927687399
aF3.1308316480304135
aF0.00017005790737536236
aF-0.00027752887983361225
asg5
I0
sg6
F0.0
sg7
(F-1.5709641615497034
F-1.3721984068499964
F-2.410611693059103
F-0.9403398672686976
F1.5709675550460815
F0.000107858024421148
tp139
sg9
(lp140
F0.0
aF0.0
aF-0.14509277343750002
aF0.0
aF0.0
aF0.0
asg11
I01
sg12
g13
sg14
I00
sg15
g16
sa(dp141
g2
F0.0
sg3
(lp142
F0.16400333911134024
aF0.45231888587153257
aF0.27681400969585307
aF3.131117994875724
aF0.00014638061444456428
aF-0.0002532620709713509
asg5
I0
sg6
F0.0
sg7
(F-1.5709641615497034
F-1.3939855734454554
F-2.426887337361471
F-0.9019907156573694
F1.5709435939788818
F8.388957940042019e-05
tp143
sg9
(lp144
F0.0
aF0.0
aF-0.03529052734375
aF0.0
aF0.0
aF0.0
asg11
I01
sg12
g13
sg14
I00
sg15
g16
sa(dp145
g2
F0.0
sg3
(lp146
F0.16399458601336617
aF0.4519828129283541
aF0.26832704176580424
aF3.131065780319176
aF0.00018238231583666775
aF-0.00022974293725281264
asg5
I0
sg6
F0.0
sg7
(F-1.5709522406207483
F-1.4068806807147425
F-2.4362459818469446
F-0.8797891775714319
F1.5709794759750366
F7.190534961409867e-05
tp147
sg9
(lp148
F0.0
aF0.0
aF0.0
aF0.0
aF0.0
aF0.0
asg11
I01
sg12
g13
sg14
I00
sg15
g16
sa(dp149
g2
F0.0
sg3
(lp150
F0.16401427429804527
aF0.45197887353947336
aF0.2684553555054259
aF3.131173548160016
aF0.00014651022254172092
aF-0.0002655890548222844
asg5
I0
sg6
F0.0
sg7
(F-1.5709884802447718
F-1.4066765944110315
F-2.4361382166491907
F-0.8799932638751429
F1.5709435939788818
F7.190534961409867e-05
tp151
sg9
(lp152
F0.0
aF0.0
aF0.0
aF0.0
aF0.0
aF0.0
asg11
I01
sg12
g13
sg14
I00
sg15
g16
sa.