(lp0
(dp1
S'start_gripper_pos'
p2
F0.0
sS'curr_pos'
p3
(lp4
F0.16400454301649353
aF0.4594916532352469
aF0.596124323230296
aF3.131018812746117
aF0.00014637214086150505
aF-0.00025327658887182807
asS'gripper_ac'
p5
I0
sS'curr_gripper_pos'
p6
F0.0
sS'curr_q'
p7
(F-1.5709641615497034
F-1.189976994191305
F-1.961949650441305
F-1.571036163960592
F1.5709435939788818
F8.388957940042019e-05
tp8
sS'xdot_h'
p9
(lp10
F0.0
aF0.0
aF0.0
aF0.0
aF0.0
aF0.0
asS'trans_mode'
p11
I01
sS'start_pos'
p12
(lp13
F0.16402230461574094
aF0.45948473644131915
aF0.5961365994957474
aF3.131006899296253
aF0.00013483909766653633
aF-0.0002414562869422367
asS'slow_mode'
p14
I00
sS'start_q'
p15
(F-1.5709403196917933
F-1.189976994191305
F-1.96193772951235
F-1.5710600058185022
F1.5709794759750366
F9.58738019107841e-05
tp16
sa(dp17
g2
F0.0
sg3
(lp18
F0.16402751011032254
aF0.459472948225446
aF0.5961256992104329
aF3.130994964453851
aF0.00019416254422094557
aF-0.0003253761273270689
asg5
I0
sg6
F0.0
sg7
(F-1.5710237661944788
F-1.18996507326235
F-1.961949650441305
F-1.5710719267474573
F1.5709915161132812
F9.58738019107841e-05
tp19
sg9
(lp20
F0.0
aF0.0
aF0.0
aF0.0
aF0.0
aF0.0
asg11
I01
sg12
g13
sg14
I00
sg15
g16
sa(dp21
g2
F0.0
sg3
(lp22
F0.1640034449060527
aF0.4594976067685624
aF0.5961322703180993
aF3.1310064177574777
aF0.00015854507349650552
aF-0.00022943748943962542
asg5
I0
sg6
F0.0
sg7
(F-1.5709641615497034
F-1.1899893919574183
F-1.9619258085833948
F-1.5710600058185022
F1.570955514907837
F5.992112710373476e-05
tp23
sg9
(lp24
F0.0
aF0.0
aF0.0
aF0.0
aF0.0
aF0.0
asg11
I01
sg12
g13
sg14
I00
sg15
g16
sa(dp25
g2
F0.0
sg3
(lp26
F0.16400344470731448
aF0.45949642264816865
aF0.5961240808020006
aF3.1309944930315905
aF0.00015829032241842895
aF-0.00025340648596752796
asg5
I0
sg6
F0.0
sg7
(F-1.5709641615497034
F-1.1899893919574183
F-1.96193772951235
F-1.5710600058185022
F1.570955514907837
F8.388957940042019e-05
tp27
sg9
(lp28
F0.0
aF0.0
aF0.0
aF0.0
aF0.0
aF0.0
asg11
I01
sg12
g13
sg14
I00
sg15
g16
sa(dp29
g2
F0.0
sg3
(lp30
F0.16400565354382513
aF0.4594941949110675
aF0.5961213454519301
aF3.130970654831286
aF0.00013445586087268416
aF-0.00024117219634431806
asg5
I0
sg6
F0.0
sg7
(F-1.5709641615497034
F-1.1899893919574183
F-1.96193772951235
F-1.5710838476764124
F1.5709315538406372
F7.190534961409867e-05
tp31
sg9
(lp32
F0.0
aF0.0
aF0.0
aF0.0
aF0.0
aF0.0
asg11
I01
sg12
g13
sg14
I00
sg15
g16
sa(dp33
g2
F0.0
sg3
(lp34
F0.1640200963643227
aF0.4594894357134046
aF0.5961295352666712
aF3.1309825702064242
aF0.00015816215110957453
aF-0.0003016315450618058
asg5
I0
sg6
F0.0
sg7
(F-1.5710004011737269
F-1.1899893919574183
F-1.9619258085833948
F-1.5710838476764124
F1.570955514907837
F9.58738019107841e-05
tp35
sg9
(lp36
F0.0
aF0.0
aF0.0
aF0.0
aF0.0
aF0.0
asg11
I01
sg12
g13
sg14
I00
sg15
g16
sa(dp37
g2
F0.0
sg3
(lp38
F0.16401350915255497
aF0.4594936888802634
aF0.5961390924860732
aF3.1310064170150445
aF0.000170584537066351
aF-0.00025388364187370685
asg5
I0
sg6
F0.0
sg7
(F-1.5709884802447718
F-1.1899893919574183
F-1.9619138876544397
F-1.5710719267474573
F1.5709675550460815
F5.992112710373476e-05
tp39
sg9
(lp40
F0.0
aF0.0
aF0.0
aF0.0
aF0.0
aF0.0
asg11
I01
sg12
g13
sg14
I00
sg15
g16
sa(dp41
g2
F0.0
sg3
(lp42
F0.16400914257193994
aF0.45950075920307915
aF0.5960979581141985
aF3.13106649734083
aF0.00015842262893617237
aF-0.00025380928857241257
asg5
I0
sg6
F0.0
sg7
(F-1.5709765593158167
F-1.1899893919574183
F-1.9619978109942835
F-1.57092792192568
F1.570955514907837
F7.190534961409867e-05
tp43
sg9
(lp44
F0.0
aF0.0
aF-0.049407958984375
aF0.0
aF0.0
aF0.0
asg11
I01
sg12
g13
sg14
I00
sg15
g16
sa(dp45
g2
F0.0
sg3
(lp46
F0.16400564517096625
aF0.4594443106453195
aF0.5934625831107551
aF3.130870042190266
aF0.00013444848151850975
aF-0.00024118572391168758
asg5
I0
sg6
F0.0
sg7
(F-1.5709641615497034
F-1.189976994191305
F-1.9665711561786097
F-1.5665634314166468
F1.5709315538406372
F7.190534961409867e-05
tp47
sg9
(lp48
F0.0
aF0.0
aF-0.1074462890625
aF0.0
aF0.0
aF0.0
asg11
I01
sg12
g13
sg14
I00
sg15
g16
sa(dp49
g2
F0.0
sg3
(lp50
F0.1640307989956118
aF0.45933918346464647
aF0.583893511232943
aF3.1310960593471884
aF0.0001582990128073627
aF-0.00031299505335763525
asg5
I0
sg6
F0.0
sg7
(F-1.5710237661944788
F-1.1901686827289026
F-1.9832261244403284
F-1.549490753804342
F1.570955514907837
F8.388957940042019e-05
tp51
sg9
(lp52
F0.0
aF0.0
aF-0.112152099609375
aF0.0
aF0.0
aF0.0
asg11
I01
sg12
g13
sg14
I00
sg15
g16
sa(dp53
g2
F0.0
sg3
(lp54
F0.16400117902943148
aF0.45916000530138495
aF0.5719161928924048
aF3.130536733858189
aF0.00018260821886048424
aF-0.00021779336107847558
asg5
I0
sg6
F0.0
sg7
(F-1.5709641615497034
F-1.1908276716815394
F-2.0036643187152308
F-1.5289529005633753
F1.5709794759750366
F4.793690095539205e-05
tp55
sg9
(lp56
F0.0
aF0.0
aF-0.115289306640625
aF0.0
aF0.0
aF0.0
asg11
I01
sg12
g13
sg14
I00
sg15
g16
sa(dp57
g2
F0.0
sg3
(lp58
F0.1640033737685124
aF0.4590737947999775
aF0.5612136187146092
aF3.131065545565726
aF0.00015854871565401123
aF-0.00022942811492140852
asg5
I0
sg6
F0.0
sg7
(F-1.5709641615497034
F-1.191798512135641
F-2.0219228903399866
F-1.5091946760760706
F1.570955514907837
F5.992112710373476e-05
tp59
sg9
(lp60
F0.0
aF0.0
aF-0.13724975585937502
aF0.0
aF0.0
aF0.0
asg11
I01
sg12
g13
sg14
I00
sg15
g16
sa(dp61
g2
F0.0
sg3
(lp62
F0.16400443671203244
aF0.45885832500950047
aF0.5475013224941784
aF3.130954916566467
aF0.00014636668115596373
aF-0.00025328594130487363
asg5
I0
sg6
F0.0
sg7
(F-1.5709641615497034
F-1.193536106740133
F-2.0448978582965296
F-1.4845927397357386
F1.5709435939788818
F8.388957940042019e-05
tp63
sg9
(lp64
F0.0
aF0.0
aF-0.138818359375
aF0.0
aF0.0
aF0.0
asg11
I01
sg12
g13
sg14
I00
sg15
g16
sa(dp65
g2
F0.0
sg3
(lp66
F0.16401332299803606
aF0.4585249747716105
aF0.5339320753833594
aF3.1303407523337805
aF0.00017054340766744816
aF-0.0002539971801531193
asg5
I0
sg6
F0.0
sg7
(F-1.5709884802447718
F-1.1957529226886194
F-2.0672858397113245
F-1.460602108632223
F1.5709675550460815
F5.992112710373476e-05
tp67
sg9
(lp68
F0.0
aF0.0
aF-0.138818359375
aF0.0
aF0.0
aF0.0
asg11
I01
sg12
g13
sg14
I00
sg15
g16
sa(dp69
g2
F0.0
sg3
(lp70
F0.16400432984091073
aF0.45822159507522453
aF0.5196693873582368
aF3.1307002855221895
aF0.00014634491788649424
aF-0.0002533232079827844
asg5
I0
sg6
F0.0
sg7
(F-1.5709641615497034
F-1.198712174092428
F-2.090714756642477
F-1.4338544050799769
F1.5709435939788818
F8.388957940042019e-05
tp71
sg9
(lp72
F0.0
aF0.0
aF-0.138818359375
aF0.0
aF0.0
aF0.0
asg11
I01
sg12
g13
sg14
I00
sg15
g16
sa(dp73
g2
F0.0
sg3
(lp74
F0.1639999274655755
aF0.4579026377735243
aF0.5066171950825071
aF3.131106071757714
aF0.00013408877745497513
aF-0.0002651837568173115
asg5
I0
sg6
F0.0
sg7
(F-1.5709522406207483
F-1.201996151600973
F-2.111903492604391
F-1.408975903187887
F1.5709315538406372
F0.000107858024421148
tp75
sg9
(lp76
F0.0
aF0.0
aF-0.138818359375
aF0.0
aF0.0
aF0.0
asg11
I01
sg12
g13
sg14
I00
sg15
g16
sa(dp77
g2
F0.0
sg3
(lp78
F0.16400878828121684
aF0.4575351351575224
aF0.49203941059368544
aF3.1309267878518474
aF0.0001586679871917877
aF-0.00022986433593328852
asg5
I0
sg6
F0.0
sg7
(F-1.5709765593158167
F-1.2065137068377894
F-2.1350320021258753
F-1.3815091292010706
F1.570955514907837
F4.793690095539205e-05
tp79
sg9
(lp80
F0.0
aF0.0
aF-0.121563720703125
aF0.0
aF0.0
aF0.0
asg11
I01
sg12
g13
sg14
I00
sg15
g16
sa(dp81
g2
F0.0
sg3
(lp82
F0.16401528335167065
aF0.457229940081242
aF0.4784104448869746
aF3.1308538288428727
aF0.0001464867362726376
aF-0.00026563589315073893
asg5
I0
sg6
F0.0
sg7
(F-1.5709884802447718
F-1.2115581671344202
F-2.15629226366152
F-1.3552773634540003
F1.5709435939788818
F7.190534961409867e-05
tp83
sg9
(lp84
F0.0
aF0.0
aF-0.09332885742187501
aF0.0
aF0.0
aF0.0
asg11
I01
sg12
g13
sg14
I00
sg15
g16
sa(dp85
g2
F0.0
sg3
(lp86
F0.16400634928283053
aF0.45709097057173154
aF0.46896843515139297
aF3.131178076935353
aF0.00012230117076332832
aF-0.00026498730890062627
asg5
I0
sg6
F0.0
sg7
(F-1.5709641615497034
F-1.2155845800982874
F-2.1708481947528284
F-1.3363707701312464
F1.5709196329116821
F9.58738019107841e-05
tp87
sg9
(lp88
F0.0
aF0.0
aF-0.090191650390625
aF0.0
aF0.0
aF0.0
asg11
I01
sg12
g13
sg14
I00
sg15
g16
sa(dp89
g2
F0.0
sg3
(lp90
F0.16400867454957074
aF0.45690414523473283
aF0.45917535352499544
aF3.1306645217151896
aF0.00015826207758498157
aF-0.00026585647861945627
asg5
I0
sg6
F0.0
sg7
(F-1.5709765593158167
F-1.2201979796039026
F-2.1855719725238245
F-1.3175471464740198
F1.570955514907837
F8.388957940042019e-05
tp91
sg9
(lp92
F0.0
aF0.0
aF-0.112152099609375
aF0.0
aF0.0
aF0.0
asg11
I01
sg12
g13
sg14
I00
sg15
g16
sa(dp93
g2
F0.0
sg3
(lp94
F0.16400976346087842
aF0.45684757169715223
aF0.449641143571935
aF3.1309043753382895
aF0.00014661853851294818
aF-0.000241724021867401
asg5
I0
sg6
F0.0
sg7
(F-1.5709765593158167
F-1.2252429167376917
F-2.1997926870929163
F-1.2980416456805628
F1.5709435939788818
F5.992112710373476e-05
tp95
sg9
(lp96
F0.0
aF0.0
aF-0.138818359375
aF0.0
aF0.0
aF0.0
asg11
I01
sg12
g13
sg14
I00
sg15
g16
sa(dp97
g2
F0.0
sg3
(lp98
F0.16403558779712452
aF0.456467469881869
aF0.4359769735128685
aF3.1306764426442504
aF0.00015826309829085417
aF-0.0003249823996020128
asg5
I0
sg6
F0.0
sg7
(F-1.5710356871234339
F-1.232696835194723
F-2.220057789479391
F-1.270550552998678
F1.570955514907837
F8.388957940042019e-05
tp99
sg9
(lp100
F0.0
aF0.0
aF-0.140386962890625
aF0.0
aF0.0
aF0.0
asg11
I01
sg12
g13
sg14
I00
sg15
g16
sa(dp101
g2
F0.0
sg3
(lp102
F0.16400965098767248
aF0.4562235571677029
aF0.422858832045073
aF3.1312987161599604
aF0.00014639605058827044
aF-0.00026563338163427153
asg5
I0
sg6
F0.0
sg7
(F-1.5709765593158167
F-1.2407849470721644
F-2.2392810026751917
F-1.2426169554339808
F1.5709435939788818
F8.388957940042019e-05
tp103
sg9
(lp104
F0.0
aF0.0
aF-0.140386962890625
aF0.0
aF0.0
aF0.0
asg11
I01
sg12
g13
sg14
I00
sg15
g16
sa(dp105
g2
F0.0
sg3
(lp106
F0.16402565770475436
aF0.4557934009813434
aF0.4081499132899955
aF3.1310011715259405
aF0.0001464975617827814
aF-0.00028897932938666456
asg5
I0
sg6
F0.0
sg7
(F-1.5710118452655237
F-1.250683609639303
F-2.2603238264666956
F-1.211973015462057
F1.5709435939788818
F7.190534961409867e-05
tp107
sg9
(lp108
F0.0
aF0.0
aF-0.140386962890625
aF0.0
aF0.0
aF0.0
asg11
I01
sg12
g13
sg14
I00
sg15
g16
sa(dp109
g2
F0.0
sg3
(lp110
F0.16400730730117055
aF0.45547746358471014
aF0.3947282576340154
aF3.130893402521948
aF0.00017032112027574788
aF-0.0002659490711057138
asg5
I0
sg6
F0.0
sg7
(F-1.5709765593158167
F-1.2607854048358362
F-2.279102627431051
F-1.1832001844989222
F1.5709675550460815
F8.388957940042019e-05
tp111
sg9
(lp112
F0.0
aF0.0
aF-0.140386962890625
aF0.0
aF0.0
aF0.0
asg11
I01
sg12
g13
sg14
I00
sg15
g16
sa(dp113
g2
F0.0
sg3
(lp114
F0.1640148659484391
aF0.455057805538451
aF0.3805043638274895
aF3.131421738393899
aF0.00014628466743597508
aF-0.0002895199025176171
asg5
I0
sg6
F0.0
sg7
(F-1.5709884802447718
F-1.27232534090151
F-2.298864189778463
F-1.1513703505145472
F1.5709435939788818
F9.58738019107841e-05
tp115
sg9
(lp116
F0.0
aF0.0
aF-0.140386962890625
aF0.0
aF0.0
aF0.0
asg11
I01
sg12
g13
sg14
I00
sg15
g16
sa(dp117
g2
F0.0
sg3
(lp118
F0.1640136796569542
aF0.45460411181535215
aF0.36581540422680947
aF3.1310045066120016
aF0.00015829117928989724
aF-0.00027772359598078573
asg5
I0
sg6
F0.0
sg7
(F-1.5709884802447718
F-1.2854474226581019
F-2.3185766378985804
F-1.118953053151266
F1.570955514907837
F8.388957940042019e-05
tp119
sg9
(lp120
F0.0
aF0.0
aF-0.14195556640625
aF0.0
aF0.0
aF0.0
asg11
I01
sg12
g13
sg14
I00
sg15
g16
sa(dp121
g2
F0.0
sg3
(lp122
F0.16400257191474601
aF0.4542964114683846
aF0.3525397093065692
aF3.131255567076163
aF0.0001586842965253526
aF-0.00021741440046835236
asg5
I0
sg6
F0.0
sg7
(F-1.5709641615497034
F-1.2985213438617151
F-2.3360143343554896
F-1.0881903807269495
F1.570955514907837
F4.793690095539205e-05
tp123
sg9
(lp124
F0.0
aF0.0
aF-0.14195556640625
aF0.0
aF0.0
aF0.0
asg11
I01
sg12
g13
sg14
I00
sg15
g16
sa(dp125
g2
F0.0
sg3
(lp126
F0.1640024983556444
aF0.4538581465034051
aF0.3378737281945882
aF3.1313173098940785
aF0.00015819479850300684
aF-0.0002653389724935007
asg5
I0
sg6
F0.0
sg7
(F-1.5709641615497034
F-1.3140161673175257
F-2.3548644224749964
F-1.0537837187396448
F1.570955514907837
F9.58738019107841e-05
tp127
sg9
(lp128
F0.0
aF0.0
aF-0.14195556640625
aF0.0
aF0.0
aF0.0
asg11
I01
sg12
g13
sg14
I00
sg15
g16
sa(dp129
g2
F0.0
sg3
(lp130
F0.16400131566518353
aF0.4534256561433068
aF0.324221670726764
aF3.13094323200552
aF0.0001703253912756827
aF-0.00025354281788281637
asg5
I0
sg6
F0.0
sg7
(F-1.5709641615497034
F-1.3296073118792933
F-2.371859614049093
F-1.021571461354391
F1.5709675550460815
F8.388957940042019e-05
tp131
sg9
(lp132
F0.0
aF0.0
aF-0.14195556640625
aF0.0
aF0.0
aF0.0
asg11
I01
sg12
g13
sg14
I00
sg15
g16
sa(dp133
g2
F0.0
sg3
(lp134
F0.1640134019376291
aF0.4531588719330012
aF0.30978158618642215
aF3.131398850945334
aF0.0001583249110832701
aF-0.0002776611681805786
asg5
I0
sg6
F0.0
sg7
(F-1.5709884802447718
F-1.3477509657489222
F-2.389272991810934
F-0.9855588118182581
F1.570955514907837
F8.388957940042019e-05
tp135
sg9
(lp136
F0.0
aF0.0
aF-0.14195556640625
aF0.0
aF0.0
aF0.0
asg11
I01
sg12
g13
sg14
I00
sg15
g16
sa(dp137
g2
F0.0
sg3
(lp138
F0.16400229561001933
aF0.452650190084012
aF0.29616821791421266
aF3.1312639079262694
aF0.00015843715068180448
aF-0.0002413802467623517
asg5
I0
sg6
F0.0
sg7
(F-1.5709641615497034
F-1.3656190077411097
F-2.40540582338442
F-0.9516928831683558
F1.570955514907837
F7.190534961409867e-05
tp139
sg9
(lp140
F0.0
aF0.0
aF-0.143524169921875
aF0.0
aF0.0
aF0.0
asg11
I01
sg12
g13
sg14
I00
sg15
g16
sa(dp141
g2
F0.0
sg3
(lp142
F0.16402490308273884
aF0.45229209543297294
aF0.28144510581014553
aF3.131023819536314
aF0.0001463725686490051
aF-0.0003009595718374993
asg5
I0
sg6
F0.0
sg7
(F-1.5710118452655237
F-1.3867705504046839
F-2.42195707956423
F-0.9142301718341272
F1.5709435939788818
F8.388957940042019e-05
tp143
sg9
(lp144
F0.0
aF0.0
aF-0.1074462890625
aF0.0
aF0.0
aF0.0
asg11
I01
sg12
g13
sg14
I00
sg15
g16
sa(dp145
g2
F0.0
sg3
(lp146
F0.16401645105047777
aF0.4518099552045105
aF0.2697102667791249
aF3.131015475463957
aF0.00012228537199841498
aF-0.0002893258890014981
asg5
I0
sg6
F0.0
sg7
(F-1.5709884802447718
F-1.4043152968036097
F-2.435049358998434
F-0.8836014906512659
F1.5709196329116821
F9.58738019107841e-05
tp147
sg9
(lp148
F0.0
aF0.0
aF0.0
aF0.0
aF0.0
aF0.0
asg11
I01
sg12
g13
sg14
I00
sg15
g16
sa(dp149
g2
F0.0
sg3
(lp150
F0.16401743660346707
aF0.45189616093384083
aF0.2682577554028248
aF3.131449871491603
aF0.00017036879250259846
aF-0.00028969613744564827
asg5
I0
sg6
F0.0
sg7
(F-1.5710004011737269
F-1.406844441090719
F-2.436533276234762
F-0.8791540304767054
F1.5709675550460815
F8.388957940042019e-05
tp151
sg9
(lp152
F0.0
aF0.0
aF0.0
aF0.0
aF0.0
aF0.0
asg11
I01
sg12
g13
sg14
I00
sg15
g16
sa(dp153
g2
F0.0
sg3
(lp154
F0.16400664322517852
aF0.45179305605269493
aF0.26831405623783344
aF3.13119786305076
aF0.0001703472096872386
aF-0.00026589721113806495
asg5
I0
sg6
F0.0
sg7
(F-1.5709765593158167
F-1.4065449873553675
F-2.4365692774402063
F-0.879669491444723
F1.5709675550460815
F8.388957940042019e-05
tp155
sg9
(lp156
F0.0
aF0.0
aF0.0
aF0.0
aF0.0
aF0.0
asg11
I01
sg12
g13
sg14
I00
sg15
g16
sa.