(lp0
(dp1
S'start_gripper_pos'
p2
F0.0
sS'curr_pos'
p3
(lp4
F0.16403844965228362
aF0.4591939529099918
aF0.5960853720292905
aF3.1309353785762646
aF0.0001352195739364061
aF-0.00024080124753731667
asS'gripper_ac'
p5
I0
sS'curr_gripper_pos'
p6
F0.0
sS'curr_q'
p7
(F-1.5710356871234339
F-1.1894858519183558
F-1.9622967878924769
F-1.571263615285055
F1.5709315538406372
F0.0
tp8
sS'xdot_h'
p9
(lp10
F0.057257080078125
aF-0.189019775390625
aF0.0
aF0.0
aF0.0
aF0.0
asS'trans_mode'
p11
I01
sS'start_pos'
p12
(lp13
F0.16403525187758766
aF0.45949069013774474
aF0.5961966755962229
aF3.131030263881778
aF0.00011075366075371871
aF-0.00027654863349468075
asS'slow_mode'
p14
I00
sS'start_q'
p15
(F-1.5710237661944788
F-1.1899893919574183
F-1.961818043385641
F-1.571143929158346
F1.5709075927734375
F4.793690095539205e-05
tp16
sa(dp17
g2
F0.0
sg3
(lp18
F0.16617629877432416
aF0.4498422895128419
aF0.5957796357826299
aF3.130665561635446
aF0.00023659724505049702
aF-0.00011212868111364328
asg5
I0
sg6
F0.0
sg7
(F-1.5757983366595667
F-1.1743634382831019
F-1.9717677275287073
F-1.5771859327899378
F1.5709794759750366
F-0.00489217439760381
tp19
sg9
(lp20
F0.0682373046875
aF-0.2
aF0.0
aF0.0
aF0.0
aF0.0
asg11
I01
sg12
g13
sg14
I00
sg15
g16
sa(dp21
g2
F0.0
sg3
(lp22
F0.17250791203486296
aF0.4287682859789722
aF0.5957466979404369
aF3.1313219960320073
aF0.00024150665942850708
aF-0.0002347786111730985
asg5
I0
sg6
F0.0
sg7
(F-1.5907066504107874
F-1.1411951223956507
F-1.9908888975726526
F-1.5905783812152308
F1.5708357095718384
F-0.019676987324849904
tp23
sg9
(lp24
F0.129412841796875
aF-0.18274536132812502
aF-0.18744506835937502
aF0.0
aF0.0
aF0.0
asg11
I01
sg12
g13
sg14
I00
sg15
g16
sa(dp25
g2
F0.0
sg3
(lp26
F0.18188589019600357
aF0.4093354566061048
aF0.5854293881905517
aF3.1311209028115377
aF0.00022591213186837108
aF-0.0003973764612643855
asg5
I0
sg6
F0.0
sg7
(F-1.6141803900348108
F-1.113551441823141
F-2.0238383452044886
F-1.585470978413717
F1.570572018623352
F-0.042986694966451466
tp27
sg9
(lp28
F0.0
aF0.038427734375
aF-0.19999389648437502
aF0.0
aF0.0
aF0.0
asg11
I01
sg12
g13
sg14
I00
sg15
g16
sa(dp29
g2
F0.0
sg3
(lp30
F0.18744463426474434
aF0.4054496143933238
aF0.5660244217695702
aF3.1313467828545494
aF0.0002395188932980524
aF-0.00024663086813391736
asg5
I0
sg6
F0.0
sg7
(F-1.6279633680926722
F-1.111490551625387
F-2.0588811079608362
F-1.5522602240191858
F1.5704525709152222
F-0.05691987672914678
tp31
sg9
(lp32
F-0.06666259765625
aF0.19999389648437502
aF-0.19999389648437502
aF0.0
aF0.0
aF0.0
asg11
I01
sg12
g13
sg14
I00
sg15
g16
sa(dp33
g2
F0.0
sg3
(lp34
F0.18159092940375468
aF0.42291760402928996
aF0.5448728585994398
aF3.1311900296613975
aF0.00013599985773062083
aF0.00019807873196840833
asg5
I0
sg6
F0.0
sg7
(F-1.6121109167682093
F-1.1406915823565882
F-2.0801194349872034
F-1.501977268849508
F1.5705004930496216
F-0.0415118376361292
tp35
sg9
(lp36
F-0.06666259765625
aF0.19999389648437502
aF-0.19999389648437502
aF0.0
aF0.0
aF0.0
asg11
I01
sg12
g13
sg14
I00
sg15
g16
sa(dp37
g2
F0.0
sg3
(lp38
F0.1745085866344879
aF0.44123448203948534
aF0.5247599677109835
aF3.130552729514069
aF0.00012133825542438562
aF-0.00010496176726553999
asg5
I0
sg6
F0.0
sg7
(F-1.594607178364889
F-1.1731527487384241
F-2.096903626118795
F-1.4533723036395472
F1.5706559419631958
F-0.023705784474508107
tp39
sg9
(lp40
F-0.10117187500000001
aF0.18744506835937502
aF-0.19999389648437502
aF0.0
aF0.0
aF0.0
asg11
I01
sg12
g13
sg14
I00
sg15
g16
sa(dp41
g2
F0.0
sg3
(lp42
F0.1649634976119148
aF0.4602218057656428
aF0.5037826002579937
aF3.1308234078502117
aF5.097110708586625e-05
aF-3.2532498889770884e-05
asg5
I0
sg6
F0.0
sg7
(F-1.5730226675616663
F-1.207975212727682
F-2.113220516835348
F-1.4019625822650355
F1.5708236694335938
F-0.002194229756490529
tp43
sg9
(lp44
F0.0
aF0.0
aF-0.19999389648437502
aF0.0
aF0.0
aF0.0
asg11
I01
sg12
g13
sg14
I00
sg15
g16
sa(dp45
g2
F0.0
sg3
(lp46
F0.16065061777532982
aF0.46479734929837363
aF0.4843923524091873
aF3.130677107910356
aF6.84674422423231e-05
aF-0.0001611678686926582
asg5
I0
sg6
F0.0
sg7
(F-1.563737694417135
F-1.2211568991290491
F-2.139592949544088
F-1.36255389848818
F1.5709435939788818
F0.0072186230681836605
tp47
sg9
(lp48
F0.137255859375
aF-0.17960815429687502
aF-0.19999389648437502
aF0.0
aF0.0
aF0.0
asg11
I01
sg12
g13
sg14
I00
sg15
g16
sa(dp49
g2
F0.0
sg3
(lp50
F0.1708611690476401
aF0.4504198870910683
aF0.4640445348057588
aF3.131376262835342
aF0.0001914186866256153
aF-0.0004486149915427114
asg5
I0
sg6
F0.0
sg7
(F-1.5861242453204554
F-1.2100003401385706
F-2.1831901709186
F-1.329416577016012
F1.5708357095718384
F-0.01488048235048467
tp51
sg9
(lp52
F0.04627685546875
aF-0.060394287109375
aF-0.19999389648437502
aF0.0
aF0.0
aF0.0
asg11
I01
sg12
g13
sg14
I00
sg15
g16
sa(dp53
g2
F0.0
sg3
(lp54
F0.1789976193658297
aF0.437957666397835
aF0.44501123279911015
aF3.1316048291015375
aF0.0002807625980132757
aF-0.0003827524831968438
asg5
I0
sg6
F0.0
sg7
(F-1.6049321333514612
F-1.202235523854391
F-2.222415272389547
F-1.297729794179098
F1.5707398653030396
F-0.03375417390932256
tp55
sg9
(lp56
F-0.12470092773437501
aF0.13724975585937502
aF-0.19999389648437502
aF0.0
aF0.0
aF0.0
asg11
I01
sg12
g13
sg14
I00
sg15
g16
sa(dp57
g2
F0.0
sg3
(lp58
F0.17342079000166902
aF0.4432538932860888
aF0.42418083830709163
aF3.1313199549126485
aF0.0002104994572443006
aF2.073445760663533e-05
asg5
I0
sg6
F0.0
sg7
(F-1.5920942465411585
F-1.2213004271136683
F-2.2489760557757776
F-1.2523873488055628
F1.570787787437439
F-0.02131969133485967
tp59
sg9
(lp60
F-0.138818359375
aF0.16705322265625
aF-0.19999389648437502
aF0.0
aF0.0
aF0.0
asg11
I01
sg12
g13
sg14
I00
sg15
g16
sa(dp61
g2
F0.0
sg3
(lp62
F0.15869219580539998
aF0.45919308049608015
aF0.4034829944485929
aF3.1317186766667793
aF8.353594565829683e-05
aF0.00010482188533069357
asg5
I0
sg6
F0.0
sg7
(F-1.5593822638141077
F-1.2572501341449183
F-2.2650273481952112
F-1.1999838987933558
F1.5709915161132812
F0.011307865381240845
tp63
sg9
(lp64
F-0.052545166015625006
aF0.0572509765625
aF-0.19999389648437502
aF0.0
aF0.0
aF0.0
asg11
I01
sg12
g13
sg14
I00
sg15
g16
sa(dp65
g2
F0.0
sg3
(lp66
F0.14863326965929513
aF0.4694066115619289
aF0.38384611391725015
aF3.1312624339489377
aF3.612758418042682e-05
aF-6.126196076606467e-05
asg5
I0
sg6
F0.0
sg7
(F-1.538083855305807
F-1.2875083128558558
F-2.282347027455465
F-1.1528571287738245
F1.5711709260940552
F0.03277161344885826
tp67
sg9
(lp68
F0.091766357421875
aF-0.14039306640625002
aF-0.19999389648437502
aF0.0
aF0.0
aF0.0
asg11
I01
sg12
g13
sg14
I00
sg15
g16
sa(dp69
g2
F0.0
sg3
(lp70
F0.15167695041905319
aF0.4637580528110209
aF0.36305081073953316
aF3.130771461871558
aF7.05170185244805e-05
aF-0.0005038621394201885
asg5
I0
sg6
F0.0
sg7
(F-1.5443056265460413
F-1.298054043446676
F-2.315488402043478
F-1.109661881123678
F1.5711588859558105
F0.02699222043156624
tp71
sg9
(lp72
F0.0
aF0.0
aF-0.19999389648437502
aF0.0
aF0.0
aF0.0
asg11
I01
sg12
g13
sg14
I00
sg15
g16
sa(dp73
g2
F0.0
sg3
(lp74
F0.1561256335062435
aF0.4565079526871162
aF0.34440378121995663
aF3.131151878935057
aF0.00017954218455267423
aF-0.0004363923736545601
asg5
I0
sg6
F0.0
sg7
(F-1.5536988417254847
F-1.3063467184649866
F-2.3469179312335413
F-1.0695603529559534
F1.5711588859558105
F0.017531048506498337
tp75
sg9
(lp76
F0.0
aF0.0
aF-0.19999389648437502
aF0.0
aF0.0
aF0.0
asg11
I01
sg12
g13
sg14
I00
sg15
g16
sa(dp77
g2
F0.0
sg3
(lp78
F0.15607011248913427
aF0.45568831241525537
aF0.3238385231934455
aF3.1308443799976238
aF0.0001650608980340711
aF-1.675633042726031e-05
asg5
I0
sg6
F0.0
sg7
(F-1.5535429159747522
F-1.3290441671954554
F-2.3730207125293177
F-1.0210679213153284
F1.5711469650268555
F0.017267396673560143
tp79
sg9
(lp80
F0.0
aF0.0
aF-0.19999389648437502
aF0.0
aF0.0
aF0.0
asg11
I01
sg12
g13
sg14
I00
sg15
g16
sa(dp81
g2
F0.0
sg3
(lp82
F0.15609658273094743
aF0.45510443161552133
aF0.30346364339581716
aF3.131171441512387
aF0.0001707098576805457
aF-5.2941045671571234e-05
asg5
I0
sg6
F0.0
sg7
(F-1.5535791555987757
F-1.354701344166891
F-2.3976383844958704
F-0.9704659620868128
F1.5711469650268555
F0.017267396673560143
tp83
sg9
(lp84
F0.0
aF0.0
aF-0.19999389648437502
aF0.0
aF0.0
aF0.0
asg11
I01
sg12
g13
sg14
I00
sg15
g16
sa(dp85
g2
F0.0
sg3
(lp86
F0.1560925300374427
aF0.4542610785864478
aF0.2854201316743213
aF3.1308191563622194
aF0.00018755592294500146
aF-0.00011288702181459663
asg5
I0
sg6
F0.0
sg7
(F-1.5535429159747522
F-1.3791130224811
F-2.418821398411886
F-0.9252231756793421
F1.5711709260940552
F0.01736327074468136
tp87
sg9
(lp88
F0.0
aF0.0
aF0.0
aF0.0
aF0.0
aF0.0
asg11
I01
sg12
g13
sg14
I00
sg15
g16
sa(dp89
g2
F0.0
sg3
(lp90
F0.15610193245284548
aF0.45409237239954287
aF0.27873957607437605
aF3.1313747925305404
aF0.00018492007403635283
aF-0.00014854349682035976
asg5
I0
sg6
F0.0
sg7
(F-1.5535548369037073
F-1.3890116850482386
F-2.426396910344259
F-0.9071934858905237
F1.5711588859558105
F0.017387237399816513
tp91
sg9
(lp92
F0.0
aF0.0
aF0.0
aF0.0
aF0.0
aF0.0
asg11
I01
sg12
g13
sg14
I00
sg15
g16
sa(dp93
g2
F0.0
sg3
(lp94
F0.1561098753533306
aF0.4540199871069685
aF0.2790366823930883
aF3.131506346490145
aF0.00017516506666220407
aF-0.000172780254240842
asg5
I0
sg6
F0.0
sg7
(F-1.5535672346698206
F-1.3884123007403772
F-2.4262173811541956
F-0.9078410307513636
F1.5711469650268555
F0.017399221658706665
tp95
sg9
(lp96
F0.0
aF0.0
aF0.0
aF0.0
aF0.0
aF0.0
asg11
I01
sg12
g13
sg14
I00
sg15
g16
sa(dp97
g2
F0.0
sg3
(lp98
F0.15610073362151983
aF0.4539137007796296
aF0.27652070090304237
aF3.1313683251029722
aF0.00017288548483084193
aF-0.00013650193758268412
asg5
I0
sg6
F0.0
sg7
(F-1.5535429159747522
F-1.392127815877096
F-2.4290180842029017
F-0.9014628569232386
F1.5711469650268555
F0.017387237399816513
tp99
sg9
(lp100
F0.0
aF0.0
aF-0.19999389648437502
aF0.0
aF0.0
aF0.0
asg11
I01
sg12
g13
sg14
I00
sg15
g16
sa(dp101
g2
F0.0
sg3
(lp102
F0.15612023431766658
aF0.4534187979594872
aF0.26011279344477767
aF3.129967359878117
aF0.00014921661468594356
aF-0.00010113038928828779
asg5
I0
sg6
F0.0
sg7
(F-1.5535672346698206
F-1.4178937117206019
F-2.4463585058795374
F-0.8597577253924769
F1.5711469650268555
F0.017327317968010902
tp103
sg9
(lp104
F0.0
aF0.0
aF-0.033721923828125
aF0.0
aF0.0
aF0.0
asg11
I01
sg12
g13
sg14
I00
sg15
g16
sa(dp105
g2
F0.0
sg3
(lp106
F0.1561049513526093
aF0.45310199461251516
aF0.24835464284141273
aF3.130759144631104
aF0.0002104769121740442
aF-0.00010123677277021647
asg5
I0
sg6
F0.0
sg7
(F-1.5535309950457972
F-1.437643829976217
F-2.4586849848376673
F-0.826888386403219
F1.5711948871612549
F0.01736327074468136
tp107
sg9
(lp108
F0.0
aF0.0
aF0.0
aF0.0
aF0.0
aF0.0
asg11
I01
sg12
g13
sg14
I00
sg15
g16
sa(dp109
g2
F0.0
sg3
(lp110
F0.1561243410395487
aF0.4531166646901907
aF0.24818364233217755
aF3.131407929926369
aF0.0001856184080363316
aF-0.0001489514884878905
asg5
I0
sg6
F0.0
sg7
(F-1.5535672346698206
F-1.4380033651935022
F-2.4589842001544397
F-0.8255813757525843
F1.5711588859558105
F0.01737525314092636
tp111
sg9
(lp112
F0.0
aF0.0
aF0.0
aF0.0
aF0.0
aF0.0
asg11
I01
sg12
g13
sg14
I00
sg15
g16
sa.