(lp0
(dp1
S'start_gripper_pos'
p2
F0.0
sS'curr_pos'
p3
(lp4
F0.16400913754615026
aF0.45947287413640786
aF0.5961284413254754
aF3.1309830489396924
aF0.0001582893431173158
aF-0.0002658060635618472
asS'gripper_ac'
p5
I0
sS'curr_gripper_pos'
p6
F0.0
sS'curr_q'
p7
(F-1.5709765593158167
F-1.1899531523333948
F-1.961949650441305
F-1.5710957686053675
F1.570955514907837
F8.388957940042019e-05
tp8
sS'xdot_h'
p9
(lp10
F0.0
aF0.0
aF0.0
aF0.0
aF0.0
aF0.0
asS'trans_mode'
p11
I01
sS'start_pos'
p12
(lp13
F0.16400803018513238
aF0.4594880751441362
aF0.5962023969656551
aF3.1310664984977374
aF0.0001705882455998878
aF-0.00024195246384767964
asS'slow_mode'
p14
I00
sS'start_q'
p15
(F-1.5709765593158167
F-1.18996507326235
F-1.961829964314596
F-1.5711200873004358
F1.5709675550460815
F5.992112710373476e-05
tp16
sa(dp17
g2
F0.0
sg3
(lp18
F0.16401461424553698
aF0.45946762757192605
aF0.5961434760532807
aF3.1310188117268747
aF0.00015829240336446147
aF-0.0002777213316014708
asg5
I0
sg6
F0.0
sg7
(F-1.5709884802447718
F-1.1899412314044397
F-1.96193772951235
F-1.5710838476764124
F1.570955514907837
F8.388957940042019e-05
tp19
sg9
(lp20
F0.0
aF0.0
aF0.0
aF0.0
aF0.0
aF0.0
asg11
I01
sg12
g13
sg14
I00
sg15
g16
sa(dp21
g2
F0.0
sg3
(lp22
F0.1640034431911713
aF0.4594873890674297
aF0.5961516347898801
aF3.1310426535849962
aF0.00015829444341675222
aF-0.000253398862528675
asg5
I0
sg6
F0.0
sg7
(F-1.5709641615497034
F-1.18996507326235
F-1.9619138876544397
F-1.5710600058185022
F1.570955514907837
F8.388957940042019e-05
tp23
sg9
(lp24
F0.0
aF0.0
aF0.0
aF0.0
aF0.0
aF0.0
asg11
I01
sg12
g13
sg14
I00
sg15
g16
sa(dp25
g2
F0.0
sg3
(lp26
F0.16402756205160848
aF0.45947850284732494
aF0.5961694047405984
aF3.1311022570604368
aF0.00013408836062229272
aF-0.0003247889130992174
asg5
I0
sg6
F0.0
sg7
(F-1.5710118452655237
F-1.1899531523333948
F-1.9619019667254847
F-1.571024243031637
F1.5709315538406372
F0.000107858024421148
tp27
sg9
(lp28
F0.0
aF0.0
aF0.0
aF0.0
aF0.0
aF0.0
asg11
I01
sg12
g13
sg14
I00
sg15
g16
sa(dp29
g2
F0.0
sg3
(lp30
F0.1640113502141317
aF0.4594920580758897
aF0.5961475241595081
aF3.131042654023016
aF0.0001342082785647452
aF-0.0002775273997875951
asg5
I0
sg6
F0.0
sg7
(F-1.5709765593158167
F-1.189976994191305
F-1.9619138876544397
F-1.5710480848895472
F1.5709315538406372
F9.58738019107841e-05
tp31
sg9
(lp32
F0.0
aF0.0
aF0.0
aF0.0
aF0.0
aF0.0
asg11
I01
sg12
g13
sg14
I00
sg15
g16
sa(dp33
g2
F0.0
sg3
(lp34
F0.1640124080525614
aF0.45948333079414333
aF0.5961448131817112
aF3.1310426559030073
aF0.0001825070395588872
aF-0.0002540032233558781
asg5
I0
sg6
F0.0
sg7
(F-1.5709884802447718
F-1.18996507326235
F-1.9619258085833948
F-1.5710480848895472
F1.5709794759750366
F5.992112710373476e-05
tp35
sg9
(lp36
F0.0
aF0.0
aF0.0
aF0.0
aF0.0
aF0.0
asg11
I01
sg12
g13
sg14
I00
sg15
g16
sa(dp37
g2
F0.0
sg3
(lp38
F0.1640189850486949
aF0.4594834826287737
aF0.5961215885030468
aF3.130994972923103
aF0.00017058383060919474
aF-0.00026580652300751186
asg5
I0
sg6
F0.0
sg7
(F-1.5710004011737269
F-1.189976994191305
F-1.961949650441305
F-1.5710600058185022
F1.5709675550460815
F5.992112710373476e-05
tp39
sg9
(lp40
F0.0
aF0.0
aF0.0
aF0.0
aF0.0
aF0.0
asg11
I01
sg12
g13
sg14
I00
sg15
g16
sa(dp41
g2
F0.0
sg3
(lp42
F0.16400803109111806
aF0.4594931019731024
aF0.5961420702686171
aF3.131054573483167
aF0.00017033493308220583
aF-0.00026592161920706157
asg5
I0
sg6
F0.0
sg7
(F-1.5709765593158167
F-1.189976994191305
F-1.9619258085833948
F-1.571024243031637
F1.5709675550460815
F8.388957940042019e-05
tp43
sg9
(lp44
F0.0
aF0.0
aF0.0
aF0.0
aF0.0
aF0.0
asg11
I01
sg12
g13
sg14
I00
sg15
g16
sa(dp45
g2
F0.0
sg3
(lp46
F0.1640242434489957
aF0.4594817907033514
aF0.5960396006492629
aF3.1310793669751726
aF0.0001702110665037453
aF-0.00031318690573456723
asg5
I0
sg6
F0.0
sg7
(F-1.5710118452655237
F-1.18996507326235
F-1.9621170202838343
F-1.570820156727926
F1.5709675550460815
F9.58738019107841e-05
tp47
sg9
(lp48
F0.0
aF0.0
aF-0.029016113281250002
aF0.0
aF0.0
aF0.0
asg11
I01
sg12
g13
sg14
I00
sg15
g16
sa(dp49
g2
F0.0
sg3
(lp50
F0.1640012671324952
aF0.45944540900888914
aF0.593883010779948
aF3.130940616432772
aF0.00012266105905811437
aF-0.00021714478399937503
asg5
I0
sg6
F0.0
sg7
(F-1.5709522406207483
F-1.1899531523333948
F-1.9658649603473108
F-1.5672228972064417
F1.5709196329116821
F5.992112710373476e-05
tp51
sg9
(lp52
F0.0
aF0.0
aF-0.033721923828125
aF0.0
aF0.0
aF0.0
asg11
I01
sg12
g13
sg14
I00
sg15
g16
sa(dp53
g2
F0.0
sg3
(lp54
F0.16401681950541389
aF0.4594470741112281
aF0.5906963228860813
aF3.130875769076647
aF0.00013483419460945907
aF-0.00022955303911925413
asg5
I0
sg6
F0.0
sg7
(F-1.5709884802447718
F-1.190073315297262
F-1.9713485876666468
F-1.5616839567767542
F1.5709315538406372
F3.5952674807049334e-05
tp55
sg9
(lp56
F0.0
aF0.0
aF-0.039996337890625004
aF0.0
aF0.0
aF0.0
asg11
I01
sg12
g13
sg14
I00
sg15
g16
sa(dp57
g2
F0.0
sg3
(lp58
F0.16400564897841313
aF0.4594670042816898
aF0.5869583390405336
aF3.1313402036312414
aF0.0001344829534544027
aF-0.0002411225034116501
asg5
I0
sg6
F0.0
sg7
(F-1.5709641615497034
F-1.1901806036578577
F-1.97791034380068
F-1.5545504728900355
F1.5709315538406372
F7.190534961409867e-05
tp59
sg9
(lp60
F0.0
aF0.0
aF-0.07293701171875
aF0.0
aF0.0
aF0.0
asg11
I01
sg12
g13
sg14
I00
sg15
g16
sa(dp61
g2
F0.0
sg3
(lp62
F0.1640012206243879
aF0.45940782789634543
aF0.58026169773267
aF3.1311528052881763
aF0.00018251385116614582
aF-0.00022966442489685845
asg5
I0
sg6
F0.0
sg7
(F-1.5709641615497034
F-1.1904919783221644
F-1.9893925825702112
F-1.5429442564593714
F1.5709794759750366
F5.992112710373476e-05
tp63
sg9
(lp64
F0.0
aF0.0
aF-0.09332885742187501
aF0.0
aF0.0
aF0.0
asg11
I01
sg12
g13
sg14
I00
sg15
g16
sa(dp65
g2
F0.0
sg3
(lp66
F0.16401347129566204
aF0.4592967015328013
aF0.5713025314957069
aF3.1305376819980775
aF0.00017029061836459203
aF-0.0002779305812812311
asg5
I0
sg6
F0.0
sg7
(F-1.5709884802447718
F-1.1911395231830042
F-2.004550282155172
F-1.5277541319476526
F1.5709675550460815
F8.388957940042019e-05
tp67
sg9
(lp68
F0.0
aF0.0
aF-0.096466064453125
aF0.0
aF0.0
aF0.0
asg11
I01
sg12
g13
sg14
I00
sg15
g16
sa(dp69
g2
F0.0
sg3
(lp70
F0.1640241909581659
aF0.45923826746840496
aF0.5615504533203697
aF3.1310164244696783
aF0.00017020491867062527
aF-0.00031319761903911796
asg5
I0
sg6
F0.0
sg7
(F-1.5710118452655237
F-1.1920741240130823
F-2.021156613026754
F-1.5097344557391565
F1.5709675550460815
F9.58738019107841e-05
tp71
sg9
(lp72
F0.0
aF0.0
aF-0.10117187500000001
aF0.0
aF0.0
aF0.0
asg11
I01
sg12
g13
sg14
I00
sg15
g16
sa(dp73
g2
F0.0
sg3
(lp74
F0.16400005909521778
aF0.4591014399610735
aF0.5515744761101455
aF3.1305615264567965
aF0.00019451666640931891
aF-0.0002299051439981623
asg5
I0
sg6
F0.0
sg7
(F-1.5709641615497034
F-1.1933444182025355
F-2.037786308919088
F-1.4922893683062952
F1.5709915161132812
F5.992112710373476e-05
tp75
sg9
(lp76
F0.0
aF0.0
aF-0.112152099609375
aF0.0
aF0.0
aF0.0
asg11
I01
sg12
g13
sg14
I00
sg15
g16
sa(dp77
g2
F0.0
sg3
(lp78
F0.1640022445339564
aF0.458959816402565
aF0.5403812544513398
aF3.1309129528456463
aF0.00017032279602948437
aF-0.0002535479751470436
asg5
I0
sg6
F0.0
sg7
(F-1.5709641615497034
F-1.1950820128070276
F-2.05646258989443
F-1.4715240637408655
F1.5709675550460815
F8.388957940042019e-05
tp79
sg9
(lp80
F0.0
aF0.0
aF-0.11685791015625001
aF0.0
aF0.0
aF0.0
asg11
I01
sg12
g13
sg14
I00
sg15
g16
sa(dp81
g2
F0.0
sg3
(lp82
F0.16401884080283652
aF0.4587767200195415
aF0.529247738471737
aF3.130795650903458
aF0.00017031274053058948
aF-0.00028980757775135674
asg5
I0
sg6
F0.0
sg7
(F-1.5710004011737269
F-1.1972506682025355
F-2.0747206846820276
F-1.451214615498678
F1.5709675550460815
F8.388957940042019e-05
tp83
sg9
(lp84
F0.0
aF0.0
aF-0.11685791015625001
aF0.0
aF0.0
aF0.0
asg11
I01
sg12
g13
sg14
I00
sg15
g16
sa(dp85
g2
F0.0
sg3
(lp86
F0.1640122154620208
aF0.4584811405892715
aF0.5169984950572608
aF3.130778960579976
aF0.00018223154160714963
aF-0.00027801839792822693
asg5
I0
sg6
F0.0
sg7
(F-1.5709884802447718
F-1.199946705495016
F-2.094701115285055
F-1.4285548369037073
F1.5709794759750366
F8.388957940042019e-05
tp87
sg9
(lp88
F0.0
aF0.0
aF-0.11685791015625001
aF0.0
aF0.0
aF0.0
asg11
I01
sg12
g13
sg14
I00
sg15
g16
sa(dp89
g2
F0.0
sg3
(lp90
F0.16401438736996696
aF0.45828702376714836
aF0.5060745856258302
aF3.1310221495870114
aF0.0001582926889771989
aF-0.00027772080324377777
asg5
I0
sg6
F0.0
sg7
(F-1.5709884802447718
F-1.202918831502096
F-2.1122868696795862
F-1.4077537695514124
F1.570955514907837
F8.388957940042019e-05
tp91
sg9
(lp92
F0.0
aF0.0
aF-0.11685791015625001
aF0.0
aF0.0
aF0.0
asg11
I01
sg12
g13
sg14
I00
sg15
g16
sa(dp93
g2
F0.0
sg3
(lp94
F0.1639977314663748
aF0.4579873886589897
aF0.4937607436802453
aF3.130850017068505
aF0.0001586641764509288
aF-0.00020555782176852932
asg5
I0
sg6
F0.0
sg7
(F-1.5709522406207483
F-1.206717316304342
F-2.1318238417254847
F-1.3845904509173792
F1.570955514907837
F4.793690095539205e-05
tp95
sg9
(lp96
F0.0
aF0.0
aF-0.12313232421875
aF0.0
aF0.0
aF0.0
asg11
I01
sg12
g13
sg14
I00
sg15
g16
sa(dp97
g2
F0.0
sg3
(lp98
F0.1640282922162409
aF0.45776671696155213
aF0.4813391665445233
aF3.1308585989720163
aF0.00012252739990794483
aF-0.00028874302091687245
asg5
I0
sg6
F0.0
sg7
(F-1.5710118452655237
F-1.211318318043844
F-2.1511924902545374
F-1.3606122175799769
F1.5709196329116821
F7.190534961409867e-05
tp99
sg9
(lp100
F0.0
aF0.0
aF-0.15450439453125
aF0.0
aF0.0
aF0.0
asg11
I01
sg12
g13
sg14
I00
sg15
g16
sa(dp101
g2
F0.0
sg3
(lp102
F0.16400987712601767
aF0.4574782095309135
aF0.4676398533061838
aF3.1307851625369487
aF0.00014635217336400348
aF-0.00026570855248584405
asg5
I0
sg6
F0.0
sg7
(F-1.5709765593158167
F-1.217022720967428
F-2.1722729841815394
F-1.3339007536517542
F1.5709435939788818
F8.388957940042019e-05
tp103
sg9
(lp104
F0.0
aF0.0
aF-0.17175903320312502
aF0.0
aF0.0
aF0.0
asg11
I01
sg12
g13
sg14
I00
sg15
g16
sa(dp105
g2
F0.0
sg3
(lp106
F0.16401745941229606
aF0.4570574532267873
aF0.4499058663465823
aF3.130471888445933
aF0.0001228988868106229
aF-0.0002294749258441807
asg5
I0
sg6
F0.0
sg7
(F-1.5709884802447718
F-1.2255547682391565
F-2.199026409779684
F-1.2989285627948206
F1.5709196329116821
F3.5952674807049334e-05
tp107
sg9
(lp108
F0.0
aF0.0
aF-0.17332763671875
aF0.0
aF0.0
aF0.0
asg11
I01
sg12
g13
sg14
I00
sg15
g16
sa(dp109
g2
F0.0
sg3
(lp110
F0.16401846995376645
aF0.45653934695925624
aF0.43342262860397723
aF3.1305271993512718
aF0.00011059633350002031
aF-0.0002533018860887182
asg5
I0
sg6
F0.0
sg7
(F-1.5709884802447718
F-1.2344582716571253
F-2.223612610493795
F-1.265383545552389
F1.5709075927734375
F5.992112710373476e-05
tp111
sg9
(lp112
F0.0
aF0.0
aF-0.17332763671875
aF0.0
aF0.0
aF0.0
asg11
I01
sg12
g13
sg14
I00
sg15
g16
sa(dp113
g2
F0.0
sg3
(lp114
F0.1640322375090701
aF0.4559507535916814
aF0.4156748451220728
aF3.130885776206173
aF0.00013432132450766102
aF-0.0003127717960319484
asg5
I0
sg6
F0.0
sg7
(F-1.5710237661944788
F-1.2453988234149378
F-2.249610726033346
F-1.228086296712057
F1.5709315538406372
F8.388957940042019e-05
tp115
sg9
(lp116
F0.0
aF0.0
aF-0.17332763671875
aF0.0
aF0.0
aF0.0
asg11
I01
sg12
g13
sg14
I00
sg15
g16
sa(dp117
g2
F0.0
sg3
(lp118
F0.16401387536835274
aF0.4556225921961257
aF0.3993473008758068
aF3.13120478011807
aF0.00015843280182114376
aF-0.00026570830973143524
asg5
I0
sg6
F0.0
sg7
(F-1.5709884802447718
F-1.2572501341449183
F-2.2727115789996546
F-1.19281512895693
F1.570955514907837
F7.190534961409867e-05
tp119
sg9
(lp120
F0.0
aF0.0
aF-0.17332763671875
aF0.0
aF0.0
aF0.0
asg11
I01
sg12
g13
sg14
I00
sg15
g16
sa(dp121
g2
F0.0
sg3
(lp122
F0.16400942889861322
aF0.45499136725920253
aF0.38208134613304257
aF3.131310396916795
aF0.00014627382560465993
aF-0.00027761526048703834
asg5
I0
sg6
F0.0
sg7
(F-1.5709765593158167
F-1.2707675139056605
F-2.2968292872058313
F-1.155074421559469
F1.5709435939788818
F9.58738019107841e-05
tp123
sg9
(lp124
F0.0
aF0.0
aF-0.13568115234375
aF0.0
aF0.0
aF0.0
asg11
I01
sg12
g13
sg14
I00
sg15
g16
sa(dp125
g2
F0.0
sg3
(lp126
F0.16400824740131234
aF0.4545342654571482
aF0.3672820225728658
aF3.1309894843452715
aF0.0001581628256295821
aF-0.0002777885935956672
asg5
I0
sg6
F0.0
sg7
(F-1.5709765593158167
F-1.2838533560382288
F-2.3167691866504114
F-1.1223695913897913
F1.570955514907837
F9.58738019107841e-05
tp127
sg9
(lp128
F0.0
aF0.0
aF-0.16862182617187502
aF0.0
aF0.0
aF0.0
asg11
I01
sg12
g13
sg14
I00
sg15
g16
sa(dp129
g2
F0.0
sg3
(lp130
F0.16401360496913334
aF0.45421543747359516
aF0.3526299225747227
aF3.1308950762798493
aF0.00015853821357433983
aF-0.0002537738367459495
asg5
I0
sg6
F0.0
sg7
(F-1.5709884802447718
F-1.2982938925372522
F-2.3359065691577356
F-1.0888860861407679
F1.570955514907837
F5.992112710373476e-05
tp131
sg9
(lp132
F0.0
aF0.0
aF-0.17332763671875
aF0.0
aF0.0
aF0.0
asg11
I01
sg12
g13
sg14
I00
sg15
g16
sa(dp133
g2
F0.0
sg3
(lp134
F0.16401348708080904
aF0.45360194516693864
aF0.33478626057090966
aF3.1310011744493718
aF0.00015867167869462054
aF-0.00024177346199466527
asg5
I0
sg6
F0.0
sg7
(F-1.5709884802447718
F-1.3171442190753382
F-2.3588979879962366
F-1.0469382444964808
F1.570955514907837
F4.793690095539205e-05
tp135
sg9
(lp136
F0.0
aF0.0
aF-0.174896240234375
aF0.0
aF0.0
aF0.0
asg11
I01
sg12
g13
sg14
I00
sg15
g16
sa(dp137
g2
F0.0
sg3
(lp138
F0.16400795103176946
aF0.4528899481997271
aF0.31806037922254526
aF3.130563434133977
aF0.00015838559512715617
aF-0.00025388897575115703
asg5
I0
sg6
F0.0
sg7
(F-1.5709765593158167
F-1.3363660017596644
F-2.379794422780172
F-1.0072577635394495
F1.570955514907837
F7.190534961409867e-05
tp139
sg9
(lp140
F0.0
aF0.0
aF-0.174896240234375
aF0.0
aF0.0
aF0.0
asg11
I01
sg12
g13
sg14
I00
sg15
g16
sa(dp141
g2
F0.0
sg3
(lp142
F0.16402269940578937
aF0.4523177527933229
aF0.30014053384302786
aF3.13031952899584
aF0.0001702719017740585
aF-0.00030133274935651707
asg5
I0
sg6
F0.0
sg7
(F-1.5710118452655237
F-1.3593633810626429
F-2.4011693636523646
F-0.9631293455706995
F1.5709675550460815
F8.388957940042019e-05
tp143
sg9
(lp144
F0.0
aF0.0
aF-0.149798583984375
aF0.0
aF0.0
aF0.0
asg11
I01
sg12
g13
sg14
I00
sg15
g16
sa(dp145
g2
F0.0
sg3
(lp146
F0.16400883665497198
aF0.45170548156010326
aF0.2837283555352411
aF3.1306595159448753
aF0.00014634143243679032
aF-0.0002657269404370773
asg5
I0
sg6
F0.0
sg7
(F-1.5709765593158167
F-1.3821328322040003
F-2.420269552861349
F-0.9209197203265589
F1.5709435939788818
F8.388957940042019e-05
tp147
sg9
(lp148
F0.0
aF0.0
aF-0.13568115234375
aF0.0
aF0.0
aF0.0
asg11
I01
sg12
g13
sg14
I00
sg15
g16
sa(dp149
g2
F0.0
sg3
(lp150
F0.16401080620549002
aF0.45114738732466614
aF0.2706613905337471
aF3.1308106702514062
aF0.00018223426426479023
aF-0.0002780126193892863
asg5
I0
sg6
F0.0
sg7
(F-1.5709884802447718
F-1.4014995733844202
F-2.4349895159350794
F-0.8866818586932581
F1.5709794759750366
F8.388957940042019e-05
tp151
sg9
(lp152
F0.0
aF0.0
aF-0.039996337890625004
aF0.0
aF0.0
aF0.0
asg11
I01
sg12
g13
sg14
I00
sg15
g16
sa(dp153
g2
F0.0
sg3
(lp154
F0.16400649878948503
aF0.45099167746992413
aF0.2624150281138575
aF3.1309844825054896
aF0.0001705831830038424
aF-0.00024196645458741966
asg5
I0
sg6
F0.0
sg7
(F-1.5709765593158167
F-1.4147303740130823
F-2.443749729787008
F-0.8645170370685022
F1.5709675550460815
F5.992112710373476e-05
tp155
sg9
(lp156
F0.0
aF0.0
aF0.0
aF0.0
aF0.0
aF0.0
asg11
I01
sg12
g13
sg14
I00
sg15
g16
sa(dp157
g2
F0.0
sg3
(lp158
F0.16400201320974647
aF0.4509676223370265
aF0.26240348389093326
aF3.1314885001295676
aF0.0001585747526643745
aF-0.000229361050598326
asg5
I0
sg6
F0.0
sg7
(F-1.5709641615497034
F-1.414706055318014
F-2.4439294973956507
F-0.8638575712787073
F1.570955514907837
F5.992112710373476e-05
tp159
sg9
(lp160
F0.0
aF0.0
aF0.0
aF0.0
aF0.0
aF0.0
asg11
I01
sg12
g13
sg14
I00
sg15
g16
sa(dp161
g2
F0.0
sg3
(lp162
F0.16402129348693084
aF0.45089420219157017
aF0.26236622275491467
aF3.1308173525301206
aF0.00018262223098797795
aF-0.0002654258317143998
asg5
I0
sg6
F0.0
sg7
(F-1.5710118452655237
F-1.4146340529071253
F-2.4438934961902063
F-0.8646367231952112
F1.5709794759750366
F4.793690095539205e-05
tp163
sg9
(lp164
F0.0
aF0.0
aF0.0
aF0.0
aF0.0
aF0.0
asg11
I01
sg12
g13
sg14
I00
sg15
g16
sa.