(lp0
(dp1
S'start_gripper_pos'
p2
F0.0
sS'curr_pos'
p3
(lp4
F0.1640242416577787
aF0.45947347946155503
aF0.596084400641374
aF3.130911072147127
aF0.00017198590835652003
aF-0.00014552375212585137
asS'gripper_ac'
p5
I0
sS'curr_gripper_pos'
p6
F0.0
sS'curr_q'
p7
(F-1.5710118452655237
F-1.189976994191305
F-1.9619978109942835
F-1.5710957686053675
F1.5709675550460815
F-7.18275653284195e-05
tp8
sS'xdot_h'
p9
(lp10
F0.0
aF0.0
aF0.0
aF0.0
aF0.0
aF0.0
asS'trans_mode'
p11
I01
sS'start_pos'
p12
(lp13
F0.16403299415568004
aF0.45949903683224674
aF0.5962174626236163
aF3.1310665016816963
aF0.00019480027629306044
aF-0.00027736535982161045
asS'slow_mode'
p14
I00
sS'start_q'
p15
(F-1.5710356871234339
F-1.1900013128863733
F-1.9617818037616175
F-1.571132008229391
F1.5709915161132812
F3.5952674807049334e-05
tp16
sa(dp17
g2
F0.0
sg3
(lp18
F0.16402861941905636
aF0.45946946590235344
aF0.5961079525147344
aF3.1309592401176993
aF0.00018428306560700866
aF-0.00012180239044682386
asg5
I0
sg6
F0.0
sg7
(F-1.5710237661944788
F-1.18996507326235
F-1.9619734922992151
F-1.5710838476764124
F1.5709794759750366
F-0.00010759035219365387
tp19
sg9
(lp20
F0.0
aF-0.10274658203125
aF0.0
aF0.0
aF0.0
aF0.0
asg11
I01
sg12
g13
sg14
I00
sg15
g16
sa(dp21
g2
F0.0
sg3
(lp22
F0.16402126289968483
aF0.4543801469911138
aF0.5955443373396482
aF3.130999292618761
aF0.00013661194970975558
aF-7.408182106712207e-05
asg5
I0
sg6
F0.0
sg7
(F-1.5710004011737269
F-1.1809538046466272
F-1.9683554808246058
F-1.5736730734454554
F1.5709315538406372
F-0.00013143221010381012
tp23
sg9
(lp24
F0.0
aF-0.2
aF-0.18744506835937502
aF0.0
aF0.0
aF0.0
asg11
I01
sg12
g13
sg14
I00
sg15
g16
sa(dp25
g2
F0.0
sg3
(lp26
F0.1640101241136571
aF0.4361002124234852
aF0.5844712015566195
aF3.1305171904389155
aF0.0001590458290328763
aF-0.00020589978043381523
asg5
I0
sg6
F0.0
sg7
(F-1.5709884802447718
F-1.1485760847674769
F-2.006310764943258
F-1.5685775915728968
F1.570955514907837
F1.1984225238848012e-05
tp27
sg9
(lp28
F-0.16391601562500002
aF-0.07451171875
aF-0.19999389648437502
aF0.0
aF0.0
aF0.0
asg11
I01
sg12
g13
sg14
I00
sg15
g16
sa(dp29
g2
F0.0
sg3
(lp30
F0.15651941170367661
aF0.42188951976042655
aF0.5636185559615043
aF3.131183858019992
aF9.665364390535547e-05
aF6.760872588500551e-05
asg5
I0
sg6
F0.0
sg7
(F-1.5532076994525355
F-1.1182721296893519
F-2.059467617665426
F-1.5450547377215784
F1.5710753202438354
F0.017519064247608185
tp31
sg9
(lp32
F-0.18744506835937502
aF0.071368408203125
aF-0.19999389648437502
aF0.0
aF0.0
aF0.0
asg11
I01
sg12
g13
sg14
I00
sg15
g16
sa(dp33
g2
F0.0
sg3
(lp34
F0.13925876055709369
aF0.4238216812521445
aF0.5442380742712305
aF3.1311679203887985
aF6.595806322924224e-05
aF0.0003013336074663755
asg5
I0
sg6
F0.0
sg7
(F-1.5121062437640589
F-1.112401310597555
F-2.0964844862567347
F-1.5139063040362757
F1.5714704990386963
F0.05838489904999733
tp35
sg9
(lp36
F0.15294189453125
aF0.060388183593750006
aF-0.19999389648437502
aF0.0
aF0.0
aF0.0
asg11
I01
sg12
g13
sg14
I00
sg15
g16
sa(dp37
g2
F0.0
sg3
(lp38
F0.13888340844879382
aF0.43337821963741174
aF0.5231969934651137
aF3.1307856985230478
aF6.69684615046557e-05
aF-0.00020184527047034778
asg5
I0
sg6
F0.0
sg7
(F-1.5125492254840296
F-1.134352986012594
F-2.1215761343585413
F-1.4672444502459925
F1.571494460105896
F0.05844482034444809
tp39
sg9
(lp40
F0.2
aF-0.030590820312500003
aF-0.19999389648437502
aF0.0
aF0.0
aF0.0
asg11
I01
sg12
g13
sg14
I00
sg15
g16
sa(dp41
g2
F0.0
sg3
(lp42
F0.15911190141564285
aF0.4310936950329292
aF0.5024125545245401
aF3.1311189847223098
aF0.00033281441668934727
aF-0.0008684758760668471
asg5
I0
sg6
F0.0
sg7
(F-1.559669319783346
F-1.1488397757159632
F-2.1503189245807093
F-1.423699204121725
F1.5712547302246094
F0.011991340667009354
tp43
sg9
(lp44
F0.0
aF-0.2
aF-0.19999389648437502
aF0.0
aF0.0
aF0.0
asg11
I01
sg12
g13
sg14
I00
sg15
g16
sa(dp45
g2
F0.0
sg3
(lp46
F0.16368218335248017
aF0.41385712178599593
aF0.4829934330053156
aF3.1310160584987874
aF0.0004373279455853446
aF-0.00034194899725866715
asg5
I0
sg6
F0.0
sg7
(F-1.5702703634845179
F-1.1249831358539026
F-2.19769794145693
F-1.4002841154681605
F1.5712428092956543
F0.0008632387034595013
tp47
sg9
(lp48
F-0.14195556640625
aF-0.1184326171875
aF-0.19999389648437502
aF0.0
aF0.0
aF0.0
asg11
I01
sg12
g13
sg14
I00
sg15
g16
sa(dp49
g2
F0.0
sg3
(lp50
F0.15519294129515568
aF0.3976262402769932
aF0.46207702340866025
aF3.1316166103133414
aF0.00028604433940964877
aF-0.00011228252427249345
asg5
I0
sg6
F0.0
sg7
(F-1.548816982899801
F-1.0934088865863245
F-2.25131065050234
F-1.377636734639303
F1.5713026523590088
F0.02208767645061016
tp51
sg9
(lp52
F-0.14822998046875
aF0.13724975585937502
aF-0.19999389648437502
aF0.0
aF0.0
aF0.0
asg11
I01
sg12
g13
sg14
I00
sg15
g16
sa(dp53
g2
F0.0
sg3
(lp54
F0.1392098398012661
aF0.403422998933494
aF0.44297443920798857
aF3.131451345001647
aF0.00010014550739250943
aF0.0004502218483498351
asg5
I0
sg6
F0.0
sg7
(F-1.5089591185199183
F-1.1022518316852015
F-2.2810776869403284
F-1.3391755262957972
F1.5715184211730957
F0.061382826417684555
tp55
sg9
(lp56
F0.02745361328125
aF0.19999389648437502
aF-0.19999389648437502
aF0.0
aF0.0
aF0.0
asg11
I01
sg12
g13
sg14
I00
sg15
g16
sa(dp57
g2
F0.0
sg3
(lp58
F0.13620496667119383
aF0.4220819539397317
aF0.42149025251546673
aF3.130724899906936
aF0.00010644671649287899
aF-0.0003275374880903436
asg5
I0
sg6
F0.0
sg7
(F-1.504507843648092
F-1.1526387373553675
F-2.2935379187213343
F-1.2770488897906702
F1.5716259479522705
F0.06661094725131989
tp59
sg9
(lp60
F0.069805908203125
aF0.19999389648437502
aF-0.19999389648437502
aF0.0
aF0.0
aF0.0
asg11
I01
sg12
g13
sg14
I00
sg15
g16
sa(dp61
g2
F0.0
sg3
(lp62
F0.1426056473728117
aF0.44049626020701654
aF0.4015831982541057
aF3.1313334887483455
aF0.00021544707978512855
aF-0.0007460991568968136
asg5
I0
sg6
F0.0
sg7
(F-1.5221098105060022
F-1.2099641005145472
F-2.2978344599353235
F-1.2148264090167444
F1.5715184211730957
F0.0494278147816658
tp63
sg9
(lp64
F0.0
aF0.12470092773437501
aF-0.19999389648437502
aF0.0
aF0.0
aF0.0
asg11
I01
sg12
g13
sg14
I00
sg15
g16
sa(dp65
g2
F0.0
sg3
(lp66
F0.14486319504018194
aF0.45638872620006626
aF0.37971708073615995
aF3.1310866652842484
aF0.0002673249205808563
aF-0.00022822985090123542
asg5
I0
sg6
F0.0
sg7
(F-1.528846565877096
F-1.2627266089068812
F-2.306535784398214
F-1.15361196199526
F1.571506381034851
F0.0421728640794754
tp67
sg9
(lp68
F0.0
aF0.0
aF-0.19999389648437502
aF0.0
aF0.0
aF0.0
asg11
I01
sg12
g13
sg14
I00
sg15
g16
sa(dp69
g2
F0.0
sg3
(lp70
F0.14483608356767666
aF0.4574682731600695
aF0.3606529418401459
aF3.1312773912378704
aF0.0003117758528963053
aF-0.00024028153096159637
asg5
I0
sg6
F0.0
sg7
(F-1.5288942495929163
F-1.2833617369281214
F-2.3301261107074183
F-1.1091941038714808
F1.5715423822402954
F0.04213691130280495
tp71
sg9
(lp72
F0.0
aF0.021173095703125002
aF-0.19999389648437502
aF0.0
aF0.0
aF0.0
asg11
I01
sg12
g13
sg14
I00
sg15
g16
sa(dp73
g2
F0.0
sg3
(lp74
F0.14478540679265167
aF0.45831745527555545
aF0.34013648176859945
aF3.131208351265754
aF0.0002974309229271047
aF-0.00015648219341520187
asg5
I0
sg6
F0.0
sg7
(F-1.528858486806051
F-1.3073294798480433
F-2.3548405806170862
F-1.0605815092669886
F1.5715304613113403
F0.04208897426724434
tp75
sg9
(lp76
F0.0
aF0.0
aF-0.19999389648437502
aF0.0
aF0.0
aF0.0
asg11
I01
sg12
g13
sg14
I00
sg15
g16
sa(dp77
g2
F0.0
sg3
(lp78
F0.14481705613194082
aF0.4574350009509348
aF0.3194100780827628
aF3.1307821848628157
aF0.00027896346043407993
aF-0.00019261842724421625
asg5
I0
sg6
F0.0
sg7
(F-1.528846565877096
F-1.330721680318014
F-2.381002966557638
F-1.0114534536944788
F1.5715304613113403
F0.04213691130280495
tp79
sg9
(lp80
F0.0
aF0.0
aF-0.19999389648437502
aF0.0
aF0.0
aF0.0
asg11
I01
sg12
g13
sg14
I00
sg15
g16
sa(dp81
g2
F0.0
sg3
(lp82
F0.14485651177144498
aF0.45664944209104796
aF0.30059731761894737
aF3.1308177149338987
aF0.0002686695111142481
aF-0.00018043281754168884
asg5
I0
sg6
F0.0
sg7
(F-1.528858486806051
F-1.3544018904315394
F-2.4038975874530237
F-0.9648435751544397
F1.5715184211730957
F0.04211294278502464
tp83
sg9
(lp84
F0.0
aF0.0
aF-0.19999389648437502
aF0.0
aF0.0
aF0.0
asg11
I01
sg12
g13
sg14
I00
sg15
g16
sa(dp85
g2
F0.0
sg3
(lp86
F0.14488817400736115
aF0.4575182122231328
aF0.28030457632245964
aF3.131308789040733
aF0.0002550572451312973
aF-0.000155683551571375
asg5
I0
sg6
F0.0
sg7
(F-1.5290020147906702
F-1.3860634008990687
F-2.4251046816455286
F-0.9114850203143519
F1.5714824199676514
F0.041945163160562515
tp87
sg9
(lp88
F0.0
aF0.19999389648437502
aF-0.19999389648437502
aF0.0
aF0.0
aF0.0
asg11
I01
sg12
g13
sg14
I00
sg15
g16
sa(dp89
g2
F0.0
sg3
(lp90
F0.1449720181417706
aF0.47012070309437043
aF0.260743143885973
aF3.130909932321355
aF0.00019301500981440593
aF-9.242083212184765e-05
asg5
I0
sg6
F0.0
sg7
(F-1.5303061644183558
F-1.4417789618121546
F-2.426049772893087
F-0.8552263418780726
F1.5714225769042969
F0.0405782125890255
tp91
sg9
(lp92
F0.0
aF0.0
aF-0.1576416015625
aF0.0
aF0.0
aF0.0
asg11
I01
sg12
g13
sg14
I00
sg15
g16
sa(dp93
g2
F0.0
sg3
(lp94
F0.1450308310396804
aF0.47614839539334447
aF0.24214531736397094
aF3.130142695874371
aF0.00017928088488185955
aF-0.00025957302319531836
asg5
I0
sg6
F0.0
sg7
(F-1.5309527556048792
F-1.484743897114889
F-2.434115711842672
F-0.8049629370318812
F1.571434497833252
F0.04009846970438957
tp95
sg9
(lp96
F0.0
aF0.0
aF0.0
aF0.0
aF0.0
aF0.0
asg11
I01
sg12
g13
sg14
I00
sg15
g16
sa(dp97
g2
F0.0
sg3
(lp98
F0.1450506491858702
aF0.47590455799148595
aF0.23636930831776848
aF3.13117183538429
aF0.00023287336907003574
aF-0.00025936716759439446
asg5
I0
sg6
F0.0
sg7
(F-1.5309765974627894
F-1.494654957448141
F-2.4399803320514124
F-0.788156811391012
F1.5714465379714966
F0.04007450118660927
tp99
sg9
(lp100
F0.0
aF0.0
aF0.0
aF0.0
aF0.0
aF0.0
asg11
I01
sg12
g13
sg14
I00
sg15
g16
sa(dp101
g2
F0.0
sg3
(lp102
F0.14505028698715472
aF0.4758563760694528
aF0.23658410179907702
aF3.131101094990827
aF0.0001940084754537944
aF-0.00024708551908793493
asg5
I0
sg6
F0.0
sg7
(F-1.5309646765338343
F-1.4941757361041468
F-2.4398484865771692
F-0.7888401190387171
F1.5714105367660522
F0.04007450118660927
tp103
sg9
(lp104
F0.0
aF0.0
aF0.0
aF0.0
aF0.0
aF0.0
asg11
I01
sg12
g13
sg14
I00
sg15
g16
sa(dp105
g2
F0.0
sg3
(lp106
F0.14506666891282638
aF0.4756985660439118
aF0.23670416044350157
aF3.130800679999403
aF0.0001937524021571571
aF-0.0002950807113873182
asg5
I0
sg6
F0.0
sg7
(F-1.5309885183917444
F-1.4936726729022425
F-2.4399083296405237
F-0.7895835081683558
F1.5714225769042969
F0.04009846970438957
tp107
sg9
(lp108
F0.0
aF0.0
aF0.0
aF0.0
aF0.0
aF0.0
asg11
I01
sg12
g13
sg14
I00
sg15
g16
sa(dp109
g2
F0.0
sg3
(lp110
F0.14508749773608487
aF0.4757085891403818
aF0.23669147514777075
aF3.130755200937925
aF0.0001444889233351955
aF-0.00028239944487897466
asg5
I0
sg6
F0.0
sg7
(F-1.5310242811786097
F-1.4937203566180628
F-2.4398842493640345
F-0.7896073500262659
F1.5713746547698975
F0.040050532668828964
tp111
sg9
(lp112
F0.0
aF0.0
aF0.0
aF0.0
aF0.0
aF0.0
asg11
I01
sg12
g13
sg14
I00
sg15
g16
sa.