(lp0
(dp1
S'start_gripper_pos'
p2
F0.0
sS'curr_pos'
p3
(lp4
F0.16401898366152226
aF0.45947668525653895
aF0.5961065069037569
aF3.1309229766506355
aF0.00017096298158056678
aF-0.00022986817457379904
asS'gripper_ac'
p5
I0
sS'curr_gripper_pos'
p6
F0.0
sS'curr_q'
p7
(F-1.5710004011737269
F-1.189976994191305
F-1.96196157137026
F-1.5711200873004358
F1.5709675550460815
F2.3968450477696024e-05
tp8
sS'xdot_h'
p9
(lp10
F0.0
aF0.0
aF0.0
aF0.0
aF0.0
aF0.0
asS'trans_mode'
p11
I01
sS'start_pos'
p12
(lp13
F0.16402972589884746
aF0.45950187064043274
aF0.5961857202428447
aF3.1310064231545125
aF0.00017096513338739296
aF-0.000253218928990043
asS'slow_mode'
p14
I00
sS'start_q'
p15
(F-1.5710237661944788
F-1.1900132338153284
F-1.961818043385641
F-1.571143929158346
F1.5709675550460815
F2.3968450477696024e-05
tp16
sa(dp17
g2
F0.0
sg3
(lp18
F0.16480307380864515
aF0.4595072389397496
aF0.5959987259381452
aF3.130839750801639
aF0.00015146095997561264
aF-0.0003936642516902502
asg5
I0
sg6
F0.0
sg7
(F-1.5726988951312464
F-1.1905401388751429
F-1.9617937246905726
F-1.570808235798971
F1.5709315538406372
F-0.0015104452716272476
tp19
sg9
(lp20
F0.079217529296875
aF0.0
aF0.0
aF0.0
aF0.0
aF0.0
asg11
I01
sg12
g13
sg14
I00
sg15
g16
sa(dp21
g2
F0.0
sg3
(lp22
F0.17155433068617892
aF0.4594925367334299
aF0.5959649980290134
aF3.1307450437342688
aF0.00026083361530556835
aF-0.0005427844269527299
asg5
I0
sg6
F0.0
sg7
(F-1.587332550679342
F-1.1948779265033167
F-1.959207836781637
F-1.5691536108600062
F1.5708836317062378
F-0.015995327626363576
tp23
sg9
(lp24
F0.157647705078125
aF0.0
aF0.0
aF0.0
aF0.0
aF0.0
asg11
I01
sg12
g13
sg14
I00
sg15
g16
sa(dp25
g2
F0.0
sg3
(lp26
F0.18489351694450598
aF0.45921525540981184
aF0.5959549413520225
aF3.130708235653743
aF0.00034621683173770637
aF-0.0005143593652519841
asg5
I0
sg6
F0.0
sg7
(F-1.6159990469561976
F-1.2034099737750452
F-1.9539993445025843
F-1.5658686796771448
F1.5706559419631958
F-0.044689480458394826
tp27
sg9
(lp28
F0.17176513671875002
aF0.0
aF0.0
aF0.0
aF0.0
aF0.0
asg11
I01
sg12
g13
sg14
I00
sg15
g16
sa(dp29
g2
F0.0
sg3
(lp30
F0.20248405652725254
aF0.4586947745736143
aF0.5959922725893193
aF3.1310984115396963
aF0.00030337904136072593
aF-0.0002858775914217884
asg5
I0
sg6
F0.0
sg7
(F-1.6533034483539026
F-1.2151649633990687
F-1.9467070738421839
F-1.5610006491290491
F1.5702368021011353
F-0.08221990266908819
tp31
sg9
(lp32
F0.17803955078125
aF0.0
aF-0.1325439453125
aF0.0
aF0.0
aF0.0
asg11
I01
sg12
g13
sg14
I00
sg15
g16
sa(dp33
g2
F0.0
sg3
(lp34
F0.21967743030096806
aF0.4582067400164197
aF0.589733965376631
aF3.1311726015178336
aF0.00035755806435556976
aF-0.00048006179796808153
asg5
I0
sg6
F0.0
sg7
(F-1.6891821066485804
F-1.2279751936541956
F-1.9495447317706507
F-1.5452588240252894
F1.5699256658554077
F-0.11790305772890264
tp35
sg9
(lp36
F0.2
aF0.0
aF-0.19999389648437502
aF0.0
aF0.0
aF0.0
asg11
I01
sg12
g13
sg14
I00
sg15
g16
sa(dp37
g2
F0.0
sg3
(lp38
F0.24008389697994093
aF0.4569371222961623
aF0.5701389781699647
aF3.13064088710527
aF0.0004121388251842973
aF-0.00033512879207080886
asg5
I0
sg6
F0.0
sg7
(F-1.731112305318014
F-1.2449072043048304
F-1.9727614561664026
F-1.5055978933917444
F1.5694586038589478
F-0.15997583070863897
tp39
sg9
(lp40
F0.085491943359375
aF0.0
aF-0.13724975585937502
aF0.0
aF0.0
aF0.0
asg11
I01
sg12
g13
sg14
I00
sg15
g16
sa(dp41
g2
F0.0
sg3
(lp42
F0.2542652185709804
aF0.45617814450206706
aF0.5553136024606091
aF3.1315034913343727
aF0.00021018696323667405
aF-0.00025605340534648544
asg5
I0
sg6
F0.0
sg7
(F-1.7596667448626917
F-1.2585447470294397
F-1.9899194876300257
F-1.4738743940936487
F1.5691111087799072
F-0.1886070410357874
tp43
sg9
(lp44
F0.0
aF0.0
aF-0.19999389648437502
aF0.0
aF0.0
aF0.0
asg11
I01
sg12
g13
sg14
I00
sg15
g16
sa(dp45
g2
F0.0
sg3
(lp46
F0.2555449448529851
aF0.4555842812701672
aF0.5359713028690765
aF3.1314103330094643
aF0.00021080124786433427
aF8.613911879518316e-05
asg5
I0
sg6
F0.0
sg7
(F-1.762418572102682
F-1.2630861441241663
F-2.0209172407733362
F-1.4384215513812464
F1.5690631866455078
F-0.19170076051820928
tp47
sg9
(lp48
F-0.1827392578125
aF0.0
aF-0.19999389648437502
aF0.0
aF0.0
aF0.0
asg11
I01
sg12
g13
sg14
I00
sg15
g16
sa(dp49
g2
F0.0
sg3
(lp50
F0.2452622925649471
aF0.4548967482438723
aF0.5166175926083978
aF3.1309480435305854
aF0.00014472332279680494
aF6.460663363147419e-05
asg5
I0
sg6
F0.0
sg7
(F-1.7421658674823206
F-1.2581608931170862
F-2.058366600667135
F-1.406374756489889
F1.5691230297088623
F-0.1714261213885706
tp51
sg9
(lp52
F-0.19999389648437502
aF0.0
aF-0.19999389648437502
aF0.0
aF0.0
aF0.0
asg11
I01
sg12
g13
sg14
I00
sg15
g16
sa(dp53
g2
F0.0
sg3
(lp54
F0.22448001033399648
aF0.4537987656732172
aF0.495694847663748
aF3.1306818556648235
aF4.669565444538889e-05
aF5.2729502129633096e-05
asg5
I0
sg6
F0.0
sg7
(F-1.7001522223102015
F-1.2452552954303187
F-2.1040385405169886
F-1.373920742665426
F1.569434642791748
F-0.1294015089618128
tp55
sg9
(lp56
F-0.19999389648437502
aF0.0
aF-0.19999389648437502
aF0.0
aF0.0
aF0.0
asg11
I01
sg12
g13
sg14
I00
sg15
g16
sa(dp57
g2
F0.0
sg3
(lp58
F0.2042202218037228
aF0.45307721247921323
aF0.47507182923124835
aF3.130948971866426
aF5.598539267443129e-05
aF2.7522457509704575e-05
asg5
I0
sg6
F0.0
sg7
(F-1.6579211393939417
F-1.2356203238116663
F-2.147254292164938
F-1.3401225248919886
F1.5699256658554077
F-0.08714801469911748
tp59
sg9
(lp60
F0.0
aF0.0
aF-0.19999389648437502
aF0.0
aF0.0
aF0.0
asg11
I01
sg12
g13
sg14
I00
sg15
g16
sa(dp61
g2
F0.0
sg3
(lp62
F0.19541300106000292
aF0.4533852557581253
aF0.4562243749400389
aF3.131329307121493
aF-7.68539907998434e-05
aF-0.0001941658531815815
asg5
I0
sg6
F0.0
sg7
(F-1.6391022841082972
F-1.2384846846209925
F-2.179575268422262
F-1.304563347493307
F1.570021152496338
F-0.0681074301349085
tp63
sg9
(lp64
F0.055688476562500006
aF0.0
aF-0.19999389648437502
aF0.0
aF0.0
aF0.0
asg11
I01
sg12
g13
sg14
I00
sg15
g16
sa(dp65
g2
F0.0
sg3
(lp66
F0.1992318527935811
aF0.45270279378552236
aF0.43548557184095643
aF3.131155431214738
aF2.9289587137672394e-05
aF-0.0005847601096394061
asg5
I0
sg6
F0.0
sg7
(F-1.647381607686178
F-1.2525885740863245
F-2.2083872000323694
F-1.261822525654928
F1.570033073425293
F-0.0759967009173792
tp67
sg9
(lp68
F0.036865234375
aF0.0
aF-0.19999389648437502
aF0.0
aF0.0
aF0.0
asg11
I01
sg12
g13
sg14
I00
sg15
g16
sa(dp69
g2
F0.0
sg3
(lp70
F0.20370780938412442
aF0.45187775436192923
aF0.41634299422873455
aF3.1309998548041214
aF0.00013377690207987697
aF-0.0004073330583595869
asg5
I0
sg6
F0.0
sg7
(F-1.657071892415182
F-1.2678912321673792
F-2.2338345686541956
F-1.2212284247027796
F1.570021152496338
F-0.08586484590639287
tp71
sg9
(lp72
F-0.038427734375
aF0.0
aF-0.19999389648437502
aF0.0
aF0.0
aF0.0
asg11
I01
sg12
g13
sg14
I00
sg15
g16
sa(dp73
g2
F0.0
sg3
(lp74
F0.20105117800601896
aF0.4510577662204731
aF0.3956842639066784
aF3.13096181029653
aF0.00012950727683690494
aF-0.00011954133608217613
asg5
I0
sg6
F0.0
sg7
(F-1.6515563170062464
F-1.2802584807025355
F-2.264524761830465
F-1.1782124678241175
F1.5700690746307373
F-0.08063728014101201
tp75
sg9
(lp76
F-0.19999389648437502
aF0.0
aF-0.19999389648437502
aF0.0
aF0.0
aF0.0
asg11
I01
sg12
g13
sg14
I00
sg15
g16
sa(dp77
g2
F0.0
sg3
(lp78
F0.18465476180657367
aF0.4502426607634867
aF0.3767666834546613
aF3.131048596949694
aF8.081774424913565e-05
aF0.0004478577236652173
asg5
I0
sg6
F0.0
sg7
(F-1.6163104216205042
F-1.281935993825094
F-2.2996538321124476
F-1.1413357893573206
F1.5703926086425781
F-0.045960251485006154
tp79
sg9
(lp80
F0.0
aF0.0
aF-0.19999389648437502
aF0.0
aF0.0
aF0.0
asg11
I01
sg12
g13
sg14
I00
sg15
g16
sa(dp81
g2
F0.0
sg3
(lp82
F0.17275564385418093
aF0.44918346915350393
aF0.3565214696382585
aF3.1314860360398975
aF1.969352565014071e-05
aF-0.00011333510665056456
asg5
I0
sg6
F0.0
sg7
(F-1.5903118292437952
F-1.2905762831317347
F-2.333513085042135
F-1.0984047094928187
F1.5706199407577515
F-0.019401375447408498
tp83
sg9
(lp84
F0.0
aF0.0
aF-0.19999389648437502
aF0.0
aF0.0
aF0.0
asg11
I01
sg12
g13
sg14
I00
sg15
g16
sa(dp85
g2
F0.0
sg3
(lp86
F0.1724023789054295
aF0.4482494148357395
aF0.3360067282240042
aF3.1314435901241233
aF1.041228047446344e-05
aF-0.0003669620515224111
asg5
I0
sg6
F0.0
sg7
(F-1.5895698706256312
F-1.3112357298480433
F-2.3605735937701624
F-1.0507271925555628
F1.5706199407577515
F-0.018405739461080373
tp87
sg9
(lp88
F0.0
aF0.0
aF-0.19999389648437502
aF0.0
aF0.0
aF0.0
asg11
I01
sg12
g13
sg14
I00
sg15
g16
sa(dp89
g2
F0.0
sg3
(lp90
F0.17256851590294875
aF0.4473362714032521
aF0.316783756318449
aF3.130941339133773
aF2.5280551527161637e-05
aF-0.00024588290743120884
asg5
I0
sg6
F0.0
sg7
(F-1.5899766127215784
F-1.3333099524127405
F-2.3846893946277063
F-1.0050395170794886
F1.5706199407577515
F-0.018933598195211232
tp91
sg9
(lp92
F0.0
aF0.0
aF-0.19999389648437502
aF0.0
aF0.0
aF0.0
asg11
I01
sg12
g13
sg14
I00
sg15
g16
sa(dp93
g2
F0.0
sg3
(lp94
F0.1725637667511715
aF0.4465469577106255
aF0.29632518017029585
aF3.1304311218914678
aF0.0001563502293436545
aF-0.00016332161953976903
asg5
I0
sg6
F0.0
sg7
(F-1.5900242964373987
F-1.3596985975848597
F-2.40916353860964
F-0.9546893278705042
F1.5707398653030396
F-0.019065205250875294
tp95
sg9
(lp96
F0.0
aF0.0
aF0.0
aF0.0
aF0.0
aF0.0
asg11
I01
sg12
g13
sg14
I00
sg15
g16
sa(dp97
g2
F0.0
sg3
(lp98
F0.1725472766260497
aF0.44631288701457644
aF0.2880781719530199
aF3.1310880189520343
aF0.00021546692323463115
aF-0.000175897842456987
asg5
I0
sg6
F0.0
sg7
(F-1.5900123755084437
F-1.3712871710406702
F-2.418821398411886
F-0.9327872435199183
F1.5708117485046387
F-0.019041363392965138
tp99
sg9
(lp100
F0.0
aF0.0
aF0.0
aF0.0
aF0.0
aF0.0
asg11
I01
sg12
g13
sg14
I00
sg15
g16
sa(dp101
g2
F0.0
sg3
(lp102
F0.1725522731719282
aF0.4462939865632932
aF0.2883926108419714
aF3.131170742860774
aF0.00021426451221232077
aF-0.00015204016846522806
asg5
I0
sg6
F0.0
sg7
(F-1.5900242964373987
F-1.370784107838766
F-2.4185221830951136
F-0.9335067907916468
F1.5708117485046387
F-0.019077126179830373
tp103
sg9
(lp104
F0.0
aF0.0
aF0.0
aF0.0
aF0.0
aF0.0
asg11
I01
sg12
g13
sg14
I00
sg15
g16
sa(dp105
g2
F0.0
sg3
(lp106
F0.17254450727480214
aF0.4462259891733697
aF0.28842946289751514
aF3.13107514068588
aF0.00022788544322451226
aF-0.0001521854840335211
asg5
I0
sg6
F0.0
sg7
(F-1.5900123755084437
F-1.3705924193011683
F-2.418557945881979
F-0.933758560811178
F1.5708236694335938
F-0.019065205250875294
tp107
sg9
(lp108
F0.0
aF0.0
aF-0.16862182617187502
aF0.0
aF0.0
aF0.0
asg11
I01
sg12
g13
sg14
I00
sg15
g16
sa(dp109
g2
F0.0
sg3
(lp110
F0.1725600249000784
aF0.44618580537462965
aF0.27918877211472054
aF3.1312770391946265
aF0.00022378996603344327
aF-0.00021222007576025148
asg5
I0
sg6
F0.0
sg7
(F-1.590048615132467
F-1.3845894972430628
F-2.4286823908435267
F-0.9094350973712366
F1.5708236694335938
F-0.019041363392965138
tp111
sg9
(lp112
F0.0
aF0.0
aF-0.19999389648437502
aF0.0
aF0.0
aF0.0
asg11
I01
sg12
g13
sg14
I00
sg15
g16
sa(dp113
g2
F0.0
sg3
(lp114
F0.1725196393557569
aF0.4453252857992566
aF0.25824253465426433
aF3.1306300802592113
aF0.00026059648167106895
aF-0.00011679017698720114
asg5
I0
sg6
F0.0
sg7
(F-1.5900004545794886
F-1.4170430342303675
F-2.45156437555422
F-0.8547471205340784
F1.5708476305007935
F-0.01908904710878545
tp115
sg9
(lp116
F0.0
aF0.0
aF-0.113720703125
aF0.0
aF0.0
aF0.0
asg11
I01
sg12
g13
sg14
I00
sg15
g16
sa(dp117
g2
F0.0
sg3
(lp118
F0.17250439121988967
aF0.44463712823586116
aF0.24368292542431985
aF3.1306255760845585
aF0.00022453451799619097
aF-0.00012831723822273985
asg5
I0
sg6
F0.0
sg7
(F-1.5899885336505335
F-1.4413588682757776
F-2.4669185320483606
F-0.8150809446917933
F1.5708117485046387
F-0.019065205250875294
tp119
sg9
(lp120
F0.0
aF0.0
aF0.0
aF0.0
aF0.0
aF0.0
asg11
I01
sg12
g13
sg14
I00
sg15
g16
sa(dp121
g2
F0.0
sg3
(lp122
F0.17251284539329462
aF0.444636286402142
aF0.24292361205192076
aF3.1311309201751083
aF0.000239237905690682
aF-0.0001165379625584349
asg5
I0
sg6
F0.0
sg7
(F-1.5900123755084437
F-1.4427617231952112
F-2.4677682558642786
F-0.8123233954059046
F1.5708357095718384
F-0.01910096803774053
tp123
sg9
(lp124
F0.0
aF0.0
aF0.0
aF0.0
aF0.0
aF0.0
asg11
I01
sg12
g13
sg14
I00
sg15
g16
sa(dp125
g2
F0.0
sg3
(lp126
F0.17249535373951844
aF0.44455956243310757
aF0.24308672641364537
aF3.131058686786104
aF0.00024036644105168253
aF-0.00010463304090993939
asg5
I0
sg6
F0.0
sg7
(F-1.5899766127215784
F-1.4423063437091272
F-2.467720333729879
F-0.8128989378558558
F1.5708357095718384
F-0.019077126179830373
tp127
sg9
(lp128
F0.0
aF0.0
aF0.0
aF0.0
aF0.0
aF0.0
asg11
I01
sg12
g13
sg14
I00
sg15
g16
sa(dp129
g2
F0.0
sg3
(lp130
F0.17250674042813852
aF0.44464440066064015
aF0.24319227868843807
aF3.1311776754620397
aF0.0001901681230899641
aF-0.00011602630019014624
asg5
I0
sg6
F0.0
sg7
(F-1.5899885336505335
F-1.4422820250140589
F-2.4675169626819056
F-0.8130067030536097
F1.570787787437439
F-0.019077126179830373
tp131
sg9
(lp132
F0.0
aF0.0
aF0.0
aF0.0
aF0.0
aF0.0
asg11
I01
sg12
g13
sg14
I00
sg15
g16
sa.