(lp0
(dp1
S'start_gripper_pos'
p2
F0.0
sS'curr_pos'
p3
(lp4
F0.16401792606663584
aF0.4594858475326306
aF0.5961294646899267
aF3.1309224995635248
aF0.00012291569180471266
aF-0.0002294195425448098
asS'gripper_ac'
p5
I0
sS'curr_gripper_pos'
p6
F0.0
sS'curr_q'
p7
(F-1.5709884802447718
F-1.1899893919574183
F-1.9619138876544397
F-1.571155850087301
F1.5709196329116821
F3.5952674807049334e-05
tp8
sS'xdot_h'
p9
(lp10
F0.0
aF0.0
aF0.0
aF0.0
aF0.0
aF0.0
asS'trans_mode'
p11
I01
sS'start_pos'
p12
(lp13
F0.16401788320038396
aF0.45947006260985185
aF0.5962504548037529
aF3.131054572460979
aF0.00018225520008509732
aF-0.00028988909850155494
asS'slow_mode'
p14
I00
sS'start_q'
p15
(F-1.5709765593158167
F-1.1899531523333948
F-1.9617937246905726
F-1.5711796919452112
F1.5709435939788818
F8.388957940042019e-05
tp16
sa(dp17
g2
F0.0
sg3
(lp18
F0.1640242432423791
aF0.4594808319303353
aF0.5961212759171075
aF3.1309105727450337
aF0.00017057861979772468
aF-0.00027726501187279724
asg5
I0
sg6
F0.0
sg7
(F-1.5710118452655237
F-1.1899893919574183
F-1.9619258085833948
F-1.571155850087301
F1.5709675550460815
F5.992112710373476e-05
tp19
sg9
(lp20
F0.0
aF0.0
aF0.0
aF0.0
aF0.0
aF0.0
asg11
I01
sg12
g13
sg14
I00
sg15
g16
sa(dp21
g2
F0.0
sg3
(lp22
F0.16401461882060123
aF0.4594914370233136
aF0.5961239872501288
aF3.130910579194142
aF0.00015892321046457152
aF-0.00021782075396563545
asg5
I0
sg6
F0.0
sg7
(F-1.5709884802447718
F-1.1900013128863733
F-1.9619138876544397
F-1.571155850087301
F1.570955514907837
F2.3968450477696024e-05
tp23
sg9
(lp24
F0.0
aF0.0
aF0.0
aF0.0
aF0.0
aF0.0
asg11
I01
sg12
g13
sg14
I00
sg15
g16
sa(dp25
g2
F0.0
sg3
(lp26
F0.16399906673117773
aF0.45950190574781186
aF0.5961362789015135
aF3.130958257937644
aF0.00014662185162199446
aF-0.00021739742653289142
asg5
I0
sg6
F0.0
sg7
(F-1.5709522406207483
F-1.1900013128863733
F-1.9619019667254847
F-1.5711200873004358
F1.5709435939788818
F5.992112710373476e-05
tp27
sg9
(lp28
F0.0
aF0.0
aF-0.021173095703125002
aF0.0
aF0.0
aF0.0
asg11
I01
sg12
g13
sg14
I00
sg15
g16
sa(dp29
g2
F0.0
sg3
(lp30
F0.16401571461961276
aF0.4594742087734098
aF0.5952567983585293
aF3.1309010339672096
aF0.00014636207661147935
aF-0.00027761252285532815
asg5
I0
sg6
F0.0
sg7
(F-1.5709884802447718
F-1.1899893919574183
F-1.9634345213519495
F-1.5696566740619105
F1.5709435939788818
F8.388957940042019e-05
tp31
sg9
(lp32
F0.0
aF0.0
aF-0.058819580078125
aF0.0
aF0.0
aF0.0
asg11
I01
sg12
g13
sg14
I00
sg15
g16
sa(dp33
g2
F0.0
sg3
(lp34
F0.16401791359257067
aF0.4594209360608364
aF0.5907576904158275
aF3.1305758316028847
aF0.00012224263891550828
aF-0.00028937964153148677
asg5
I0
sg6
F0.0
sg7
(F-1.5709884802447718
F-1.190073315297262
F-1.9711812178241175
F-1.5621512571917933
F1.5709196329116821
F9.58738019107841e-05
tp35
sg9
(lp36
F0.0
aF0.0
aF-0.09332885742187501
aF0.0
aF0.0
aF0.0
asg11
I01
sg12
g13
sg14
I00
sg15
g16
sa(dp37
g2
F0.0
sg3
(lp38
F0.16400342189081565
aF0.45936049262218104
aF0.5828815833520009
aF3.1311466097842757
aF0.00015867889351955605
aF-0.00021743168996281537
asg5
I0
sg6
F0.0
sg7
(F-1.5709641615497034
F-1.190240208302633
F-1.984962288533346
F-1.5476325193988245
F1.570955514907837
F4.793690095539205e-05
tp39
sg9
(lp40
F0.0
aF0.0
aF-0.10430908203125
aF0.0
aF0.0
aF0.0
asg11
I01
sg12
g13
sg14
I00
sg15
g16
sa(dp41
g2
F0.0
sg3
(lp42
F0.1640275012688476
aF0.45919649553079966
aF0.571916029143707
aF3.1307403457076326
aF0.00013469907470576694
aF-0.00026491983954106396
asg5
I0
sg6
F0.0
sg7
(F-1.5710118452655237
F-1.1908753553973597
F-2.003676716481344
F-1.528689209614889
F1.5709315538406372
F4.793690095539205e-05
tp43
sg9
(lp44
F0.0
aF0.0
aF-0.181170654296875
aF0.0
aF0.0
aF0.0
asg11
I01
sg12
g13
sg14
I00
sg15
g16
sa(dp45
g2
F0.0
sg3
(lp46
F0.16400905210576
aF0.45899886168622556
aF0.5574620999259929
aF3.130666430961162
aF0.00015839318066812833
aF-0.00025387266216792275
asg5
I0
sg6
F0.0
sg7
(F-1.5709765593158167
F-1.1922419706927698
F-2.028148953114645
F-1.5029242674456995
F1.570955514907837
F7.190534961409867e-05
tp47
sg9
(lp48
F0.0
aF0.0
aF-0.19999389648437502
aF0.0
aF0.0
aF0.0
asg11
I01
sg12
g13
sg14
I00
sg15
g16
sa(dp49
g2
F0.0
sg3
(lp50
F0.16401116288335804
aF0.45845274203102926
aF0.5365626464918473
aF3.130358877592819
aF0.00013481484506894402
aF-0.0002177017997056163
asg5
I0
sg6
F0.0
sg7
(F-1.5709765593158167
F-1.1950338522540491
F-2.0630953947650355
F-1.4654935042010706
F1.5709315538406372
F3.5952674807049334e-05
tp51
sg9
(lp52
F0.0
aF0.0
aF-0.11685791015625001
aF0.0
aF0.0
aF0.0
asg11
I01
sg12
g13
sg14
I00
sg15
g16
sa(dp53
g2
F0.0
sg3
(lp54
F0.16400430540090638
aF0.4580759738544424
aF0.5211211567633963
aF3.130709340174085
aF0.00014595441598851382
aF-0.0002892724280885273
asg5
I0
sg6
F0.0
sg7
(F-1.5709641615497034
F-1.1980412642108362
F-2.0885594526873987
F-1.436671559010641
F1.5709435939788818
F0.00011984225420746952
tp55
sg9
(lp56
F0.0
aF0.0
aF0.0
aF0.0
aF0.0
aF0.0
asg11
I01
sg12
g13
sg14
I00
sg15
g16
sa(dp57
g2
F0.0
sg3
(lp58
F0.16401210594672813
aF0.4579112036869935
aF0.5172452169839111
aF3.1311499442651844
aF0.00018251367426929332
aF-0.00025398364214069955
asg5
I0
sg6
F0.0
sg7
(F-1.5709884802447718
F-1.1987603346454065
F-2.09506065050234
F-1.4290106932269495
F1.5709794759750366
F5.992112710373476e-05
tp59
sg9
(lp60
F0.0
aF0.0
aF0.0
aF0.0
aF0.0
aF0.0
asg11
I01
sg12
g13
sg14
I00
sg15
g16
sa(dp61
g2
F0.0
sg3
(lp62
F0.16401540551001353
aF0.45786563174264744
aF0.5173942240192707
aF3.1309220095473416
aF0.00014598023876145379
aF-0.0003135600804204704
asg5
I0
sg6
F0.0
sg7
(F-1.5709884802447718
F-1.198664967213766
F-2.094808880482809
F-1.4295857588397425
F1.5709435939788818
F0.00011984225420746952
tp63
sg9
(lp64
F0.0
aF0.0
aF0.0
aF0.0
aF0.0
aF0.0
asg11
I01
sg12
g13
sg14
I00
sg15
g16
sa(dp65
g2
F0.0
sg3
(lp66
F0.16401651501644363
aF0.4578625390377752
aF0.5171427869051042
aF3.1309716085056087
aF0.00013445593081265754
aF-0.0002654907631857381
asg5
I0
sg6
F0.0
sg7
(F-1.5709884802447718
F-1.198724095021383
F-2.0952275435077112
F-1.4290583769427698
F1.5709315538406372
F7.190534961409867e-05
tp67
sg9
(lp68
F0.0
aF0.0
aF-0.196856689453125
aF0.0
aF0.0
aF0.0
asg11
I01
sg12
g13
sg14
I00
sg15
g16
sa(dp69
g2
F0.0
sg3
(lp70
F0.164007713412655
aF0.45773060158078455
aF0.5055967500370958
aF3.130556755484612
aF0.0001702922544025614
aF-0.0002660064042786618
asg5
I0
sg6
F0.0
sg7
(F-1.5709765593158167
F-1.2020915190326136
F-2.1135438124286097
F-1.4077895323382776
F1.5709675550460815
F8.388957940042019e-05
tp71
sg9
(lp72
F0.0
aF0.0
aF-0.19999389648437502
aF0.0
aF0.0
aF0.0
asg11
I01
sg12
g13
sg14
I00
sg15
g16
sa(dp73
g2
F0.0
sg3
(lp74
F0.16400637165923612
aF0.45722427279987765
aF0.4868062784410506
aF3.130629241766708
aF0.0001226419873430903
aF-0.0002291039034678808
asg5
I0
sg6
F0.0
sg7
(F-1.5709641615497034
F-1.2080233732806605
F-2.1433871428119105
F-1.371941868458883
F1.5709196329116821
F5.992112710373476e-05
tp75
sg9
(lp76
F0.0
aF0.0
aF0.0
aF0.0
aF0.0
aF0.0
asg11
I01
sg12
g13
sg14
I00
sg15
g16
sa(dp77
g2
F0.0
sg3
(lp78
F0.16401523398623943
aF0.4569730337501702
aF0.4784452983831811
aF3.1312014413789995
aF0.0001463877425456856
aF-0.0002775685508090317
asg5
I0
sg6
F0.0
sg7
(F-1.5709884802447718
F-1.2110074202166956
F-2.1566394011126917
F-1.355133358632223
F1.5709435939788818
F8.388957940042019e-05
tp79
sg9
(lp80
F0.0
aF0.0
aF0.0
aF0.0
aF0.0
aF0.0
asg11
I01
sg12
g13
sg14
I00
sg15
g16
sa(dp81
g2
F0.0
sg3
(lp82
F0.16401412413564698
aF0.45691713593969474
aF0.47855162186863254
aF3.1310340686199094
aF0.0001581671749390915
aF-0.00028970247088810723
asg5
I0
sg6
F0.0
sg7
(F-1.5709884802447718
F-1.2108753363238733
F-2.1564953962909144
F-1.3555768171893519
F1.570955514907837
F9.58738019107841e-05
tp83
sg9
(lp84
F0.0
aF0.0
aF-0.024310302734375
aF0.0
aF0.0
aF0.0
asg11
I01
sg12
g13
sg14
I00
sg15
g16
sa(dp85
g2
F0.0
sg3
(lp86
F0.16400757394923263
aF0.4569568376000011
aF0.47640088751870135
aF3.131471327123027
aF0.00017024933556169687
aF-0.0002778342326526305
asg5
I0
sg6
F0.0
sg7
(F-1.5709765593158167
F-1.2118456999408167
F-2.1598475615130823
F-1.3508170286761683
F1.5709675550460815
F9.58738019107841e-05
tp87
sg9
(lp88
F0.0
aF0.0
aF-0.19999389648437502
aF0.0
aF0.0
aF0.0
asg11
I01
sg12
g13
sg14
I00
sg15
g16
sa(dp89
g2
F0.0
sg3
(lp90
F0.16400970750889726
aF0.4565371179876028
aF0.45877825994134774
aF3.130581079742165
aF0.0001465986509196838
aF-0.00024177141971436076
asg5
I0
sg6
F0.0
sg7
(F-1.5709765593158167
F-1.2197068373309534
F-2.186577622090475
F-1.3171160856830042
F1.5709435939788818
F5.992112710373476e-05
tp91
sg9
(lp92
F0.0
aF0.0
aF-0.19999389648437502
aF0.0
aF0.0
aF0.0
asg11
I01
sg12
g13
sg14
I00
sg15
g16
sa(dp93
g2
F0.0
sg3
(lp94
F0.16402049617742742
aF0.4560629174851894
aF0.44027202140234944
aF3.1305457885290706
aF0.00014619932319514771
aF-0.00030156893195679786
asg5
I0
sg6
F0.0
sg7
(F-1.5710004011737269
F-1.2292574087726038
F-2.2143119017230433
F-1.2798665205584925
F1.5709435939788818
F9.58738019107841e-05
tp95
sg9
(lp96
F0.0
aF0.0
aF0.0
aF0.0
aF0.0
aF0.0
asg11
I01
sg12
g13
sg14
I00
sg15
g16
sa(dp97
g2
F0.0
sg3
(lp98
F0.16400071297170093
aF0.45589134588874836
aF0.43195447528077274
aF3.131634413032162
aF0.00012258417166395537
aF-0.00022904329579430822
asg5
I0
sg6
F0.0
sg7
(F-1.5709522406207483
F-1.2340033690081995
F-2.226832691823141
F-1.2615111509906214
F1.5709196329116821
F7.190534961409867e-05
tp99
sg9
(lp100
F0.0
aF0.0
aF0.0
aF0.0
aF0.0
aF0.0
asg11
I01
sg12
g13
sg14
I00
sg15
g16
sa(dp101
g2
F0.0
sg3
(lp102
F0.16401068585818646
aF0.45580614020788124
aF0.4319885141105584
aF3.131407444129275
aF0.00013497611965366242
aF-0.0002055768144002913
asg5
I0
sg6
F0.0
sg7
(F-1.5709765593158167
F-1.2338469664203089
F-2.2268202940570276
F-1.26190692583193
F1.5709315538406372
F2.3968450477696024e-05
tp103
sg9
(lp104
F0.0
aF0.0
aF-0.036859130859375
aF0.0
aF0.0
aF0.0
asg11
I01
sg12
g13
sg14
I00
sg15
g16
sa(dp105
g2
F0.0
sg3
(lp106
F0.16402564265648975
aF0.45572355702621353
aF0.4295925749461251
aF3.131173786578597
aF0.00014651024005012938
aF-0.00028895404064352507
asg5
I0
sg6
F0.0
sg7
(F-1.5710118452655237
F-1.2352851072894495
F-2.2302802244769495
F-1.257242504750387
F1.5709435939788818
F7.190534961409867e-05
tp107
sg9
(lp108
F0.0
aF0.0
aF-0.19842529296875
aF0.0
aF0.0
aF0.0
asg11
I01
sg12
g13
sg14
I00
sg15
g16
sa(dp109
g2
F0.0
sg3
(lp110
F0.16401058418441983
aF0.4552420354180213
aF0.413767077338577
aF3.130111399105637
aF0.00013480556810023598
aF-0.00021773516228090913
asg5
I0
sg6
F0.0
sg7
(F-1.5709765593158167
F-1.2454589048968714
F-2.2529624144183558
F-1.2254489103900355
F1.5709315538406372
F3.5952674807049334e-05
tp111
sg9
(lp112
F0.0
aF0.0
aF-0.19999389648437502
aF0.0
aF0.0
aF0.0
asg11
I01
sg12
g13
sg14
I00
sg15
g16
sa(dp113
g2
F0.0
sg3
(lp114
F0.1640015579291158
aF0.4548690369213302
aF0.3947776963927414
aF3.1306898032769443
aF0.00017095696250667806
aF-0.0001936684138159709
asg5
I0
sg6
F0.0
sg7
(F-1.5709641615497034
F-1.2595513502704065
F-2.2797611395465296
F-1.183979336415426
F1.5709675550460815
F2.3968450477696024e-05
tp115
sg9
(lp116
F0.0
aF0.0
aF-0.19999389648437502
aF0.0
aF0.0
aF0.0
asg11
I01
sg12
g13
sg14
I00
sg15
g16
sa(dp117
g2
F0.0
sg3
(lp118
F0.16403068733504028
aF0.4540158875087952
aF0.37433625561821604
aF3.1313788265582727
aF0.00014652529419797238
aF-0.00030084492764066663
asg5
I0
sg6
F0.0
sg7
(F-1.5710237661944788
F-1.2759926954852503
F-2.308343235646383
F-1.1382668654071253
F1.5709435939788818
F7.190534961409867e-05
tp119
sg9
(lp120
F0.0
aF0.0
aF-0.138818359375
aF0.0
aF0.0
aF0.0
asg11
I01
sg12
g13
sg14
I00
sg15
g16
sa(dp121
g2
F0.0
sg3
(lp122
F0.1640091827859956
aF0.4536258644131702
aF0.3596780199831587
aF3.131345686375511
aF0.00014652286144490998
aF-0.00025364290480646114
asg5
I0
sg6
F0.0
sg7
(F-1.5709765593158167
F-1.28967792192568
F-2.3278637568103235
F-1.1050942579852503
F1.5709435939788818
F7.190534961409867e-05
tp123
sg9
(lp124
F0.0
aF0.0
aF0.0
aF0.0
aF0.0
aF0.0
asg11
I01
sg12
g13
sg14
I00
sg15
g16
sa(dp125
g2
F0.0
sg3
(lp126
F0.16400022235427805
aF0.45346016470307465
aF0.3583832087548203
aF3.13148134172309
aF0.00018229180657091472
aF-0.0002535716858363816
asg5
I0
sg6
F0.0
sg7
(F-1.5709641615497034
F-1.2906721274005335
F-2.3297789732562464
F-1.1020491758929651
F1.5709794759750366
F8.388957940042019e-05
tp127
sg9
(lp128
F0.0
aF0.0
aF0.0
aF0.0
aF0.0
aF0.0
asg11
I01
sg12
g13
sg14
I00
sg15
g16
sa(dp129
g2
F0.0
sg3
(lp130
F0.16401995440655445
aF0.4534082281709303
aF0.3583952404263021
aF3.131002126956587
aF0.0001466245487061341
aF-0.0002655515473044812
asg5
I0
sg6
F0.0
sg7
(F-1.5710004011737269
F-1.2906001249896448
F-2.3296950499164026
F-1.1026843229876917
F1.5709435939788818
F5.992112710373476e-05
tp131
sg9
(lp132
F0.0
aF0.0
aF0.0
aF0.0
aF0.0
aF0.0
asg11
I01
sg12
g13
sg14
I00
sg15
g16
sa(dp133
g2
F0.0
sg3
(lp134
F0.16402217121832838
aF0.4534454765897589
aF0.357928784369743
aF3.13110965520631
aF0.00012267140771164074
aF-0.0002652846016629178
asg5
I0
sg6
F0.0
sg7
(F-1.5710004011737269
F-1.2911518255816858
F-2.3302698771106165
F-1.101450268422262
F1.5709196329116821
F5.992112710373476e-05
tp135
sg9
(lp136
F0.0
aF0.0
aF-0.19999389648437502
aF0.0
aF0.0
aF0.0
asg11
I01
sg12
g13
sg14
I00
sg15
g16
sa(dp137
g2
F0.0
sg3
(lp138
F0.16401765723920866
aF0.4529772382173698
aF0.34413984079126464
aF3.1302825781997448
aF0.00017053980967345278
aF-0.00026592803020662184
asg5
I0
sg6
F0.0
sg7
(F-1.5710004011737269
F-1.3051727453814905
F-2.3480427900897425
F-1.0704835096942347
F1.5709675550460815
F5.992112710373476e-05
tp139
sg9
(lp140
F0.0
aF0.0
aF-0.19999389648437502
aF0.0
aF0.0
aF0.0
asg11
I01
sg12
g13
sg14
I00
sg15
g16
sa(dp141
g2
F0.0
sg3
(lp142
F0.16400896654391023
aF0.45242610890187956
aF0.32494924356358545
aF3.1303076153868834
aF0.00014671705622487633
aF-0.0002298280439426876
asg5
I0
sg6
F0.0
sg7
(F-1.5709765593158167
F-1.326742951069967
F-2.372206751500265
F-1.02472430864443
F1.5709435939788818
F4.793690095539205e-05
tp143
sg9
(lp144
F0.0
aF0.0
aF-0.19999389648437502
aF0.0
aF0.0
aF0.0
asg11
I01
sg12
g13
sg14
I00
sg15
g16
sa(dp145
g2
F0.0
sg3
(lp146
F0.16401959583334325
aF0.45165121073221465
aF0.30493828841703735
aF3.130513607283682
aF0.00014659449840522125
aF-0.0002656231688419441
asg5
I0
sg6
F0.0
sg7
(F-1.5710004011737269
F-1.3513701597796839
F-2.396729056035177
F-0.9753688017474573
F1.5709435939788818
F5.992112710373476e-05
tp147
sg9
(lp148
F0.0
aF0.0
aF0.0
aF0.0
aF0.0
aF0.0
asg11
I01
sg12
g13
sg14
I00
sg15
g16
sa(dp149
g2
F0.0
sg3
(lp150
F0.16400208336971986
aF0.4513856086445147
aF0.29820659710655656
aF3.130949910654502
aF0.0001584140497880537
aF-0.00024142999190440232
asg5
I0
sg6
F0.0
sg7
(F-1.5709641615497034
F-1.3602259794818323
F-2.4048553148852747
F-0.9579504171954554
F1.570955514907837
F7.190534961409867e-05
tp151
sg9
(lp152
F0.0
aF0.0
aF0.0
aF0.0
aF0.0
aF0.0
asg11
I01
sg12
g13
sg14
I00
sg15
g16
sa(dp153
g2
F0.0
sg3
(lp154
F0.16399779644894338
aF0.451354961771085
aF0.29862150823706857
aF3.131225283237078
aF0.00014638977895878186
aF-0.00024132543661043837
asg5
I0
sg6
F0.0
sg7
(F-1.5709522406207483
F-1.3595669905291956
F-2.4045079390155237
F-0.9586814085589808
F1.5709435939788818
F8.388957940042019e-05
tp155
sg9
(lp156
F0.0
aF0.0
aF0.0
aF0.0
aF0.0
aF0.0
asg11
I01
sg12
g13
sg14
I00
sg15
g16
sa(dp157
g2
F0.0
sg3
(lp158
F0.16400971491448776
aF0.4512452467251736
aF0.29856408093990194
aF3.130505972596772
aF0.0001943803554880201
aF-0.0002662181308849617
asg5
I0
sg6
F0.0
sg7
(F-1.5709884802447718
F-1.3594592253314417
F-2.404532019292013
F-0.9594844023333948
F1.5709915161132812
F7.190534961409867e-05
tp159
sg9
(lp160
F0.0
aF0.0
aF-0.055682373046875004
aF0.0
aF0.0
aF0.0
asg11
I01
sg12
g13
sg14
I00
sg15
g16
sa(dp161
g2
F0.0
sg3
(lp162
F0.16401413967524683
aF0.4512782444820064
aF0.2952397460223768
aF3.1309575391708555
aF0.00014636690526011572
aF-0.00027760425251157814
asg5
I0
sg6
F0.0
sg7
(F-1.5709884802447718
F-1.3642647902118128
F-2.408325735722677
F-0.9504335562335413
F1.5709435939788818
F8.388957940042019e-05
tp163
sg9
(lp164
F0.0
aF0.0
aF-0.17175903320312502
aF0.0
aF0.0
aF0.0
asg11
I01
sg12
g13
sg14
I00
sg15
g16
sa(dp165
g2
F0.0
sg3
(lp166
F0.16400533444751292
aF0.4510445676649053
aF0.2799906777831256
aF3.1303941595776874
aF0.00012249337832867958
aF-0.00024111620365310337
asg5
I0
sg6
F0.0
sg7
(F-1.5709641615497034
F-1.3865669409381312
F-2.425187889729635
F-0.9118326346026819
F1.5709196329116821
F7.190534961409867e-05
tp167
sg9
(lp168
F0.0
aF0.0
aF0.0
aF0.0
aF0.0
aF0.0
asg11
I01
sg12
g13
sg14
I00
sg15
g16
sa(dp169
g2
F0.0
sg3
(lp170
F0.16401833741740166
aF0.4508706109159409
aF0.2763805075305407
aF3.1313261313815737
aF0.00015819565862908242
aF-0.0003015772010015228
asg5
I0
sg6
F0.0
sg7
(F-1.5710004011737269
F-1.3918641249286097
F-2.4295201937304896
F-0.9012711683856409
F1.570955514907837
F9.58738019107841e-05
tp171
sg9
(lp172
F0.0
aF0.0
aF0.0
aF0.0
aF0.0
aF0.0
asg11
I01
sg12
g13
sg14
I00
sg15
g16
sa(dp173
g2
F0.0
sg3
(lp174
F0.16400646266466326
aF0.45079122695151863
aF0.27646079083237174
aF3.1311821376498203
aF0.00017096966058501901
aF-0.00020598200891416675
asg5
I0
sg6
F0.0
sg7
(F-1.5709765593158167
F-1.391576115285055
F-2.4295201937304896
F-0.901703182850973
F1.5709675550460815
F2.3968450477696024e-05
tp175
sg9
(lp176
F0.0
aF0.0
aF0.0
aF0.0
aF0.0
aF0.0
asg11
I01
sg12
g13
sg14
I00
sg15
g16
sa(dp177
g2
F0.0
sg3
(lp178
F0.1640129387628449
aF0.4507484653652745
aF0.27642584111948143
aF3.130762271437628
aF0.00015814065554837345
aF-0.00028974545662097605
asg5
I0
sg6
F0.0
sg7
(F-1.5709884802447718
F-1.3915522734271448
F-2.4295085112201136
F-0.9021585623370569
F1.570955514907837
F9.58738019107841e-05
tp179
sg9
(lp180
F0.0
aF0.0
aF0.0
aF0.0
aF0.0
aF0.0
asg11
I01
sg12
g13
sg14
I00
sg15
g16
sa.