(lp0
(dp1
S'start_gripper_pos'
p2
F0.0
sS'curr_pos'
p3
(lp4
F0.16402309727103725
aF0.45949748894858067
aF0.5960608257748362
aF3.1308266681411583
aF0.00024348070333839116
aF-0.00019447059997000472
asS'gripper_ac'
p5
I0
sS'curr_gripper_pos'
p6
F0.0
sS'curr_q'
p7
(F-1.5710237661944788
F-1.1900370756732386
F-1.9619858900653284
F-1.571132008229391
F1.5710394382476807
F-3.5587941304981996e-05
tp8
sS'xdot_h'
p9
(lp10
F0.0
aF0.0
aF0.0
aF0.0
aF0.0
aF0.0
asS'trans_mode'
p11
I01
sS'start_pos'
p12
(lp13
F0.164012415111842
aF0.4595200684774694
aF0.5961832811253169
aF3.1309949919405113
aF0.00018364762990762622
aF-0.00014611114904564067
asS'slow_mode'
p14
I00
sS'start_q'
p15
(F-1.5709765593158167
F-1.1900251547442835
F-1.9618056456195276
F-1.571155850087301
F1.571015477180481
F-5.990663637334137e-05
tp16
sa(dp17
g2
F0.0
sg3
(lp18
F0.16399570877324265
aF0.4595071354937397
aF0.5952665612038506
aF3.131140903837557
aF0.0002434703313440969
aF-0.00013478944656044358
asg5
I0
sg6
F0.0
sg7
(F-1.5709641615497034
F-1.1900013128863733
F-1.9634583632098597
F-1.569381062184469
F1.5710394382476807
F-3.5587941304981996e-05
tp19
sg9
(lp20
F0.0
aF0.0
aF-0.19999389648437502
aF0.0
aF0.0
aF0.0
asg11
I01
sg12
g13
sg14
I00
sg15
g16
sa(dp21
g2
F0.0
sg3
(lp22
F0.16399130814906504
aF0.4592977023322064
aF0.5806016194321449
aF3.1308042620276613
aF0.00023170435916537152
aF-9.85033111867543e-05
asg5
I0
sg6
F0.0
sg7
(F-1.5709522406207483
F-1.1903241316424769
F-1.9888294378863733
F-1.5440238157855433
F1.571027398109436
F-5.990663637334137e-05
tp23
sg9
(lp24
F0.0
aF0.0
aF-0.19999389648437502
aF0.0
aF0.0
aF0.0
asg11
I01
sg12
g13
sg14
I00
sg15
g16
sa(dp25
g2
F0.0
sg3
(lp26
F0.16400460287954885
aF0.4588279386603366
aF0.5597332910576528
aF3.1311895400323424
aF0.0002074694664902924
aF-0.0001468008531077212
asg5
I0
sg6
F0.0
sg7
(F-1.5709765593158167
F-1.1915348211871546
F-2.02470046678652
F-1.506556812916891
F1.5710034370422363
F-3.5587941304981996e-05
tp27
sg9
(lp28
F0.0
aF0.0
aF-0.19999389648437502
aF0.0
aF0.0
aF0.0
asg11
I01
sg12
g13
sg14
I00
sg15
g16
sa(dp29
g2
F0.0
sg3
(lp30
F0.1640000930533336
aF0.4583208074605476
aF0.5405489033504443
aF3.1315242813182103
aF0.00025537796936620383
aF-0.00014721389656405248
asg5
I0
sg6
F0.0
sg7
(F-1.5709765593158167
F-1.1937873999225062
F-2.0570738951312464
F-1.4715960661517542
F1.5710513591766357
F-3.5587941304981996e-05
tp31
sg9
(lp32
F0.0
aF0.0
aF-0.19999389648437502
aF0.0
aF0.0
aF0.0
asg11
I01
sg12
g13
sg14
I00
sg15
g16
sa(dp33
g2
F0.0
sg3
(lp34
F0.16399541393745096
aF0.45775052498854624
aF0.5197151485090814
aF3.1314322543686886
aF0.0002435866574475073
aF-0.00012232138699660208
asg5
I0
sg6
F0.0
sg7
(F-1.5709641615497034
F-1.1977179686175745
F-2.0913851896869105
F-1.433446232472555
F1.5710394382476807
F-4.7985707418263246e-05
tp35
sg9
(lp36
F0.0
aF0.0
aF-0.19999389648437502
aF0.0
aF0.0
aF0.0
asg11
I01
sg12
g13
sg14
I00
sg15
g16
sa(dp37
g2
F0.0
sg3
(lp38
F0.1640031164796433
aF0.45711693149414867
aF0.50050209985982
aF3.131302086111746
aF0.0002797180184050159
aF-0.00012320043507633822
asg5
I0
sg6
F0.0
sg7
(F-1.5709884802447718
F-1.2025707403766077
F-2.1224501768695276
F-1.397658650075094
F1.5710753202438354
F-7.18275653284195e-05
tp39
sg9
(lp40
F0.0
aF0.0
aF-0.19999389648437502
aF0.0
aF0.0
aF0.0
asg11
I01
sg12
g13
sg14
I00
sg15
g16
sa(dp41
g2
F0.0
sg3
(lp42
F0.16399740073585778
aF0.45642538961352186
aF0.47979160967877754
aF3.1313912425567527
aF0.00021950223077301149
aF-0.00013448406495619953
asg5
I0
sg6
F0.0
sg7
(F-1.5709641615497034
F-1.2093413511859339
F-2.1552866140948694
F-1.357962433491842
F1.571015477180481
F-3.5587941304981996e-05
tp43
sg9
(lp44
F0.0
aF0.0
aF-0.19999389648437502
aF0.0
aF0.0
aF0.0
asg11
I01
sg12
g13
sg14
I00
sg15
g16
sa(dp45
g2
F0.0
sg3
(lp46
F0.16399391072660213
aF0.4553428725405168
aF0.45410818150790505
aF3.1307503745856273
aF0.00025540344622145537
aF-0.0001350137788879573
asg5
I0
sg6
F0.0
sg7
(F-1.5709641615497034
F-1.2198627630816858
F-2.1949809233294886
F-1.308387581502096
F1.5710513591766357
F-3.5587941304981996e-05
tp47
sg9
(lp48
F0.0
aF0.0
aF-0.19999389648437502
aF0.0
aF0.0
aF0.0
asg11
I01
sg12
g13
sg14
I00
sg15
g16
sa(dp49
g2
F0.0
sg3
(lp50
F0.16400165614845985
aF0.45473602934076174
aF0.4350587592182743
aF3.130692679368561
aF0.00023158082835327454
aF-0.00013476808126070051
asg5
I0
sg6
F0.0
sg7
(F-1.5709765593158167
F-1.2298687140094202
F-2.2235167662249964
F-1.2699034849749964
F1.571027398109436
F-4.7985707418263246e-05
tp51
sg9
(lp52
F0.0
aF0.0
aF-0.19999389648437502
aF0.0
aF0.0
aF0.0
asg11
I01
sg12
g13
sg14
I00
sg15
g16
sa(dp53
g2
F0.0
sg3
(lp54
F0.16399698334475957
aF0.4539385523087147
aF0.41462692679274393
aF3.1311070503258858
aF0.0002196416956976417
aF-0.00012214936280535577
asg5
I0
sg6
F0.0
sg7
(F-1.5709641615497034
F-1.2421515623675745
F-2.2536681334124964
F-1.2270548979388636
F1.571015477180481
F-4.7985707418263246e-05
tp55
sg9
(lp56
F0.0
aF0.0
aF-0.19999389648437502
aF0.0
aF0.0
aF0.0
asg11
I01
sg12
g13
sg14
I00
sg15
g16
sa(dp57
g2
F0.0
sg3
(lp58
F0.16399578836519021
aF0.4533673592094269
aF0.39572158703355814
aF3.131300156056784
aF0.0002309359373358765
aF-0.00018219639832534209
asg5
I0
sg6
F0.0
sg7
(F-1.5709641615497034
F-1.255728546773092
F-2.2805636564837855
F-1.1863892714129847
F1.571027398109436
F1.1984225238848012e-05
tp59
sg9
(lp60
F0.0
aF0.0
aF-0.19999389648437502
aF0.0
aF0.0
aF0.0
asg11
I01
sg12
g13
sg14
I00
sg15
g16
sa(dp61
g2
F0.0
sg3
(lp62
F0.1639945348968116
aF0.4525131650985729
aF0.37530417134590255
aF3.13165470181358
aF0.0002436949949055501
aF-0.00011034686300624979
asg5
I0
sg6
F0.0
sg7
(F-1.5709641615497034
F-1.2720378080951136
F-2.3091211954699915
F-1.141167942677633
F1.5710394382476807
F-5.990663637334137e-05
tp63
sg9
(lp64
F0.0
aF0.0
aF-0.19999389648437502
aF0.0
aF0.0
aF0.0
asg11
I01
sg12
g13
sg14
I00
sg15
g16
sa(dp65
g2
F0.0
sg3
(lp66
F0.16399013431492307
aF0.4517692627978001
aF0.3547474424516799
aF3.1315409782178403
aF0.00023178182450173446
aF-8.641230016432269e-05
asg5
I0
sg6
F0.0
sg7
(F-1.5709522406207483
F-1.2910917440997522
F-2.336684528981344
F-1.0946643988238733
F1.571027398109436
F-7.18275653284195e-05
tp67
sg9
(lp68
F0.0
aF0.0
aF-0.19999389648437502
aF0.0
aF0.0
aF0.0
asg11
I01
sg12
g13
sg14
I00
sg15
g16
sa(dp69
g2
F0.0
sg3
(lp70
F0.16400522499755146
aF0.4508731284869331
aF0.33578602839826865
aF3.1313621622088177
aF0.00024371180196228575
aF-0.000134736850910268
asg5
I0
sg6
F0.0
sg7
(F-1.5709884802447718
F-1.310493294392721
F-2.361507240925924
F-1.0506189505206507
F1.5710394382476807
F-5.990663637334137e-05
tp71
sg9
(lp72
F0.0
aF0.0
aF-0.19999389648437502
aF0.0
aF0.0
aF0.0
asg11
I01
sg12
g13
sg14
I00
sg15
g16
sa(dp73
g2
F0.0
sg3
(lp74
F0.16399300550276347
aF0.4499495001707477
aF0.3151441686988626
aF3.1311037140981086
aF0.00025552187048914234
aF-0.00012252645315571106
asg5
I0
sg6
F0.0
sg7
(F-1.5709641615497034
F-1.334268871937887
F-2.387477699910299
F-1.0011313597308558
F1.5710513591766357
F-4.7985707418263246e-05
tp75
sg9
(lp76
F0.0
aF0.0
aF-0.19999389648437502
aF0.0
aF0.0
aF0.0
asg11
I01
sg12
g13
sg14
I00
sg15
g16
sa(dp77
g2
F0.0
sg3
(lp78
F0.16400377128309343
aF0.4490277457712583
aF0.29598667059294725
aF3.130516015329012
aF0.00025568049526587995
aF-0.00013507512853420099
asg5
I0
sg6
F0.0
sg7
(F-1.5709884802447718
F-1.3587515989886683
F-2.4105997721301478
F-0.9541142622577112
F1.5710513591766357
F-5.990663637334137e-05
tp79
sg9
(lp80
F0.0
aF0.0
aF-0.15293579101562502
aF0.0
aF0.0
aF0.0
asg11
I01
sg12
g13
sg14
I00
sg15
g16
sa(dp81
g2
F0.0
sg3
(lp82
F0.1639949556237709
aF0.4484058276887105
aF0.27877446523496097
aF3.1308092660567475
aF0.00023157552623112435
aF-0.00012234331623879575
asg5
I0
sg6
F0.0
sg7
(F-1.5709641615497034
F-1.3832953611956995
F-2.4304538408862513
F-0.9094231764422815
F1.571027398109436
F-4.7985707418263246e-05
tp83
sg9
(lp84
F0.0
aF0.0
aF0.0
aF0.0
aF0.0
aF0.0
asg11
I01
sg12
g13
sg14
I00
sg15
g16
sa(dp85
g2
F0.0
sg3
(lp86
F0.16400805980054112
aF0.44835172737530543
aF0.276295381035932
aF3.1315826922775214
aF0.00020745630672160467
aF-0.00015864021764331026
asg5
I0
sg6
F0.0
sg7
(F-1.5709884802447718
F-1.3870824019061487
F-2.433373991643087
F-0.9019425551043909
F1.5710034370422363
F-3.5587941304981996e-05
tp87
sg9
(lp88
F0.0
aF0.0
aF0.0
aF0.0
aF0.0
aF0.0
asg11
I01
sg12
g13
sg14
I00
sg15
g16
sa(dp89
g2
F0.0
sg3
(lp90
F0.16399714458127146
aF0.44828515959445875
aF0.2759803537996034
aF3.1314155583777805
aF0.00020734058661833076
aF-0.0001462765073491548
asg5
I0
sg6
F0.0
sg7
(F-1.5709641615497034
F-1.3874419371234339
F-2.4337690512286585
F-0.9013550917254847
F1.5710034370422363
F-2.366701234990387e-05
tp91
sg9
(lp92
F0.0
aF0.0
aF-0.196856689453125
aF0.0
aF0.0
aF0.0
asg11
I01
sg12
g13
sg14
I00
sg15
g16
sa(dp93
g2
F0.0
sg3
(lp94
F0.16400576487401824
aF0.44790565713466163
aF0.26555576754802424
aF3.1304201696870493
aF0.00023172639301183556
aF-0.0001348319352328685
asg5
I0
sg6
F0.0
sg7
(F-1.5709884802447718
F-1.4035609404193323
F-2.444982115422384
F-0.8750184218036097
F1.571027398109436
F-5.990663637334137e-05
tp95
sg9
(lp96
F0.0
aF0.0
aF0.0
aF0.0
aF0.0
aF0.0
asg11
I01
sg12
g13
sg14
I00
sg15
g16
sa(dp97
g2
F0.0
sg3
(lp98
F0.16399048700364313
aF0.4481067491590766
aF0.26099841641046095
aF3.131293499708986
aF0.00027959583693184744
aF-0.00011080443803303921
asg5
I0
sg6
F0.0
sg7
(F-1.5709641615497034
F-1.4115660826312464
F-2.449578110371725
F-0.8615439573871058
F1.5710753202438354
F-5.990663637334137e-05
tp99
sg9
(lp100
F0.0
aF0.0
aF0.0
aF0.0
aF0.0
aF0.0
asg11
I01
sg12
g13
sg14
I00
sg15
g16
sa(dp101
g2
F0.0
sg3
(lp102
F0.16399599012629465
aF0.44802090441192954
aF0.2611771897863347
aF3.131269421242917
aF0.0002200034563244282
aF-8.63528196040866e-05
asg5
I0
sg6
F0.0
sg7
(F-1.5709641615497034
F-1.4110987822162073
F-2.4495182673083704
F-0.8620951811419886
F1.571015477180481
F-8.374849428349762e-05
tp103
sg9
(lp104
F0.0
aF0.0
aF0.0
aF0.0
aF0.0
aF0.0
asg11
I01
sg12
g13
sg14
I00
sg15
g16
sa(dp105
g2
F0.0
sg3
(lp106
F0.16400044001583178
aF0.44798865213630035
aF0.2604486873923196
aF3.131379804492109
aF0.00023167127860317265
aF-0.00012268866019240837
asg5
I0
sg6
F0.0
sg7
(F-1.5709765593158167
F-1.4122727552997034
F-2.450331513081686
F-0.859997574483053
F1.571027398109436
F-5.990663637334137e-05
tp107
sg9
(lp108
F0.0
aF0.0
aF-0.09176025390625
aF0.0
aF0.0
aF0.0
asg11
I01
sg12
g13
sg14
I00
sg15
g16
sa(dp109
g2
F0.0
sg3
(lp110
F0.16399374432247396
aF0.4478028819771974
aF0.25283689657251013
aF3.1306283156160637
aF0.00024401527666211993
aF-8.675659408867984e-05
asg5
I0
sg6
F0.0
sg7
(F-1.5709641615497034
F-1.4249885717975062
F-2.4580510298358362
F-0.840313736592428
F1.5710394382476807
F-8.374849428349762e-05
tp111
sg9
(lp112
F0.0
aF0.0
aF0.0
aF0.0
aF0.0
aF0.0
asg11
I01
sg12
g13
sg14
I00
sg15
g16
sa(dp113
g2
F0.0
sg3
(lp114
F0.16400372143779507
aF0.4478394210816667
aF0.2518133189518179
aF3.1313018301269366
aF0.00019530006526897732
aF-0.00017049547751229823
asg5
I0
sg6
F0.0
sg7
(F-1.5709765593158167
F-1.4268701712237757
F-2.4591756502734583
F-0.8366339842425745
F1.5709915161132812
F-1.1746083394825746e-05
tp115
sg9
(lp116
F0.0
aF0.0
aF0.0
aF0.0
aF0.0
aF0.0
asg11
I01
sg12
g13
sg14
I00
sg15
g16
sa(dp117
g2
F0.0
sg3
(lp118
F0.16399062165579467
aF0.4478456361118701
aF0.2518160551718232
aF3.131325685407037
aF0.00021987648161724048
aF-8.633981285499364e-05
asg5
I0
sg6
F0.0
sg7
(F-1.5709522406207483
F-1.4268701712237757
F-2.4591756502734583
F-0.8366101423846644
F1.571015477180481
F-7.18275653284195e-05
tp119
sg9
(lp120
F0.0
aF0.0
aF0.0
aF0.0
aF0.0
aF0.0
asg11
I01
sg12
g13
sg14
I00
sg15
g16
sa(dp121
g2
F0.0
sg3
(lp122
F0.16399375337269387
aF0.4478568068257447
aF0.2516477091461597
aF3.1314577680617193
aF0.0002437063114857358
aF-0.00011039485584950277
asg5
I0
sg6
F0.0
sg7
(F-1.5709641615497034
F-1.4271939436541956
F-2.459355417882101
F-0.8359745184527796
F1.5710394382476807
F-5.990663637334137e-05
tp123
sg9
(lp124
F0.0
aF0.0
aF-0.17646484375000002
aF0.0
aF0.0
aF0.0
asg11
I01
sg12
g13
sg14
I00
sg15
g16
sa(dp125
g2
F0.0
sg3
(lp126
F0.16400364859915467
aF0.4474352942804424
aF0.24280535616680465
aF3.13022990250384
aF0.00019544584213949945
aF-0.00015878467121215734
asg5
I0
sg6
F0.0
sg7
(F-1.5709765593158167
F-1.4421866575824183
F-2.4682708422290247
F-0.8132942358600062
F1.5709915161132812
F-2.366701234990387e-05
tp127
sg9
(lp128
F0.0
aF0.0
aF0.0
aF0.0
aF0.0
aF0.0
asg11
I01
sg12
g13
sg14
I00
sg15
g16
sa(dp129
g2
F0.0
sg3
(lp130
F0.1639895114011104
aF0.4477741693108823
aF0.24017964642859874
aF3.131314236620299
aF0.0002315525248701305
aF-0.00011030545436936838
asg5
I0
sg6
F0.0
sg7
(F-1.5709522406207483
F-1.4476631323443812
F-2.470532480870382
F-0.8044717947589319
F1.571027398109436
F-4.7985707418263246e-05
tp131
sg9
(lp132
F0.0
aF0.0
aF0.0
aF0.0
aF0.0
aF0.0
asg11
I01
sg12
g13
sg14
I00
sg15
g16
sa(dp133
g2
F0.0
sg3
(lp134
F0.163988386795903
aF0.4476811404086075
aF0.24024401755345917
aF3.131134228117148
aF0.00024347055193990258
aF-0.00012287014294457642
asg5
I0
sg6
F0.0
sg7
(F-1.5709522406207483
F-1.4473636786090296
F-2.4705684820758265
F-0.8049152533160608
F1.5710394382476807
F-3.5587941304981996e-05
tp135
sg9
(lp136
F0.0
aF0.0
aF0.0
aF0.0
aF0.0
aF0.0
asg11
I01
sg12
g13
sg14
I00
sg15
g16
sa(dp137
g2
F0.0
sg3
(lp138
F0.16399058976479428
aF0.44764110888114605
aF0.24022612420899028
aF3.130966624398571
aF0.00021977477883582076
aF-9.83390219975934e-05
asg5
I0
sg6
F0.0
sg7
(F-1.5709522406207483
F-1.447315518056051
F-2.470604483281271
F-0.8050950209247034
F1.571015477180481
F-5.990663637334137e-05
tp139
sg9
(lp140
F0.0
aF0.0
aF0.0
aF0.0
aF0.0
aF0.0
asg11
I01
sg12
g13
sg14
I00
sg15
g16
sa(dp141
g2
F0.0
sg3
(lp142
F0.16399591961295437
aF0.44760079607548114
aF0.23894443516002878
aF3.131149486111854
aF0.00021951028710237786
aF-0.00013453713195924066
asg5
I0
sg6
F0.0
sg7
(F-1.5709641615497034
F-1.4496167341815394
F-2.4719207922564905
F-0.8012946287738245
F1.571015477180481
F-3.5587941304981996e-05
tp143
sg9
(lp144
F0.0
aF0.0
aF0.0
aF0.0
aF0.0
aF0.0
asg11
I01
sg12
g13
sg14
I00
sg15
g16
sa(dp145
g2
F0.0
sg3
(lp146
F0.16399168347157186
aF0.44753597100509956
aF0.23287253015486858
aF3.1308738788755166
aF0.00020774067108467653
aF-9.823035214613932e-05
asg5
I0
sg6
F0.0
sg7
(F-1.5709522406207483
F-1.460858170186178
F-2.477617088948385
F-0.7846325079547327
F1.5710034370422363
F-5.990663637334137e-05
tp147
sg9
(lp148
F0.0
aF0.0
aF0.0
aF0.0
aF0.0
aF0.0
asg11
I01
sg12
g13
sg14
I00
sg15
g16
sa(dp149
g2
F0.0
sg3
(lp150
F0.16400789817276556
aF0.44751063532551294
aF0.23224593404695548
aF3.13107844449739
aF0.00020785420367073042
aF-0.0001225072110366644
asg5
I0
sg6
F0.0
sg7
(F-1.5709884802447718
F-1.4620211760150355
F-2.4782751242267054
F-0.7826069037066858
F1.5710034370422363
F-7.18275653284195e-05
tp151
sg9
(lp152
F0.0
aF0.0
aF0.0
aF0.0
aF0.0
aF0.0
asg11
I01
sg12
g13
sg14
I00
sg15
g16
sa(dp153
g2
F0.0
sg3
(lp154
F0.16399260162346962
aF0.4475431910773621
aF0.23228882369580262
aF3.1311742797892914
aF0.0002552653157632772
aF-0.00014682579668691257
asg5
I0
sg6
F0.0
sg7
(F-1.5709641615497034
F-1.461996857319967
F-2.47821551958193
F-0.7825949827777308
F1.5710513591766357
F-2.366701234990387e-05
tp155
sg9
(lp156
F0.0
aF0.0
aF0.0
aF0.0
aF0.0
aF0.0
asg11
I01
sg12
g13
sg14
I00
sg15
g16
sa(dp157
g2
F0.0
sg3
(lp158
F0.16398947192116411
aF0.4475209632572391
aF0.23227410983536134
aF3.1310183562860807
aF0.00023143491401949896
aF-0.00012277104079661826
asg5
I0
sg6
F0.0
sg7
(F-1.5709522406207483
F-1.461973015462057
F-2.478227440510885
F-0.7827628294574183
F1.571027398109436
F-3.5587941304981996e-05
tp159
sg9
(lp160
F0.0
aF0.0
aF0.0
aF0.0
aF0.0
aF0.0
asg11
I01
sg12
g13
sg14
I00
sg15
g16
sa(dp161
g2
F0.0
sg3
(lp162
F0.1639894720491091
aF0.44752178387240515
aF0.23227263522927252
aF3.1309225148847397
aF0.00023157037289418074
aF-0.00011039616194201891
asg5
I0
sg6
F0.0
sg7
(F-1.5709522406207483
F-1.461973015462057
F-2.478203598652975
F-0.7828825155841272
F1.571027398109436
F-4.7985707418263246e-05
tp163
sg9
(lp164
F0.0
aF0.0
aF0.0
aF0.0
aF0.0
aF0.0
asg11
I01
sg12
g13
sg14
I00
sg15
g16
sa(dp165
g2
F0.0
sg3
(lp166
F0.16399590854955032
aF0.4475348857949124
aF0.23227363254638733
aF3.13087507428273
aF0.00021990781011661754
aF-9.835982756560326e-05
asg5
I0
sg6
F0.0
sg7
(F-1.5709641615497034
F-1.461996857319967
F-2.4781675974475306
F-0.7829421202289026
F1.571015477180481
F-7.18275653284195e-05
tp167
sg9
(lp168
F0.0
aF0.0
aF0.0
aF0.0
aF0.0
aF0.0
asg11
I01
sg12
g13
sg14
I00
sg15
g16
sa(dp169
g2
F0.0
sg3
(lp170
F0.16399260020655143
aF0.44753474874755755
aF0.232280336095472
aF3.130898912532184
aF0.00025553114434110675
aF-0.00012257878534217275
asg5
I0
sg6
F0.0
sg7
(F-1.5709641615497034
F-1.461984936391012
F-2.4781675974475306
F-0.7829301992999476
F1.5710513591766357
F-4.7985707418263246e-05
tp171
sg9
(lp172
F0.0
aF0.0
aF-0.046270751953125
aF0.0
aF0.0
aF0.0
asg11
I01
sg12
g13
sg14
I00
sg15
g16
sa(dp173
g2
F0.0
sg3
(lp174
F0.16401393807934952
aF0.4475173708395565
aF0.2289133454497543
aF3.131121836957319
aF0.00025564586906777037
aF-0.00015828526312204198
asg5
I0
sg6
F0.0
sg7
(F-1.5710118452655237
F-1.4684203306781214
F-2.4813149611102503
F-0.7731245199786585
F1.5710513591766357
F-5.990663637334137e-05
tp175
sg9
(lp176
F0.0
aF0.0
aF-0.02274169921875
aF0.0
aF0.0
aF0.0
asg11
I01
sg12
g13
sg14
I00
sg15
g16
sa(dp177
g2
F0.0
sg3
(lp178
F0.16400142643109114
aF0.4473634266012758
aF0.21947004032115308
aF3.130648338209068
aF0.0002199235569356587
aF-0.00011080745645081116
asg5
I0
sg6
F0.0
sg7
(F-1.5709765593158167
F-1.4866254965411585
F-2.489859406148092
F-0.7468484083758753
F1.571015477180481
F-7.18275653284195e-05
tp179
sg9
(lp180
F0.0
aF0.0
aF0.0
aF0.0
aF0.0
aF0.0
asg11
I01
sg12
g13
sg14
I00
sg15
g16
sa(dp181
g2
F0.0
sg3
(lp182
F0.16398832015015832
aF0.4472537159156565
aF0.21900450795352372
aF3.1311411452752695
aF0.00024359989648081154
aF-0.00011047137019963591
asg5
I0
sg6
F0.0
sg7
(F-1.5709522406207483
F-1.487380329762594
F-2.490565363560812
F-0.7448948065387171
F1.5710394382476807
F-4.7985707418263246e-05
tp183
sg9
(lp184
F0.0
aF0.0
aF0.0
aF0.0
aF0.0
aF0.0
asg11
I01
sg12
g13
sg14
I00
sg15
g16
sa(dp185
g2
F0.0
sg3
(lp186
F0.16399476297522816
aF0.44725805414079867
aF0.2190526413702422
aF3.1309616155327205
aF0.00023156859294706306
aF-0.00012230803638836184
asg5
I0
sg6
F0.0
sg7
(F-1.5709641615497034
F-1.4872844854937952
F-2.490469280873434
F-0.7452662626849573
F1.571027398109436
F-4.7985707418263246e-05
tp187
sg9
(lp188
F0.0
aF0.0
aF-0.0572509765625
aF0.0
aF0.0
aF0.0
asg11
I01
sg12
g13
sg14
I00
sg15
g16
sa(dp189
g2
F0.0
sg3
(lp190
F0.16400783981799574
aF0.44720696476797045
aF0.21555247260066132
aF3.131135898423763
aF0.00020760089766443278
aF-0.00014633582305223174
asg5
I0
sg6
F0.0
sg7
(F-1.5709884802447718
F-1.4942596594439905
F-2.4936166445361536
F-0.734969441090719
F1.5710034370422363
F-4.7985707418263246e-05
tp191
sg9
(lp192
F0.0
aF0.0
aF0.0
aF0.0
aF0.0
aF0.0
asg11
I01
sg12
g13
sg14
I00
sg15
g16
sa(dp193
g2
F0.0
sg3
(lp194
F0.1639829626550828
aF0.4470764873197246
aF0.20678625770354409
aF3.130120233870721
aF0.00024350393287113635
aF-0.00011119610846311703
asg5
I0
sg6
F0.0
sg7
(F-1.5709403196917933
F-1.5119975248919886
F-2.500976626073019
F-0.7108872572528284
F1.5710394382476807
F-3.5587941304981996e-05
tp195
sg9
(lp196
F0.0
aF0.0
aF0.0
aF0.0
aF0.0
aF0.0
asg11
I01
sg12
g13
sg14
I00
sg15
g16
sa(dp197
g2
F0.0
sg3
(lp198
F0.163996951668919
aF0.44713582533646123
aF0.20714898903148127
aF3.131078198553568
aF0.00020747318753552474
aF-0.0001344261871358145
asg5
I0
sg6
F0.0
sg7
(F-1.5709641615497034
F-1.5114224592791956
F-2.5008092562304896
F-0.7106717268573206
F1.5710034370422363
F-3.5587941304981996e-05
tp199
sg9
(lp200
F0.0
aF0.0
aF0.0
aF0.0
aF0.0
aF0.0
asg11
I01
sg12
g13
sg14
I00
sg15
g16
sa(dp201
g2
F0.0
sg3
(lp202
F0.16399141909470452
aF0.44711167794548745
aF0.20722925495410027
aF3.1309957077065227
aF0.00026743484869433105
aF-0.0001350787074133455
asg5
I0
sg6
F0.0
sg7
(F-1.5709641615497034
F-1.5112059752093714
F-2.500761095677511
F-0.7110188643084925
F1.5710633993148804
F-3.5587941304981996e-05
tp203
sg9
(lp204
F0.0
aF0.0
aF0.0
aF0.0
aF0.0
aF0.0
asg11
I01
sg12
g13
sg14
I00
sg15
g16
sa(dp205
g2
F0.0
sg3
(lp206
F0.16399694647085306
aF0.4471048539302268
aF0.20720992343767258
aF3.130935383349259
aF0.00020735091444666718
aF-0.00014637606950354456
asg5
I0
sg6
F0.0
sg7
(F-1.5709641615497034
F-1.5112298170672815
F-2.500773255025045
F-0.7110431830035608
F1.5710034370422363
F-2.366701234990387e-05
tp207
sg9
(lp208
F0.0
aF0.0
aF0.0
aF0.0
aF0.0
aF0.0
asg11
I01
sg12
g13
sg14
I00
sg15
g16
sa.