(lp0
(dp1
S'start_gripper_pos'
p2
F0.0
sS'curr_pos'
p3
(lp4
F0.16404857807002088
aF0.4594613893794624
aF0.5961188062902598
aF3.1309349017209787
aF0.0001472590276947816
aF-0.00026524832545861334
asS'gripper_ac'
p5
I0
sS'curr_gripper_pos'
p6
F0.0
sS'curr_q'
p7
(F-1.5710600058185022
F-1.18996507326235
F-1.961949650441305
F-1.571132008229391
F1.5709435939788818
F0.0
tp8
sS'xdot_h'
p9
(lp10
F0.0
aF0.0
aF-0.038427734375
aF0.0
aF0.0
aF0.0
asS'trans_mode'
p11
I01
sS'start_pos'
p12
(lp13
F0.16403519950900947
aF0.4594829226775932
aF0.5962023734615294
aF3.1310426833074287
aF0.0001722282213437341
aF-0.00014550244465675677
asS'slow_mode'
p14
I00
sS'start_q'
p15
(F-1.5710356871234339
F-1.189976994191305
F-1.961818043385641
F-1.571143929158346
F1.5709675550460815
F-9.566942323857575e-05
tp16
sa(dp17
g2
F0.0
sg3
(lp18
F0.16404636129380665
aF0.4594326989082505
aF0.5927348547032515
aF3.131038850131272
aF0.00017109244601901344
aF-0.000277469451472507
asg5
I0
sg6
F0.0
sg7
(F-1.5710600058185022
F-1.189976994191305
F-1.9678767363177698
F-1.5650890509234827
F1.5709675550460815
F1.1984225238848012e-05
tp19
sg9
(lp20
F0.0
aF0.0
aF-0.19999389648437502
aF0.0
aF0.0
aF0.0
asg11
I01
sg12
g13
sg14
I00
sg15
g16
sa(dp21
g2
F0.0
sg3
(lp22
F0.1640550335511879
aF0.45917763654080773
aF0.5757111574166158
aF3.1304919245272167
aF0.00019544021562153412
aF-0.000266021821483753
asg5
I0
sg6
F0.0
sg7
(F-1.5710838476764124
F-1.190563980733053
F-1.9971750418292444
F-1.535750691090719
F1.5709915161132812
F-2.366701234990387e-05
tp23
sg9
(lp24
F0.0
aF0.0
aF-0.19999389648437502
aF0.0
aF0.0
aF0.0
asg11
I01
sg12
g13
sg14
I00
sg15
g16
sa(dp25
g2
F0.0
sg3
(lp26
F0.16402405725343006
aF0.4586178873786079
aF0.5548917008735955
aF3.13080472308319
aF0.0001710892126176222
aF-0.00022934895543678095
asg5
I0
sg6
F0.0
sg7
(F-1.5710118452655237
F-1.19191819826235
F-2.0328782240497034
F-1.498380486165182
F1.5709675550460815
F1.1984225238848012e-05
tp27
sg9
(lp28
F0.0
aF0.0
aF-0.19999389648437502
aF0.0
aF0.0
aF0.0
asg11
I01
sg12
g13
sg14
I00
sg15
g16
sa(dp29
g2
F0.0
sg3
(lp30
F0.16403944099360793
aF0.45806706156624527
aF0.5355744041598889
aF3.1306378321032624
aF0.00018313839811618545
aF-0.0002537642155432385
asg5
I0
sg6
F0.0
sg7
(F-1.5710480848895472
F-1.1945183912860315
F-2.065202061329977
F-1.463623348866598
F1.5709794759750366
F0.0
tp31
sg9
(lp32
F0.0
aF0.0
aF-0.063525390625
aF0.0
aF0.0
aF0.0
asg11
I01
sg12
g13
sg14
I00
sg15
g16
sa(dp33
g2
F0.0
sg3
(lp34
F0.16405898199635477
aF0.4577522107372598
aF0.522024639889792
aF3.131101794616927
aF0.00020709905782677413
aF-0.00030161432945100783
asg5
I0
sg6
F0.0
sg7
(F-1.5710957686053675
F-1.197179142628805
F-2.0875662008868616
F-1.438134495412008
F1.5710034370422363
F0.0
tp35
sg9
(lp36
F0.0
aF0.0
aF0.0
aF0.0
aF0.0
aF0.0
asg11
I01
sg12
g13
sg14
I00
sg15
g16
sa(dp37
g2
F0.0
sg3
(lp38
F0.16405024820318465
aF0.4576498314010272
aF0.5214997666414295
aF3.131380256615993
aF0.00018252790968532567
aF-0.0003373881080808601
asg5
I0
sg6
F0.0
sg7
(F-1.5710719267474573
F-1.197082821522848
F-2.0886076132403772
F-1.4369109312640589
F1.5709794759750366
F5.992112710373476e-05
tp39
sg9
(lp40
F0.0
aF0.0
aF0.0
aF0.0
aF0.0
aF0.0
asg11
I01
sg12
g13
sg14
I00
sg15
g16
sa(dp41
g2
F0.0
sg3
(lp42
F0.1640469819941464
aF0.4575767082683288
aF0.5214578884889053
aF3.1307317652576168
aF0.0001589186182521958
aF-0.0002893747449336775
asg5
I0
sg6
F0.0
sg7
(F-1.5710600058185022
F-1.1970470587359827
F-2.088571850453512
F-1.4376309553729456
F1.570955514907837
F2.3968450477696024e-05
tp43
sg9
(lp44
F0.0
aF0.0
aF0.0
aF0.0
aF0.0
aF0.0
asg11
I01
sg12
g13
sg14
I00
sg15
g16
sa(dp45
g2
F0.0
sg3
(lp46
F0.16403144869779265
aF0.4576343464588583
aF0.521523598901809
aF3.1310560132882186
aF0.00020684641595088355
aF-0.0002655094482542365
asg5
I0
sg6
F0.0
sg7
(F-1.5710356871234339
F-1.197082821522848
F-2.0884998480426233
F-1.437342945729391
F1.5710034370422363
F2.3968450477696024e-05
tp47
sg9
(lp48
F0.0
aF0.0
aF-0.18587646484375
aF0.0
aF0.0
aF0.0
asg11
I01
sg12
g13
sg14
I00
sg15
g16
sa(dp49
g2
F0.0
sg3
(lp50
F0.16403930890357696
aF0.45754241100014476
aF0.5111898121267934
aF3.1306626188698967
aF0.0001826145064532315
aF-0.00030169371291461646
asg5
I0
sg6
F0.0
sg7
(F-1.5710480848895472
F-1.199958626423971
F-2.10494834581484
F-1.4184120337115687
F1.5709794759750366
F4.793690095539205e-05
tp51
sg9
(lp52
F0.0
aF0.0
aF-0.19999389648437502
aF0.0
aF0.0
aF0.0
asg11
I01
sg12
g13
sg14
I00
sg15
g16
sa(dp53
g2
F0.0
sg3
(lp54
F0.1640391765865875
aF0.45701685487160304
aF0.4917987118801106
aF3.1307122121242896
aF0.00018274737370065026
aF-0.00028970113983073305
asg5
I0
sg6
F0.0
sg7
(F-1.5710480848895472
F-1.2056744734393519
F-2.135929886494772
F-1.381665054951803
F1.5709794759750366
F3.5952674807049334e-05
tp55
sg9
(lp56
F0.0
aF0.0
aF-0.19999389648437502
aF0.0
aF0.0
aF0.0
asg11
I01
sg12
g13
sg14
I00
sg15
g16
sa(dp57
g2
F0.0
sg3
(lp58
F0.1640257741659415
aF0.45633371798288036
aF0.4710040794114596
aF3.1308137797944062
aF0.00014687131480083042
aF-0.00025305619461432757
asg5
I0
sg6
F0.0
sg7
(F-1.5710118452655237
F-1.2132237593280237
F-2.1685622374164026
F-1.341381851826803
F1.5709435939788818
F3.5952674807049334e-05
tp59
sg9
(lp60
F0.0
aF0.0
aF-0.19999389648437502
aF0.0
aF0.0
aF0.0
asg11
I01
sg12
g13
sg14
I00
sg15
g16
sa(dp61
g2
F0.0
sg3
(lp62
F0.16405189852470084
aF0.45562198410335747
aF0.45178705777217326
aF3.1306845545727295
aF0.00015865596005962585
aF-0.00032527020073439987
asg5
I0
sg6
F0.0
sg7
(F-1.5710719267474573
F-1.221720043812887
F-2.1980326811419886
F-1.3035443464862269
F1.570955514907837
F4.793690095539205e-05
tp63
sg9
(lp64
F0.0
aF0.0
aF-0.19999389648437502
aF0.0
aF0.0
aF0.0
asg11
I01
sg12
g13
sg14
I00
sg15
g16
sa(dp65
g2
F0.0
sg3
(lp66
F0.164038633629608
aF0.4548602429121234
aF0.43109417625427554
aF3.130594435535021
aF0.00018287470601594633
aF-0.00027773916357988146
asg5
I0
sg6
F0.0
sg7
(F-1.5710480848895472
F-1.2326849142657679
F-2.229023281727926
F-1.2616789976703089
F1.5709794759750366
F2.3968450477696024e-05
tp67
sg9
(lp68
F0.0
aF0.0
aF-0.19999389648437502
aF0.0
aF0.0
aF0.0
asg11
I01
sg12
g13
sg14
I00
sg15
g16
sa(dp69
g2
F0.0
sg3
(lp70
F0.1640339019896962
aF0.4540623020610779
aF0.4121099976003332
aF3.130765143549016
aF0.00017095890833637348
aF-0.0002651811075445813
asg5
I0
sg6
F0.0
sg7
(F-1.5710356871234339
F-1.2443082968341272
F-2.2569239775287073
F-1.2219842115985315
F1.5709675550460815
F2.3968450477696024e-05
tp71
sg9
(lp72
F0.0
aF0.0
aF-0.19999389648437502
aF0.0
aF0.0
aF0.0
asg11
I01
sg12
g13
sg14
I00
sg15
g16
sa(dp73
g2
F0.0
sg3
(lp74
F0.16402833290653562
aF0.4533773807987588
aF0.3914269804907362
aF3.130520526083365
aF0.0001709525870080668
aF-0.0002533019973010702
asg5
I0
sg6
F0.0
sg7
(F-1.5710237661944788
F-1.2594435850726526
F-2.2861526648150843
F-1.1778648535357874
F1.5709675550460815
F2.3968450477696024e-05
tp75
sg9
(lp76
F0.0
aF0.0
aF-0.19999389648437502
aF0.0
aF0.0
aF0.0
asg11
I01
sg12
g13
sg14
I00
sg15
g16
sa(dp77
g2
F0.0
sg3
(lp78
F0.16404569271216718
aF0.4526872366521417
aF0.37105270227840914
aF3.131102027411743
aF0.00015880240186042817
aF-0.0003012994664327577
asg5
I0
sg6
F0.0
sg7
(F-1.5710600058185022
F-1.2765076796161097
F-2.314303461705343
F-1.1320684591876429
F1.570955514907837
F3.5952674807049334e-05
tp79
sg9
(lp80
F0.0
aF0.0
aF-0.19999389648437502
aF0.0
aF0.0
aF0.0
asg11
I01
sg12
g13
sg14
I00
sg15
g16
sa(dp81
g2
F0.0
sg3
(lp82
F0.16402805217744765
aF0.45214311343877417
aF0.35214876353328556
aF3.131139220256906
aF0.00017084328138319336
aF-0.0002651797944924513
asg5
I0
sg6
F0.0
sg7
(F-1.5710237661944788
F-1.2946627775775355
F-2.339353624974386
F-1.0888260046588343
F1.5709675550460815
F3.5952674807049334e-05
tp83
sg9
(lp84
F0.0
aF0.0
aF-0.19999389648437502
aF0.0
aF0.0
aF0.0
asg11
I01
sg12
g13
sg14
I00
sg15
g16
sa(dp85
g2
F0.0
sg3
(lp86
F0.1640388393280115
aF0.4513116345409069
aF0.3318106230967179
aF3.131587449240083
aF0.00017098008310737856
aF-0.0002774382846299524
asg5
I0
sg6
F0.0
sg7
(F-1.5710480848895472
F-1.316101376210348
F-2.3658037821399134
F-1.0404890219317835
F1.5709675550460815
F2.3968450477696024e-05
tp87
sg9
(lp88
F0.0
aF0.0
aF-0.19999389648437502
aF0.0
aF0.0
aF0.0
asg11
I01
sg12
g13
sg14
I00
sg15
g16
sa(dp89
g2
F0.0
sg3
(lp90
F0.16403751340890754
aF0.4504107477180743
aF0.31288318301029816
aF3.1315400036352345
aF0.0001828991911281154
aF-0.00027756623169738494
asg5
I0
sg6
F0.0
sg7
(F-1.5710480848895472
F-1.3381755987750452
F-2.3895719687091272
F-0.9946940580951136
F1.5709794759750366
F2.3968450477696024e-05
tp91
sg9
(lp92
F0.0
aF0.0
aF-0.18430786132812502
aF0.0
aF0.0
aF0.0
asg11
I01
sg12
g13
sg14
I00
sg15
g16
sa(dp93
g2
F0.0
sg3
(lp94
F0.16402744703344757
aF0.44948248293381504
aF0.294686943017784
aF3.1307706251284992
aF0.00017082935885234828
aF-0.00026524276385260823
asg5
I0
sg6
F0.0
sg7
(F-1.5710237661944788
F-1.3615320364581507
F-2.411461416875021
F-0.9502175490008753
F1.5709675550460815
F3.5952674807049334e-05
tp95
sg9
(lp96
F0.0
aF0.0
aF0.0
aF0.0
aF0.0
aF0.0
asg11
I01
sg12
g13
sg14
I00
sg15
g16
sa(dp97
g2
F0.0
sg3
(lp98
F0.16404154891918357
aF0.4495604596624656
aF0.291793374169388
aF3.131783657782834
aF0.00019447482814588385
aF-0.00033749528759143254
asg5
I0
sg6
F0.0
sg7
(F-1.5710600058185022
F-1.365894619618551
F-2.4148243109332483
F-0.9414790312396448
F1.5709915161132812
F7.190534961409867e-05
tp99
sg9
(lp100
F0.0
aF0.0
aF0.0
aF0.0
aF0.0
aF0.0
asg11
I01
sg12
g13
sg14
I00
sg15
g16
sa(dp101
g2
F0.0
sg3
(lp102
F0.1640404074773502
aF0.4493999153201316
aF0.2918352528672831
aF3.1313523626335082
aF0.00020660871671388016
aF-0.0003137340367045402
asg5
I0
sg6
F0.0
sg7
(F-1.5710600058185022
F-1.3655231634723108
F-2.414896074925558
F-0.9422100226031702
F1.5710034370422363
F4.793690095539205e-05
tp103
sg9
(lp104
F0.0
aF0.0
aF0.0
aF0.0
aF0.0
aF0.0
asg11
I01
sg12
g13
sg14
I00
sg15
g16
sa(dp105
g2
F0.0
sg3
(lp106
F0.164025210492528
aF0.44936231945522037
aF0.29179130957487487
aF3.1307889824505577
aF0.00019478972166482123
aF-0.00026549849016796354
asg5
I0
sg6
F0.0
sg7
(F-1.5710237661944788
F-1.3655107657061976
F-2.4148600737201136
F-0.9428218046771448
F1.5709915161132812
F3.5952674807049334e-05
tp107
sg9
(lp108
F0.0
aF0.0
aF0.0
aF0.0
aF0.0
aF0.0
asg11
I01
sg12
g13
sg14
I00
sg15
g16
sa(dp109
g2
F0.0
sg3
(lp110
F0.1640393112818496
aF0.4494526512593694
aF0.2913362181078394
aF3.1312219470644043
aF0.00021864167780307332
aF-0.00031388584361911
asg5
I0
sg6
F0.0
sg7
(F-1.5710600058185022
F-1.3663619200335901
F-2.4153388182269495
F-0.9410589377032679
F1.571015477180481
F4.793690095539205e-05
tp111
sg9
(lp112
F0.0
aF0.0
aF-0.19999389648437502
aF0.0
aF0.0
aF0.0
asg11
I01
sg12
g13
sg14
I00
sg15
g16
sa(dp113
g2
F0.0
sg3
(lp114
F0.1640501661999821
aF0.4493364620780571
aF0.280633630155004
aF3.13137882758201
aF0.00015856800396516773
aF-0.0003371436392567121
asg5
I0
sg6
F0.0
sg7
(F-1.5710719267474573
F-1.3822649160968226
F-2.427222553883688
F-0.9131153265582483
F1.570955514907837
F5.992112710373476e-05
tp115
sg9
(lp116
F0.0
aF0.0
aF-0.10901489257812501
aF0.0
aF0.0
aF0.0
asg11
I01
sg12
g13
sg14
I00
sg15
g16
sa(dp117
g2
F0.0
sg3
(lp118
F0.16404349851156572
aF0.4485758822363056
aF0.26432861187921175
aF3.1306611848649806
aF0.00017043221324853904
aF-0.00033745160942369516
asg5
I0
sg6
F0.0
sg7
(F-1.5710600058185022
F-1.4069164435016077
F-2.44529372850527
F-0.8711102644549769
F1.5709675550460815
F7.190534961409867e-05
tp119
sg9
(lp120
F0.0
aF0.0
aF0.0
aF0.0
aF0.0
aF0.0
asg11
I01
sg12
g13
sg14
I00
sg15
g16
sa(dp121
g2
F0.0
sg3
(lp122
F0.16403931055145707
aF0.44877402800229665
aF0.2619899153732271
aF3.1320933718754516
aF0.00015883961863926948
aF-0.0002892210913395435
asg5
I0
sg6
F0.0
sg7
(F-1.5710480848895472
F-1.4112189451800745
F-2.447758738194601
F-0.8629105726825159
F1.570955514907837
F3.5952674807049334e-05
tp123
sg9
(lp124
F0.0
aF0.0
aF-0.14509277343750002
aF0.0
aF0.0
aF0.0
asg11
I01
sg12
g13
sg14
I00
sg15
g16
sa(dp125
g2
F0.0
sg3
(lp126
F0.16403254032454
aF0.44837367186368304
aF0.2524910234480212
aF3.130568440036616
aF0.00017042537048981264
aF-0.0003131487207252987
asg5
I0
sg6
F0.0
sg7
(F-1.5710356871234339
F-1.4267023245440882
F-2.4575000444995325
F-0.8392108122455042
F1.5709675550460815
F7.190534961409867e-05
tp127
sg9
(lp128
F0.0
aF0.0
aF0.0
aF0.0
aF0.0
aF0.0
asg11
I01
sg12
g13
sg14
I00
sg15
g16
sa(dp129
g2
F0.0
sg3
(lp130
F0.1640530518666824
aF0.44842461449753646
aF0.24993548395972537
aF3.131437243034926
aF0.00018277483554621056
aF-0.0003253314193894928
asg5
I0
sg6
F0.0
sg7
(F-1.5710838476764124
F-1.4313281218158167
F-2.4601450602160853
F-0.8310712019549769
F1.5709794759750366
F3.5952674807049334e-05
tp131
sg9
(lp132
F0.0
aF0.0
aF0.0
aF0.0
aF0.0
aF0.0
asg11
I01
sg12
g13
sg14
I00
sg15
g16
sa(dp133
g2
F0.0
sg3
(lp134
F0.16401963735016792
aF0.44836062145167954
aF0.24990120359328022
aF3.130945852553328
aF0.00019428532513611417
aF-0.0003014811908765517
asg5
I0
sg6
F0.0
sg7
(F-1.5710118452655237
F-1.4312322775470179
F-2.4601686636554163
F-0.831634823475973
F1.5709915161132812
F8.388957940042019e-05
tp135
sg9
(lp136
F0.0
aF0.0
aF0.0
aF0.0
aF0.0
aF0.0
asg11
I01
sg12
g13
sg14
I00
sg15
g16
sa(dp137
g2
F0.0
sg3
(lp138
F0.16404122474175833
aF0.44833105264489526
aF0.24998014188888787
aF3.130981381581731
aF0.00019454270983467175
aF-0.0003256677385959096
asg5
I0
sg6
F0.0
sg7
(F-1.5710600058185022
F-1.4310525099383753
F-2.46013313928713
F-0.8318145910846155
F1.5709915161132812
F5.992112710373476e-05
tp139
sg9
(lp140
F0.0
aF0.0
aF0.0
aF0.0
aF0.0
aF0.0
asg11
I01
sg12
g13
sg14
I00
sg15
g16
sa(dp141
g2
F0.0
sg3
(lp142
F0.164033634171266
aF0.4483057679131451
aF0.24993348964917628
aF3.130861691985883
aF0.00015815035741753816
aF-0.00033693661239057084
asg5
I0
sg6
F0.0
sg7
(F-1.5710356871234339
F-1.4310763517962855
F-2.4601927439319056
F-0.831850830708639
F1.570955514907837
F9.58738019107841e-05
tp143
sg9
(lp144
F0.0
aF0.0
aF0.0
aF0.0
aF0.0
aF0.0
asg11
I01
sg12
g13
sg14
I00
sg15
g16
sa.