(lp0
(dp1
S'start_gripper_pos'
p2
F0.0
sS'curr_pos'
p3
(lp4
F0.16405738451909005
aF0.45949551105351877
aF0.5961076460479546
aF3.130958757000628
aF0.00011253074256731934
aF-0.00015727839233177648
asS'gripper_ac'
p5
I0
sS'curr_gripper_pos'
p6
F0.0
sS'curr_q'
p7
(F-1.5710719267474573
F-1.1900251547442835
F-1.96193772951235
F-1.5710600058185022
F1.5709075927734375
F-0.000119511281148732
tp8
sS'xdot_h'
p9
(lp10
F0.0
aF0.0
aF0.0
aF0.0
aF0.0
aF0.0
asS'trans_mode'
p11
I01
sS'start_pos'
p12
(lp13
F0.1641210522262679
aF0.459422083094945
aF0.5961819695330353
aF3.131018848375223
aF0.0001964422811740466
aF-0.0003136079180327579
asS'slow_mode'
p14
I00
sS'start_q'
p15
(F-1.5712273756610315
F-1.1899293104754847
F-1.9618776480304163
F-1.571155850087301
F1.5709915161132812
F-0.000119511281148732
tp16
sa(dp17
g2
F0.0
sg3
(lp18
F0.16406501497076573
aF0.4594735087760834
aF0.5961022471683262
aF3.1309825925154646
aF0.000147768224261451
aF-0.0002530210834673281
asg5
I0
sg6
F0.0
sg7
(F-1.5710957686053675
F-1.1899893919574183
F-1.9619734922992151
F-1.571036163960592
F1.5709435939788818
F-4.7985707418263246e-05
tp19
sg9
(lp20
F0.0
aF0.0
aF0.0
aF0.0
aF0.0
aF0.0
asg11
I01
sg12
g13
sg14
I00
sg15
g16
sa(dp21
g2
F0.0
sg3
(lp22
F0.16406391692505543
aF0.45947706195600724
aF0.5961268158799802
aF3.1310183596653616
aF0.0001599389326663893
aF-0.00022930132672627197
asg5
I0
sg6
F0.0
sg7
(F-1.5710957686053675
F-1.1899893919574183
F-1.96193772951235
F-1.571036163960592
F1.570955514907837
F-7.18275653284195e-05
tp23
sg9
(lp24
F0.0
aF0.0
aF0.0
aF0.0
aF0.0
aF0.0
asg11
I01
sg12
g13
sg14
I00
sg15
g16
sa(dp25
g2
F0.0
sg3
(lp26
F0.16405954216355975
aF0.45949130862806786
aF0.5961172271530538
aF3.1310064361357846
aF0.0001478933126626529
aF-0.0002291763703471821
asg5
I0
sg6
F0.0
sg7
(F-1.5710838476764124
F-1.1900132338153284
F-1.96193772951235
F-1.571024243031637
F1.5709435939788818
F-5.990663637334137e-05
tp27
sg9
(lp28
F0.0
aF0.0
aF0.0
aF0.0
aF0.0
aF0.0
asg11
I01
sg12
g13
sg14
I00
sg15
g16
sa(dp29
g2
F0.0
sg3
(lp30
F0.16407929193812762
aF0.45947887862846265
aF0.5961349812370508
aF3.1310064353631364
aF0.00011202031976217662
aF-0.0002526377866498601
asg5
I0
sg6
F0.0
sg7
(F-1.5711196104632776
F-1.1900013128863733
F-1.9619138876544397
F-1.5710600058185022
F1.5709075927734375
F-7.18275653284195e-05
tp31
sg9
(lp32
F0.0
aF0.0
aF0.0
aF0.0
aF0.0
aF0.0
asg11
I01
sg12
g13
sg14
I00
sg15
g16
sa(dp33
g2
F0.0
sg3
(lp34
F0.1640584780871423
aF0.4594754035195236
aF0.596119977571408
aF3.1309587496118265
aF9.997666975322871e-05
aF-0.00021675290385408838
asg5
I0
sg6
F0.0
sg7
(F-1.5710719267474573
F-1.1899893919574183
F-1.96193772951235
F-1.5710957686053675
F1.5708956718444824
F-5.990663637334137e-05
tp35
sg9
(lp36
F0.0
aF0.0
aF0.0
aF0.0
aF0.0
aF0.0
asg11
I01
sg12
g13
sg14
I00
sg15
g16
sa(dp37
g2
F0.0
sg3
(lp38
F0.16404748934754493
aF0.4595007827352544
aF0.5961049818834715
aF3.130994992738588
aF0.00015981423987060072
aF-0.00020546253654346136
asg5
I0
sg6
F0.0
sg7
(F-1.5710600058185022
F-1.1900251547442835
F-1.961949650441305
F-1.5710118452655237
F1.570955514907837
F-5.990663637334137e-05
tp39
sg9
(lp40
F-0.02745361328125
aF0.0
aF0.0
aF0.0
aF0.0
aF0.0
asg11
I01
sg12
g13
sg14
I00
sg15
g16
sa(dp41
g2
F0.0
sg3
(lp42
F0.16366279147611
aF0.45951465552796733
aF0.5961520077286724
aF3.1311026655422136
aF9.015891689499926e-05
aF-0.00029064875274865173
asg5
I0
sg6
F0.0
sg7
(F-1.5702107588397425
F-1.1897853056537073
F-1.9620335737811487
F-1.5710600058185022
F1.5708956718444824
F0.0008752229623496532
tp43
sg9
(lp44
F-0.13255004882812502
aF0.0
aF0.0
aF0.0
aF0.0
aF0.0
asg11
I01
sg12
g13
sg14
I00
sg15
g16
sa(dp45
g2
F0.0
sg3
(lp46
F0.15706385328115016
aF0.4594635867995246
aF0.5961131713622916
aF3.131114830359803
aF3.876865380211998e-05
aF3.72539532256077e-05
asg5
I0
sg6
F0.0
sg7
(F-1.555828873311178
F-1.1856148878680628
F-1.9646075407611292
F-1.5726426283465784
F1.5709915161132812
F0.014928974211215973
tp47
sg9
(lp48
F-0.19058837890625002
aF0.0
aF0.0
aF0.0
aF0.0
aF0.0
asg11
I01
sg12
g13
sg14
I00
sg15
g16
sa(dp49
g2
F0.0
sg3
(lp50
F0.14120439481841773
aF0.4591381844781902
aF0.5958923921087328
aF3.1307809813283347
aF1.7469435637432532e-05
aF0.000128330675971909
asg5
I0
sg6
F0.0
sg7
(F-1.5209854284869593
F-1.175885025654928
F-1.9707024733172815
F-1.5765989462481897
F1.5713506937026978
F0.049679480493068695
tp51
sg9
(lp52
F-0.192156982421875
aF0.0
aF0.0
aF0.0
aF0.0
aF0.0
asg11
I01
sg12
g13
sg14
I00
sg15
g16
sa(dp53
g2
F0.0
sg3
(lp54
F0.12127547490848317
aF0.4583980439383665
aF0.5961124682017105
aF3.131161842597244
aF-1.7190688514420912e-05
aF0.00024919640918181384
asg5
I0
sg6
F0.0
sg7
(F-1.4766023794757288
F-1.1641295591937464
F-1.9772513548480433
F-1.5813944975482386
F1.5717576742172241
F0.09393984824419022
tp55
sg9
(lp56
F-0.192156982421875
aF0.0
aF0.0
aF0.0
aF0.0
aF0.0
asg11
I01
sg12
g13
sg14
I00
sg15
g16
sa(dp57
g2
F0.0
sg3
(lp58
F0.1030790799754229
aF0.4576264468536356
aF0.5960583587295504
aF3.1312101862519484
aF-6.054473183577862e-06
aF7.817472340830314e-05
asg5
I0
sg6
F0.0
sg7
(F-1.4356158415423792
F-1.1544955412494105
F-1.9828789869891565
F-1.5853031317340296
F1.5721887350082397
F0.13509517908096313
tp59
sg9
(lp60
F-0.2
aF0.0
aF0.0
aF0.0
aF0.0
aF0.0
asg11
I01
sg12
g13
sg14
I00
sg15
g16
sa(dp61
g2
F0.0
sg3
(lp62
F0.08297544046979385
aF0.45688875870751355
aF0.5959038759139887
aF3.130915863847808
aF1.0447871085367e-06
aF6.6665872428441e-05
asg5
I0
sg6
F0.0
sg7
(F-1.3900311628924769
F-1.1455448309527796
F-1.9881470839129847
F-1.5891998449908655
F1.5727161169052124
F0.18068841099739075
tp63
sg9
(lp64
F-0.2
aF0.0
aF0.0
aF0.0
aF0.0
aF0.0
asg11
I01
sg12
g13
sg14
I00
sg15
g16
sa(dp65
g2
F0.0
sg3
(lp66
F0.06239473724689472
aF0.45672960562918585
aF0.5958230327200242
aF3.1308392420164464
aF1.0473513238362138e-06
aF0.00018839299141025186
asg5
I0
sg6
F0.0
sg7
(F-1.343485180531637
F-1.1390860716449183
F-1.991882626210348
F-1.5918973127948206
F1.5732187032699585
F0.22711005806922913
tp67
sg9
(lp68
F-0.18745117187500002
aF0.12470703125
aF0.0
aF0.0
aF0.0
aF0.0
asg11
I01
sg12
g13
sg14
I00
sg15
g16
sa(dp69
g2
F0.0
sg3
(lp70
F0.04340631933434247
aF0.461781969331545
aF0.5958485142561124
aF3.1309091316123294
aF2.7002594891627858e-05
aF0.00022982222947020675
asg5
I0
sg6
F0.0
sg7
(F-1.303854767476217
F-1.1445263067828577
F-1.9888537565814417
F-1.5893076101886194
F1.5736380815505981
F0.266696959733963
tp71
sg9
(lp72
F-0.14666748046875
aF0.173333740234375
aF0.0
aF0.0
aF0.0
aF0.0
asg11
I01
sg12
g13
sg14
I00
sg15
g16
sa(dp73
g2
F0.0
sg3
(lp74
F0.025694327268928525
aF0.4772416715336491
aF0.5954118774109258
aF3.130378466999058
aF-0.00010882433899106508
aF-0.00012577851194323593
asg5
I0
sg6
F0.0
sg7
(F-1.275102440510885
F-1.1714513937579554
F-1.9741504828082483
F-1.5775459448443812
F1.5739613771438599
F0.2958032488822937
tp75
sg9
(lp76
F0.0
aF0.2
aF0.0
aF0.0
aF0.0
aF0.0
asg11
I01
sg12
g13
sg14
I00
sg15
g16
sa(dp77
g2
F0.0
sg3
(lp78
F0.018457048483342894
aF0.49741845206225394
aF0.5948806604574476
aF3.130546298985129
aF-6.114729087006506e-05
aF-0.0004899538333990638
asg5
I0
sg6
F0.0
sg7
(F-1.2728880087481897
F-1.208658520375387
F-1.9526942412005823
F-1.5616124312030237
F1.5739853382110596
F0.2983817458152771
tp79
sg9
(lp80
F0.0
aF0.2
aF0.0
aF0.0
aF0.0
aF0.0
asg11
I01
sg12
g13
sg14
I00
sg15
g16
sa(dp81
g2
F0.0
sg3
(lp82
F0.018085817542998265
aF0.5169653652583014
aF0.5940446162657393
aF3.1306075784240406
aF7.962968970298798e-05
aF-0.0003745470061902361
asg5
I0
sg6
F0.0
sg7
(F-1.283877197896139
F-1.2448352018939417
F-1.931044880543844
F-1.547021214162008
F1.5739853382110596
F0.2872764766216278
tp83
sg9
(lp84
F0.071368408203125
aF0.2
aF0.0
aF0.0
aF0.0
aF0.0
asg11
I01
sg12
g13
sg14
I00
sg15
g16
sa(dp85
g2
F0.0
sg3
(lp86
F0.02218717724296584
aF0.5378673525781847
aF0.5932796372176584
aF3.130566662517983
aF0.00017891634068047671
aF-0.0004100194487424565
asg5
I0
sg6
F0.0
sg7
(F-1.303124729787008
F-1.2833378950702112
F-1.906306568776266
F-1.5333293120013636
F1.5738893747329712
F0.2680642604827881
tp87
sg9
(lp88
F0.10430908203125
aF0.1811767578125
aF0.0
aF0.0
aF0.0
aF0.0
asg11
I01
sg12
g13
sg14
I00
sg15
g16
sa(dp89
g2
F0.0
sg3
(lp90
F0.03193754011873569
aF0.5558932512900794
aF0.5927282248735536
aF3.130844795738583
aF0.00032979043122175416
aF-0.00045397037911539987
asg5
I0
sg6
F0.0
sg7
(F-1.3298285643206995
F-1.3166888395892542
F-1.8835189978228968
F-1.5225384871112269
F1.573686122894287
F0.24140499532222748
tp91
sg9
(lp92
F0.10901489257812501
aF0.16549072265625
aF0.0
aF0.0
aF0.0
aF0.0
asg11
I01
sg12
g13
sg14
I00
sg15
g16
sa(dp93
g2
F0.0
sg3
(lp94
F0.044256246615324284
aF0.5740841813446811
aF0.5920702801677085
aF3.1308571533905027
aF0.00036701189494447875
aF-0.00031115526337303093
asg5
I0
sg6
F0.0
sg7
(F-1.3594515959369105
F-1.3506024519549769
F-1.8592818419085901
F-1.512923542653219
F1.5734103918075562
F0.21164029836654663
tp95
sg9
(lp96
F0.1701904296875
aF0.09647216796875001
aF0.0
aF0.0
aF0.0
aF0.0
asg11
I01
sg12
g13
sg14
I00
sg15
g16
sa(dp97
g2
F0.0
sg3
(lp98
F0.05972174968039213
aF0.5874204951051398
aF0.5914738221725555
aF3.13074861155602
aF0.00033007690913105294
aF-0.0004145253016769805
asg5
I0
sg6
F0.0
sg7
(F-1.3911321798907679
F-1.3765838781939905
F-1.8400371710406702
F-1.5063775221454065
F1.5730632543563843
F0.180064857006073
tp99
sg9
(lp100
F0.127838134765625
aF0.035296630859375004
aF0.0
aF0.0
aF0.0
aF0.0
asg11
I01
sg12
g13
sg14
I00
sg15
g16
sa(dp101
g2
F0.0
sg3
(lp102
F0.0751188354371488
aF0.5931520676359129
aF0.5912383384774493
aF3.130599212616809
aF0.0002361972266884866
aF-0.00031905382313922467
asg5
I0
sg6
F0.0
sg7
(F-1.4193161169635218
F-1.3896945158587855
F-1.8299177328692835
F-1.5036080519305628
F1.5726921558380127
F0.15178769826889038
tp103
sg9
(lp104
F0.0509765625
aF0.0
aF0.0
aF0.0
aF0.0
aF0.0
asg11
I01
sg12
g13
sg14
I00
sg15
g16
sa(dp105
g2
F0.0
sg3
(lp106
F0.084041376648249
aF0.5935719568814342
aF0.5912510412554758
aF3.1305762510055186
aF0.00024631709165080925
aF-0.00015530781732854922
asg5
I0
sg6
F0.0
sg7
(F-1.434730354939596
F-1.3924992720233362
F-1.827618424092428
F-1.5031521956073206
F1.5725363492965698
F0.13621045649051666
tp107
sg9
(lp108
F0.096466064453125
aF-0.09803466796875
aF0.0
aF0.0
aF0.0
aF0.0
asg11
I01
sg12
g13
sg14
I00
sg15
g16
sa(dp109
g2
F0.0
sg3
(lp110
F0.0909065324930065
aF0.5890150513108927
aF0.591250603044446
aF3.130712636882706
aF0.0002994740411314894
aF3.5475101700425196e-05
asg5
I0
sg6
F0.0
sg7
(F-1.4455245176898401
F-1.38633901277651
F-1.8326123396502894
F-1.5041950384723108
F1.572452425956726
F0.12522579729557037
tp111
sg9
(lp112
F0.07607421875
aF-0.12470092773437501
aF0.0
aF0.0
aF0.0
aF0.0
asg11
I01
sg12
g13
sg14
I00
sg15
g16
sa(dp113
g2
F0.0
sg3
(lp114
F0.09910597159233267
aF0.5787850359939138
aF0.5912313782172272
aF3.1309152501081026
aF0.00023517618985154947
aF-0.0001419623748872484
asg5
I0
sg6
F0.0
sg7
(F-1.4576709906207483
F-1.3708680311786097
F-1.844982926045553
F-1.507120434437887
F1.5722367763519287
F0.11325842142105103
tp115
sg9
(lp116
F0.0
aF-0.16391601562500002
aF0.0
aF0.0
aF0.0
aF0.0
asg11
I01
sg12
g13
sg14
I00
sg15
g16
sa(dp117
g2
F0.0
sg3
(lp118
F0.10346834339395929
aF0.5634754959441378
aF0.5911461424887359
aF3.1312342872995713
aF0.00024745630057224587
aF-0.0001913725897820389
asg5
I0
sg6
F0.0
sg7
(F-1.462409798298971
F-1.3454974333392542
F-1.8648260275470179
F-1.5123360792743128
F1.57216477394104
F0.10856959223747253
tp119
sg9
(lp120
F0.0
aF-0.178033447265625
aF0.0
aF0.0
aF0.0
aF0.0
asg11
I01
sg12
g13
sg14
I00
sg15
g16
sa(dp121
g2
F0.0
sg3
(lp122
F0.10356946195404974
aF0.5468666562070252
aF0.5905193098800876
aF3.1308877951542375
aF0.000199336059629073
aF-0.00023425783455769425
asg5
I0
sg6
F0.0
sg7
(F-1.4592269102679651
F-1.3164847532855433
F-1.8874824682818812
F-1.5190375486956995
F1.5721887350082397
F0.11179521679878235
tp123
sg9
(lp124
F-0.07451171875
aF-0.19999389648437502
aF0.0
aF0.0
aF0.0
aF0.0
asg11
I01
sg12
g13
sg14
I00
sg15
g16
sa(dp125
g2
F0.0
sg3
(lp126
F0.09934174356397794
aF0.5270005062214612
aF0.5896511160833325
aF3.1304104758397346
aF3.2547577683169515e-05
aF-7.295723121790706e-06
asg5
I0
sg6
F0.0
sg7
(F-1.4466970602618616
F-1.2799351851092737
F-1.9149163405047815
F-1.5286296049701136
F1.572212815284729
F0.1240985244512558
tp127
sg9
(lp128
F-0.123138427734375
aF-0.18744506835937502
aF0.0
aF0.0
aF0.0
aF0.0
asg11
I01
sg12
g13
sg14
I00
sg15
g16
sa(dp129
g2
F0.0
sg3
(lp130
F0.08968627806591105
aF0.5066908157835118
aF0.5888766444206996
aF3.1304759306619756
aF-6.491766190090384e-05
aF-7.08832193387054e-05
asg5
I0
sg6
F0.0
sg7
(F-1.4220331350909632
F-1.240162197743551
F-1.943043057118551
F-1.540187184010641
F1.572380542755127
F0.1488257199525833
tp131
sg9
(lp132
F-0.14666748046875
aF-0.1325439453125
aF0.0
aF0.0
aF0.0
aF0.0
asg11
I01
sg12
g13
sg14
I00
sg15
g16
sa(dp133
g2
F0.0
sg3
(lp134
F0.0774191494065736
aF0.49124014929765114
aF0.5885207880620719
aF3.1309332861896526
aF-5.299355113046316e-06
aF-5.000182425310357e-05
asg5
I0
sg6
F0.0
sg7
(F-1.3915389219867151
F-1.2079995314227503
F-1.9642365614520472
F-1.5506423155414026
F1.5726921558380127
F0.17929749190807343
tp135
sg9
(lp136
F-0.1937255859375
aF-0.11842651367187501
aF0.0
aF0.0
aF0.0
aF0.0
asg11
I01
sg12
g13
sg14
I00
sg15
g16
sa(dp137
g2
F0.0
sg3
(lp138
F0.06097050372996717
aF0.47808659645514034
aF0.5881465892508214
aF3.1310645884589694
aF-1.9571971814997227e-06
aF0.00022799674586281525
asg5
I0
sg6
F0.0
sg7
(F-1.351025406514303
F-1.179096523915426
F-1.982447926198141
F-1.561120335255758
F1.573087215423584
F0.21953116357326508
tp139
sg9
(lp140
F-0.1937255859375
aF-0.11842651367187501
aF0.0
aF0.0
aF0.0
aF0.0
asg11
I01
sg12
g13
sg14
I00
sg15
g16
sa(dp141
g2
F0.0
sg3
(lp142
F0.04257204566791121
aF0.4653047055468463
aF0.5867592347948682
aF3.1307624457675285
aF2.5205484664661003e-06
aF0.00023024477776385107
asg5
I0
sg6
F0.0
sg7
(F-1.3041418234454554
F-1.1511409918414515
F-2.0009949843036097
F-1.570700470601217
F1.5736501216888428
F0.26640933752059937
tp143
sg9
(lp144
F-0.12470703125
aF-0.0823486328125
aF-0.17960205078125002
aF0.0
aF0.0
aF0.0
asg11
I01
sg12
g13
sg14
I00
sg15
g16
sa(dp145
g2
F0.0
sg3
(lp146
F0.028674882422498247
aF0.4555488339225266
aF0.5769693259459827
aF3.130763141176949
aF-3.4875678840575523e-06
aF-5.695805831512841e-05
asg5
I0
sg6
F0.0
sg7
(F-1.2669866720782679
F-1.1305068174945276
F-2.0295613447772425
F-1.562655274068014
F1.574033260345459
F0.3038499057292938
tp147
sg9
(lp148
F-0.107452392578125
aF-0.060388183593750006
aF-0.19999389648437502
aF0.0
aF0.0
aF0.0
asg11
I01
sg12
g13
sg14
I00
sg15
g16
sa(dp149
g2
F0.0
sg3
(lp150
F0.017252974544590752
aF0.44786732075332364
aF0.5561922586410645
aF3.1304656548786096
aF-0.00014731171605864663
aF-0.000295912449677309
asg5
I0
sg6
F0.0
sg7
(F-1.2356112639056605
F-1.115528408681051
F-2.0738824049579065
F-1.5335333983050745
F1.5743204355239868
F0.33546319603919983
tp151
sg9
(lp152
F-0.10431518554687501
aF-0.024310302734375
aF-0.19999389648437502
aF0.0
aF0.0
aF0.0
asg11
I01
sg12
g13
sg14
I00
sg15
g16
sa(dp153
g2
F0.0
sg3
(lp154
F0.007581042355302043
aF0.4432764318316476
aF0.5370499381893081
aF3.1306991007197023
aF-1.7412073827940917e-06
aF-0.0003553385918401932
asg5
I0
sg6
F0.0
sg7
(F-1.209980312977926
F-1.1079314390765589
F-2.1114609877215784
F-1.5031879583941858
F1.5746440887451172
F0.3611517548561096
tp155
sg9
(lp156
F-0.10431518554687501
aF0.0
aF-0.19999389648437502
aF0.0
aF0.0
aF0.0
asg11
I01
sg12
g13
sg14
I00
sg15
g16
sa(dp157
g2
F0.0
sg3
(lp158
F-0.0030158579680194604
aF0.4416780929014383
aF0.5164271819112226
aF3.131014653743302
aF0.00018499906194681517
aF-0.00036508423662101917
asg5
I0
sg6
F0.0
sg7
(F-1.1846354643451136
F-1.1082785765277308
F-2.1475775877581995
F-1.4662607351886194
F1.5749552249908447
F0.38650473952293396
tp159
sg9
(lp160
F-0.2
aF0.0682373046875
aF-0.19999389648437502
aF0.0
aF0.0
aF0.0
asg11
I01
sg12
g13
sg14
I00
sg15
g16
sa(dp161
g2
F0.0
sg3
(lp162
F-0.01809262219285559
aF0.4436550115847389
aF0.4955855725749175
aF3.1310111513697034
aF0.00013652940149618982
aF-0.0003238672287030364
asg5
I0
sg6
F0.0
sg7
(F-1.1528599897967737
F-1.1187155882464808
F-2.178892437611715
F-1.4243949095355433
F1.575218915939331
F0.41823822259902954
tp163
sg9
(lp164
F-0.2
aF0.07137451171875
aF-0.19999389648437502
aF0.0
aF0.0
aF0.0
asg11
I01
sg12
g13
sg14
I00
sg15
g16
sa(dp165
g2
F0.0
sg3
(lp166
F-0.036863856490808575
aF0.44867271982743506
aF0.4762264442248489
aF3.130663521652102
aF9.695258440416941e-05
aF-9.768521364257867e-05
asg5
I0
sg6
F0.0
sg7
(F-1.1171558539019983
F-1.138726536427633
F-2.202521626149313
F-1.3809216658221644
F1.5756739377975464
F0.4537137746810913
tp167
sg9
(lp168
F-0.099609375
aF0.16392211914062502
aF-0.19999389648437502
aF0.0
aF0.0
aF0.0
asg11
I01
sg12
g13
sg14
I00
sg15
g16
sa(dp169
g2
F0.0
sg3
(lp170
F-0.0528311179940574
aF0.4582590651404407
aF0.4552416807161445
aF3.130725005052408
aF0.00011421372036374896
aF-0.0001955570763054808
asg5
I0
sg6
F0.0
sg7
(F-1.0937703291522425
F-1.1719549337970179
F-2.2216737906085413
F-1.3283613363849085
F1.5758893489837646
F0.47719648480415344
tp171
sg9
(lp172
F-0.02117919921875
aF0.2
aF-0.19999389648437502
aF0.0
aF0.0
aF0.0
asg11
I01
sg12
g13
sg14
I00
sg15
g16
sa(dp173
g2
F0.0
sg3
(lp174
F-0.0571984096117883
aF0.4752184192477516
aF0.4354071396392661
aF3.13066255815257
aF0.00014589416249449977
aF-0.0005664834700810698
asg5
I0
sg6
F0.0
sg7
(F-1.1024640242206019
F-1.219898525868551
F-2.2293103376971644
F-1.2728646437274378
F1.5758657455444336
F0.46887344121932983
tp175
sg9
(lp176
F0.047839355468750004
aF0.2
aF-0.19999389648437502
aF0.0
aF0.0
aF0.0
asg11
I01
sg12
g13
sg14
I00
sg15
g16
sa(dp177
g2
F0.0
sg3
(lp178
F-0.05533313076266067
aF0.49482920876420894
aF0.41352945771807653
aF3.1308485219806665
aF0.0003440280780318859
aF-0.0005783142370002191
asg5
I0
sg6
F0.0
sg7
(F-1.1248911062823694
F-1.274830166493551
F-2.234720532094137
F-1.2123807112323206
F1.5757458209991455
F0.4464580714702606
tp179
sg9
(lp180
F0.146661376953125
aF0.141961669921875
aF-0.19999389648437502
aF0.0
aF0.0
aF0.0
asg11
I01
sg12
g13
sg14
I00
sg15
g16
sa(dp181
g2
F0.0
sg3
(lp182
F-0.04311729293869845
aF0.511083784792743
aF0.3917846004794957
aF3.1307976784858136
aF0.0003628595037407415
aF-0.0003714211503386129
asg5
I0
sg6
F0.0
sg7
(F-1.162163559590475
F-1.3227046171771448
F-2.2428959051715296
F-1.156548802052633
F1.5754222869873047
F0.4089796543121338
tp183
sg9
(lp184
F0.17646484375000002
aF0.08862915039062501
aF-0.19999389648437502
aF0.0
aF0.0
aF0.0
asg11
I01
sg12
g13
sg14
I00
sg15
g16
sa(dp185
g2
F0.0
sg3
(lp186
F-0.02626699315284136
aF0.5205745826112805
aF0.3721007582250859
aF3.1302416245590363
aF0.0002142818613901257
aF-0.0002787361252189016
asg5
I0
sg6
F0.0
sg7
(F-1.2012289206134241
F-1.3572538534747522
F-2.2557151953326624
F-1.1099260489093226
F1.5750991106033325
F0.36982232332229614
tp187
sg9
(lp188
F0.14195556640625
aF0.0
aF-0.19999389648437502
aF0.0
aF0.0
aF0.0
asg11
I01
sg12
g13
sg14
I00
sg15
g16
sa(dp189
g2
F0.0
sg3
(lp190
F-0.008562422336478928
aF0.5225475828462739
aF0.35155037722934135
aF3.1303047190826723
aF0.00024673159856893225
aF-0.00022674497589466534
asg5
I0
sg6
F0.0
sg7
(F-1.236065689717428
F-1.3807428518878382
F-2.278731648121969
F-1.0634940306292933
F1.574739933013916
F0.33493512868881226
tp191
sg9
(lp192
F0.096466064453125
aF0.0
aF-0.19999389648437502
aF0.0
aF0.0
aF0.0
asg11
I01
sg12
g13
sg14
I00
sg15
g16
sa(dp193
g2
F0.0
sg3
(lp194
F0.002938824500123397
aF0.5212859591508577
aF0.3329549467129244
aF3.1307477894469686
aF0.00037689016035404613
aF-6.735134760521955e-06
asg5
I0
sg6
F0.0
sg7
(F-1.2572062651263636
F-1.3988507429706019
F-2.302634302769796
F-1.0211036841021937
F1.5745002031326294
F0.3135758638381958
tp195
sg9
(lp196
F0.0
aF0.0
aF-0.19999389648437502
aF0.0
aF0.0
aF0.0
asg11
I01
sg12
g13
sg14
I00
sg15
g16
sa(dp197
g2
F0.0
sg3
(lp198
F0.008530169063576799
aF0.5201145884598581
aF0.3139997904715836
aF3.130284323463713
aF0.00019940862829137657
aF-0.00015606165526405011
asg5
I0
sg6
F0.0
sg7
(F-1.267237965260641
F-1.4198115507708948
F-2.325506035481588
F-0.9778025786029261
F1.5743684768676758
F0.30369412899017334
tp199
sg9
(lp200
F0.0
aF0.0
aF0.0
aF0.0
aF0.0
aF0.0
asg11
I01
sg12
g13
sg14
I00
sg15
g16
sa(dp201
g2
F0.0
sg3
(lp202
F0.008862767215010316
aF0.5195640657750429
aF0.30553658011269763
aF3.130785454652574
aF0.00023683736514306682
aF8.54164335821269e-05
asg5
I0
sg6
F0.0
sg7
(F-1.2675254980670374
F-1.4297221342669886
F-2.335691515599386
F-0.9572189489947718
F1.5742489099502563
F0.3031664490699768
tp203
sg9
(lp204
F0.0
aF0.0
aF0.0
aF0.0
aF0.0
aF0.0
asg11
I01
sg12
g13
sg14
I00
sg15
g16
sa(dp205
g2
F0.0
sg3
(lp206
F0.008853206343667925
aF0.519539240380475
aF0.3053890830170839
aF3.130892260341629
aF0.0002553413537868035
aF-0.00010634960077890494
asg5
I0
sg6
F0.0
sg7
(F-1.2674897352801722
F-1.429866139088766
F-2.3359184900866907
F-0.9567397276507776
F1.5742369890213013
F0.3033941388130188
tp207
sg9
(lp208
F0.0
aF0.0
aF0.0
aF0.0
aF0.0
aF0.0
asg11
I01
sg12
g13
sg14
I00
sg15
g16
sa(dp209
g2
F0.0
sg3
(lp210
F0.008900186166253782
aF0.5194920404665956
aF0.3053572300387509
aF3.130289037263559
aF5.332748501483471e-05
aF-0.00021434736014006272
asg5
I0
sg6
F0.0
sg7
(F-1.2675498167621058
F-1.4298303763019007
F-2.3358591238604944
F-0.957470719014303
F1.5742249488830566
F0.3034420907497406
tp211
sg9
(lp212
F0.0
aF0.0
aF0.0
aF0.0
aF0.0
aF0.0
asg11
I01
sg12
g13
sg14
I00
sg15
g16
sa(dp213
g2
F0.0
sg3
(lp214
F0.008866032934152994
aF0.5199837864972408
aF0.3054557631499184
aF3.130490525370539
aF9.396719041351311e-05
aF-0.00020136632421662964
asg5
I0
sg6
F0.0
sg7
(F-1.2677767912494105
F-1.4306452910052698
F-2.3350327650653284
F-0.9572785536395472
F1.574200987815857
F0.30320239067077637
tp215
sg9
(lp216
F0.0
aF0.076080322265625
aF0.0
aF0.0
aF0.0
aF0.0
asg11
I01
sg12
g13
sg14
I00
sg15
g16
sa(dp217
g2
F0.0
sg3
(lp218
F0.008938910568838224
aF0.5248371934598866
aF0.30535851187330715
aF3.130247638492344
aF2.592111731453141e-05
aF-0.000327580494831939
asg5
I0
sg6
F0.0
sg7
(F-1.2708171049701136
F-1.440124813710348
F-2.327385489140646
F-0.9557083288775843
F1.5741770267486572
F0.3002883493900299
tp219
sg9
(lp220
F0.0
aF0.0
aF0.0
aF0.0
aF0.0
aF0.0
asg11
I01
sg12
g13
sg14
I00
sg15
g16
sa(dp221
g2
F0.0
sg3
(lp222
F0.00899185330172462
aF0.5284631286332543
aF0.30522125829487423
aF3.130102831257113
aF-3.1099899835273684e-05
aF-0.00034756821158694835
asg5
I0
sg6
F0.0
sg7
(F-1.2730439344989222
F-1.4472315947162073
F-2.3217240015613
F-0.9544256369220179
F1.5741411447525024
F0.29808175563812256
tp223
sg9
(lp224
F0.0
aF0.0
aF0.0
aF0.0
aF0.0
aF0.0
asg11
I01
sg12
g13
sg14
I00
sg15
g16
sa(dp225
g2
F0.0
sg3
(lp226
F0.00900058710523204
aF0.5283809440741106
aF0.30531873859476677
aF3.1302240486172703
aF-1.9329448215545832e-05
aF-0.00034751558514498353
asg5
I0
sg6
F0.0
sg7
(F-1.273008171712057
F-1.4469440619098108
F-2.3217838446246546
F-0.95453387895693
F1.5741171836853027
F0.2981177270412445
tp227
sg9
(lp228
F0.0
aF0.0
aF-0.039996337890625004
aF0.0
aF0.0
aF0.0
asg11
I01
sg12
g13
sg14
I00
sg15
g16
sa(dp229
g2
F0.0
sg3
(lp230
F0.008988543840390653
aF0.5283634782305564
aF0.30397656792366406
aF3.130694492263854
aF0.00017549667945953226
aF-0.0003116594574541022
asg5
I0
sg6
F0.0
sg7
(F-1.2729838530169886
F-1.448669735585348
F-2.3233636061297815
F-0.950721565877096
F1.5741651058197021
F0.29810571670532227
tp231
sg9
(lp232
F0.0
aF0.0
aF-0.11842651367187501
aF0.0
aF0.0
aF0.0
asg11
I01
sg12
g13
sg14
I00
sg15
g16
sa(dp233
g2
F0.0
sg3
(lp234
F0.009017022776733661
aF0.5281882547142148
aF0.29491085800878086
aF3.130620196296937
aF0.0001526668605479404
aF-0.00026351109507336175
asg5
I0
sg6
F0.0
sg7
(F-1.27293569246401
F-1.4605348745929163
F-2.3330825010882776
F-0.9292152563678187
F1.5741651058197021
F0.29810571670532227
tp235
sg9
(lp236
F0.0
aF0.0
aF-0.02587890625
aF0.0
aF0.0
aF0.0
asg11
I01
sg12
g13
sg14
I00
sg15
g16
sa(dp237
g2
F0.0
sg3
(lp238
F0.009044945045910894
aF0.5280587297866812
aF0.2875788199203341
aF3.1304501346138562
aF2.508915365192491e-05
aF-0.00022700426743823285
asg5
I0
sg6
F0.0
sg7
(F-1.2728999296771448
F-1.4704936186419886
F-2.3407183329211634
F-0.9118207136737269
F1.5740931034088135
F0.29810571670532227
tp239
sg9
(lp240
F0.0
aF0.0
aF0.0
aF0.0
aF0.0
aF0.0
asg11
I01
sg12
g13
sg14
I00
sg15
g16
sa(dp241
g2
F0.0
sg3
(lp242
F0.009065506983000113
aF0.5280174547356772
aF0.2873389221896656
aF3.130585527916348
aF0.00011694848258623381
aF-0.0002513440804932958
asg5
I0
sg6
F0.0
sg7
(F-1.272923771535055
F-1.470757786427633
F-2.341064993535177
F-0.911053482686178
F1.5741411447525024
F0.29810571670532227
tp243
sg9
(lp244
F0.0
aF0.0
aF0.0
aF0.0
aF0.0
aF0.0
asg11
I01
sg12
g13
sg14
I00
sg15
g16
sa(dp245
g2
F0.0
sg3
(lp246
F0.009057270447996623
aF0.5280351977413066
aF0.28692898939970646
aF3.130584933731694
aF7.897353565456975e-05
aF-0.0002510550598473099
asg5
I0
sg6
F0.0
sg7
(F-1.2729118506061
F-1.4713690916644495
F-2.3414481321917933
F-0.9100707213031214
F1.574105143547058
F0.2981177270412445
tp247
sg9
(lp248
F0.0
aF0.0
aF-0.140386962890625
aF0.0
aF0.0
aF0.0
asg11
I01
sg12
g13
sg14
I00
sg15
g16
sa(dp249
g2
F0.0
sg3
(lp250
F0.009100041891759047
aF0.5279124930594019
aF0.2797575939113367
aF3.130515763495882
aF7.057820673626517e-05
aF-0.00023911857420928418
asg5
I0
sg6
F0.0
sg7
(F-1.272923771535055
F-1.4814475218402308
F-2.3487728277789515
F-0.8927362600909632
F1.5741171836853027
F0.2980937361717224
tp251
sg9
(lp252
F0.0
aF0.0
aF-0.19999389648437502
aF0.0
aF0.0
aF0.0
asg11
I01
sg12
g13
sg14
I00
sg15
g16
sa(dp253
g2
F0.0
sg3
(lp254
F0.0092538515996308
aF0.5274447082409743
aF0.26071807137386543
aF3.130315236844576
aF3.402792927800294e-05
aF-0.0002632265521333204
asg5
I0
sg6
F0.0
sg7
(F-1.2729476133929651
F-1.5093963781939905
F-2.3676944414721888
F-0.8460682074176233
F1.5741411447525024
F0.2980937361717224
tp255
sg9
(lp256
F0.0
aF0.0
aF-0.090191650390625
aF0.0
aF0.0
aF0.0
asg11
I01
sg12
g13
sg14
I00
sg15
g16
sa(dp257
g2
F0.0
sg3
(lp258
F0.009473886424998556
aF0.5266782299577378
aF0.2461740042802658
aF3.130329228884926
aF5.321017225437445e-07
aF-0.00023905563339964063
asg5
I0
sg6
F0.0
sg7
(F-1.2729118506061
F-1.5314610640155237
F-2.382116142903463
F-0.8095782438861292
F1.574105143547058
F0.29810571670532227
tp259
sg9
(lp260
F0.0
aF0.0
aF0.0
aF0.0
aF0.0
aF0.0
asg11
I01
sg12
g13
sg14
I00
sg15
g16
sa(dp261
g2
F0.0
sg3
(lp262
F0.009419681407106204
aF0.5268103147418999
aF0.24447036178578518
aF3.1311762220006583
aF0.00027339243730290516
aF-0.00021522204063696528
asg5
I0
sg6
F0.0
sg7
(F-1.2728880087481897
F-1.534553352986471
F-2.3836119810687464
F-0.8041003386126917
F1.5741171836853027
F0.29810571670532227
tp263
sg9
(lp264
F0.0
aF0.0
aF0.0
aF0.0
aF0.0
aF0.0
asg11
I01
sg12
g13
sg14
I00
sg15
g16
sa(dp265
g2
F0.0
sg3
(lp266
F0.009455873164513226
aF0.5266924439026421
aF0.2445490399556411
aF3.130958808652794
aF0.00020683862134491417
aF-0.000191314505420953
asg5
I0
sg6
F0.0
sg7
(F-1.2728880087481897
F-1.534205738698141
F-2.383683983479635
F-0.804603401814596
F1.5741171836853027
F0.29808175563812256
tp267
sg9
(lp268
F0.0
aF0.0
aF-0.02274169921875
aF0.0
aF0.0
aF0.0
asg11
I01
sg12
g13
sg14
I00
sg15
g16
sa(dp269
g2
F0.0
sg3
(lp270
F0.009489314279375806
aF0.5266317618843298
aF0.24346394794331927
aF3.130612629488342
aF7.515205218042541e-05
aF-0.0002269372513710044
asg5
I0
sg6
F0.0
sg7
(F-1.2729118506061
F-1.5358956495868128
F-2.384641472493307
F-0.8023255507098597
F1.5740931034088135
F0.2980937361717224
tp271
sg9
(lp272
F0.0
aF0.0
aF-0.09176025390625
aF0.0
aF0.0
aF0.0
asg11
I01
sg12
g13
sg14
I00
sg15
g16
sa(dp273
g2
F0.0
sg3
(lp274
F0.009497803941482422
aF0.526552137432875
aF0.23676323242270686
aF3.1300174857827203
aF-7.005658703975437e-05
aF-0.00020348497581180682
asg5
I0
sg6
F0.0
sg7
(F-1.2728880087481897
F-1.547065560017721
F-2.390385691319601
F-0.786022965108053
F1.5741291046142578
F0.2980937361717224
tp275
sg9
(lp276
F0.0
aF0.0
aF0.0
aF0.0
aF0.0
aF0.0
asg11
I01
sg12
g13
sg14
I00
sg15
g16
sa(dp277
g2
F0.0
sg3
(lp278
F0.009515566484364626
aF0.5265386907584904
aF0.2345278260129814
aF3.130494113514606
aF6.405857897801392e-05
aF-0.00021521930553853374
asg5
I0
sg6
F0.0
sg7
(F-1.2729118506061
F-1.5509007612811487
F-2.3924203554736536
F-0.7796581427203577
F1.5741171836853027
F0.29808175563812256
tp279
sg9
(lp280
F0.0
aF0.0
aF0.0
aF0.0
aF0.0
aF0.0
asg11
I01
sg12
g13
sg14
I00
sg15
g16
sa(dp281
g2
F0.0
sg3
(lp282
F0.009498326833529818
aF0.5265579609890932
aF0.23463497731356073
aF3.1306918233014325
aF0.00011221098920692793
aF-0.00019123373932358804
asg5
I0
sg6
F0.0
sg7
(F-1.2728880087481897
F-1.5507572332965296
F-2.392348829899923
F-0.7796700636493128
F1.574105143547058
F0.29808175563812256
tp283
sg9
(lp284
F0.0
aF0.0
aF0.0
aF0.0
aF0.0
aF0.0
asg11
I01
sg12
g13
sg14
I00
sg15
g16
sa(dp285
g2
F0.0
sg3
(lp286
F0.009500219685875923
aF0.526616575867783
aF0.23475203338842782
aF3.13076463908262
aF0.00012173048340438324
aF-0.00025082303769974736
asg5
I0
sg6
F0.42555066079295156
sg7
(F-1.272923771535055
F-1.5506609121905726
F-2.3921690622912806
F-0.7798736731158655
F1.5740931034088135
F0.29810571670532227
tp287
sg9
(lp288
F0.0
aF0.0
aF0.0
aF0.0
aF0.0
aF0.0
asg11
I01
sg12
g13
sg14
I00
sg15
g16
sa(dp289
g2
F0.0
sg3
(lp290
F0.009498719500341162
aF0.5266086550756016
aF0.2347726352746189
aF3.1308288772794404
aF0.0001161468458473296
aF-0.0002626375105077577
asg5
I0
sg6
F0.42555066079295156
sg7
(F-1.2729118506061
F-1.550612751637594
F-2.3921812216388147
F-0.7798498312579554
F1.5740691423416138
F0.29812970757484436
tp291
sg9
(lp292
F0.0
aF0.0
aF0.0
aF0.0
aF0.0
aF0.0
asg11
I01
sg12
g13
sg14
I00
sg15
g16
sa(dp293
g2
F0.0
sg3
(lp294
F0.009476331131417852
aF0.5266122337157263
aF0.2347471640034389
aF3.1307644140988806
aF0.00012191990459729747
aF-0.00017870284979177786
asg5
I0
sg6
F0.42555066079295156
sg7
(F-1.2728756109820765
F-1.5506609121905726
F-2.3921812216388147
F-0.7798617521869105
F1.5740931034088135
F0.29808175563812256
tp295
sg9
(lp296
F0.0
aF0.0
aF0.0
aF0.0
aF0.0
aF0.0
asg11
I01
sg12
g13
sg14
I00
sg15
g16
sa(dp297
g2
F0.0
sg3
(lp298
F0.009498033817748401
aF0.5266312232147625
aF0.23473103584209462
aF3.1307488876350624
aF9.195449371517227e-05
aF-0.0002385974587600208
asg5
I0
sg6
F0.42555066079295156
sg7
(F-1.272923771535055
F-1.550720516835348
F-2.3921571413623255
F-0.7798498312579554
F1.5740691423416138
F0.2980937361717224
tp299
sg9
(lp300
F0.0
aF0.137255859375
aF0.0
aF0.0
aF0.0
aF0.0
asg11
I01
sg12
g13
sg14
I00
sg15
g16
sa(dp301
g2
F0.0
sg3
(lp302
F0.009546192698880428
aF0.5316310168882717
aF0.23472199030699953
aF3.130572844611029
aF0.00020785960619338587
aF-0.000330740550595109
asg5
I0
sg6
F0.42555066079295156
sg7
(F-1.2759407202350062
F-1.559470001851217
F-2.3836000601397913
F-0.7798016707049769
F1.574200987815857
F0.29516735672950745
tp303
sg9
(lp304
F0.0
aF0.2
aF0.0
aF0.0
aF0.0
aF0.0
asg11
I01
sg12
g13
sg14
I00
sg15
g16
sa(dp305
g2
F0.0
sg3
(lp306
F0.009599840859189974
aF0.5505486177714035
aF0.23474932170272703
aF3.131216192282433
aF0.0005752407749119337
aF-0.00020427135565120476
asg5
I0
sg6
F0.42555066079295156
sg7
(F-1.28652269044985
F-1.5917227903949183
F-2.3512380758868616
F-0.7792261282550257
F1.5742605924606323
F0.2844579517841339
tp307
sg9
(lp308
F0.0
aF0.2
aF0.0
aF0.0
aF0.0
aF0.0
asg11
I01
sg12
g13
sg14
I00
sg15
g16
sa(dp309
g2
F0.0
sg3
(lp310
F0.009945577292398552
aF0.5701143540207033
aF0.2344908885082604
aF3.132109119922585
aF0.0008973855145736005
aF-0.0002435926013870651
asg5
I0
sg6
F0.42555066079295156
sg7
(F-1.297187630330221
F-1.6243951956378382
F-2.3176069895373743
F-0.7792742888080042
F1.5742249488830566
F0.2738327980041504
tp311
sg9
(lp312
F0.0
aF0.076080322265625
aF0.0
aF0.0
aF0.0
aF0.0
asg11
I01
sg12
g13
sg14
I00
sg15
g16
sa(dp313
g2
F0.0
sg3
(lp314
F0.010182272378833759
aF0.5837895848212599
aF0.2334376345580994
aF3.131143171603923
aF0.0008990988028021473
aF-1.7048992674821127e-05
asg5
I0
sg6
F0.42555066079295156
sg7
(F-1.3042257467852991
F-1.6479113737689417
F-2.2940998713122767
F-0.7802212874041956
F1.5744163990020752
F0.26656511425971985
tp315
sg9
(lp316
F0.0
aF0.0
aF0.0
aF0.0
aF0.0
aF0.0
asg11
I01
sg12
g13
sg14
I00
sg15
g16
sa(dp317
g2
F0.0
sg3
(lp318
F0.010145434403960863
aF0.5844383737943697
aF0.23327776057356547
aF3.1308518546731263
aF0.0007367238729083509
aF0.0001519132491106306
asg5
I0
sg6
F0.42555066079295156
sg7
(F-1.304453198109762
F-1.6491697470294397
F-2.2929988543139856
F-0.7803891340838831
F1.5743324756622314
F0.2661692798137665
tp319
sg9
(lp320
F0.0
aF0.0
aF0.0
aF0.0
aF0.0
aF0.0
asg11
I01
sg12
g13
sg14
I00
sg15
g16
sa(dp321
g2
F0.0
sg3
(lp322
F0.010182523354349942
aF0.5842871642627924
aF0.23328037943096297
aF3.130605027254524
aF0.00018297467159850869
aF2.450783987699412e-05
asg5
I0
sg6
F0.42555066079295156
sg7
(F-1.3043692747699183
F-1.6488941351519983
F-2.293190304433004
F-0.7808564344989222
F1.5738654136657715
F0.26638534665107727
tp323
sg9
(lp324
F0.0
aF0.0
aF0.0
aF0.0
aF0.0
aF0.0
asg11
I01
sg12
g13
sg14
I00
sg15
g16
sa(dp325
g2
F0.0
sg3
(lp326
F0.01020745034941421
aF0.5842709942637294
aF0.23326019487324848
aF3.130506742179279
aF-0.0001417719144644402
aF1.549340052198552e-05
asg5
I0
sg6
F0.42555066079295156
sg7
(F-1.3043573538409632
F-1.6488822142230433
F-2.2932022253619593
F-0.781036678944723
F1.5735782384872437
F0.26640933752059937
tp327
sg9
(lp328
F0.0
aF0.0
aF0.0
aF0.0
aF0.0
aF0.0
asg11
I01
sg12
g13
sg14
I00
sg15
g16
sa(dp329
g2
F0.0
sg3
(lp330
F0.0102218884434739
aF0.5842688892955652
aF0.2332413510498677
aF3.1304377458990214
aF-0.00016100428387553082
aF-4.42773902591878e-05
asg5
I0
sg6
F0.42555066079295156
sg7
(F-1.3043811956988733
F-1.6489060560809534
F-2.2932022253619593
F-0.7810843626605433
F1.5735782384872437
F0.2664452791213989
tp331
sg9
(lp332
F0.0
aF0.0
aF0.0
aF0.0
aF0.0
aF0.0
asg11
I01
sg12
g13
sg14
I00
sg15
g16
sa(dp333
g2
F0.0
sg3
(lp334
F0.010252317579922544
aF0.5842474336575394
aF0.2332443127023932
aF3.130439566835926
aF-0.00012318078218717944
aF-8.084585364708087e-05
asg5
I0
sg6
F0.42555066079295156
sg7
(F-1.3044293562518519
F-1.6488702932940882
F-2.2932382265674036
F-0.7810724417315882
F1.5736141204833984
F0.2664332985877991
tp335
sg9
(lp336
F0.0
aF0.0
aF0.0
aF0.0
aF0.0
aF0.0
asg11
I01
sg12
g13
sg14
I00
sg15
g16
sa(dp337
g2
F0.0
sg3
(lp338
F0.01027757527755055
aF0.5842428515057984
aF0.23324022024486335
aF3.130395589589496
aF-9.813686839631509e-05
aF-0.00015239659725632896
asg5
I0
sg6
F0.42555066079295156
sg7
(F-1.304476563130514
F-1.6488702932940882
F-2.2932382265674036
F-0.7811082045184534
F1.5736501216888428
F0.2664572596549988
tp339
sg9
(lp340
F0.0
aF0.0
aF0.0
aF0.0
aF0.0
aF0.0
asg11
I01
sg12
g13
sg14
I00
sg15
g16
sa(dp341
g2
F0.0
sg3
(lp342
F0.010265374160368866
aF0.5842497823508553
aF0.23324164158027638
aF3.130343721638912
aF-4.701271314523289e-07
aF-0.00015356347362326816
asg5
I0
sg6
F0.42555066079295156
sg7
(F-1.304476563130514
F-1.6488822142230433
F-2.2932143847094935
F-0.7811444441424769
F1.5737580060958862
F0.2664572596549988
tp343
sg9
(lp344
F0.0
aF0.0
aF0.0
aF0.0
aF0.0
aF0.0
asg11
I01
sg12
g13
sg14
I00
sg15
g16
sa(dp345
g2
F0.0
sg3
(lp346
F0.010437159881740208
aF0.5839471966507307
aF0.23381190856799006
aF3.1290974438795627
aF-0.0006261825058814642
aF-0.00024625604390506576
asg5
I0
sg6
F0.42555066079295156
sg7
(F-1.304584805165426
F-1.6474559942828577
F-2.2929869333850306
F-0.7841652075396937
F1.5734823942184448
F0.2664452791213989
tp347
sg9
(lp348
F0.0
aF0.0
aF0.2
aF0.0
aF0.0
aF0.0
asg11
I01
sg12
g13
sg14
I00
sg15
g16
sa(dp349
g2
F0.0
sg3
(lp350
F0.010577584184452466
aF0.58370481548587
aF0.24692520142931146
aF3.129135238482328
aF-0.0007403204683018811
aF-0.00036503854628100864
asg5
I0
sg6
F0.42555066079295156
sg7
(F-1.3046930472003382
F-1.6269963423358362
F-2.2831481138812464
F-0.8144572416888636
F1.5733624696731567
F0.2664572596549988
tp351
sg9
(lp352
F0.0
aF0.0
aF0.2
aF0.0
aF0.0
aF0.0
asg11
I01
sg12
g13
sg14
I00
sg15
g16
sa(dp353
g2
F0.0
sg3
(lp354
F0.010673322964911738
aF0.5832512050690722
aF0.26659024117322555
aF3.1299788261865538
aF-0.00043554662831504114
aF-0.00033014063147222936
asg5
I0
sg6
F0.42555066079295156
sg7
(F-1.3046568075763147
F-1.5976436773883265
F-2.2677205244647425
F-0.8583434263812464
F1.5734343528747559
F0.2664572596549988
tp355
sg9
(lp356
F0.0
aF0.0
aF0.2
aF0.0
aF0.0
aF0.0
asg11
I01
sg12
g13
sg14
I00
sg15
g16
sa(dp357
g2
F0.0
sg3
(lp358
F0.010930624156767828
aF0.5823257977199293
aF0.2877856099904256
aF3.1301888794215667
aF-5.521651428368979e-05
aF-0.00039375344624150425
asg5
I0
sg6
F0.42555066079295156
sg7
(F-1.3047168890582483
F-1.5672248045550745
F-2.2502930800067347
F-0.9058869520770472
F1.5737459659576416
F0.2664572596549988
tp359
sg9
(lp360
F0.0
aF0.0
aF0.2
aF0.0
aF0.0
aF0.0
asg11
I01
sg12
g13
sg14
I00
sg15
g16
sa(dp361
g2
F0.0
sg3
(lp362
F0.01113294529592064
aF0.5814687371555807
aF0.30730713429844947
aF3.1300787523063893
aF-4.8332011563085597e-05
aF-0.0003459816890461792
asg5
I0
sg6
F0.42555066079295156
sg7
(F-1.3046687285052698
F-1.5409773031817835
F-2.2329371611224573
F-0.949594799672262
F1.5737816095352173
F0.2664572596549988
tp363
sg9
(lp364
F0.0
aF0.0
aF0.2
aF0.0
aF0.0
aF0.0
asg11
I01
sg12
g13
sg14
I00
sg15
g16
sa(dp365
g2
F0.0
sg3
(lp366
F0.011349766698050547
aF0.5806985949950205
aF0.32838610260400675
aF3.130101292166173
aF-4.2041604759657865e-05
aF-0.00034592389548852794
asg5
I0
sg6
F0.42555066079295156
sg7
(F-1.304680649434225
F-1.5148375670062464
F-2.212707821522848
F-0.9959405104266565
F1.5737816095352173
F0.2664452791213989
tp367
sg9
(lp368
F0.0
aF0.0
aF0.2
aF0.0
aF0.0
aF0.0
asg11
I01
sg12
g13
sg14
I00
sg15
g16
sa(dp369
g2
F0.0
sg3
(lp370
F0.011583395215982388
aF0.579782660642477
aF0.34959001618921426
aF3.1304271078475185
aF7.145969555347047e-05
aF-0.00034629853946670843
asg5
I0
sg6
F0.42555066079295156
sg7
(F-1.3046568075763147
F-1.4902928511248987
F-2.1914008299456995
F-1.04144794145693
F1.573805570602417
F0.26646924018859863
tp371
sg9
(lp372
F0.0
aF0.0
aF0.2
aF0.0
aF0.0
aF0.0
asg11
I01
sg12
g13
sg14
I00
sg15
g16
sa(dp373
g2
F0.0
sg3
(lp374
F0.011742565725897991
aF0.5790089345939247
aF0.36910359936804316
aF3.1304392820781057
aF0.00011224225551236023
aF-0.00023879992304163443
asg5
I0
sg6
F0.42555066079295156
sg7
(F-1.304572884236471
F-1.4695952574359339
F-2.1705129782306116
F-1.0830109755145472
F1.5738414525985718
F0.2664452791213989
tp375
sg9
(lp376
F0.0
aF0.0
aF0.2
aF0.0
aF0.0
aF0.0
asg11
I01
sg12
g13
sg14
I00
sg15
g16
sa(dp377
g2
F0.0
sg3
(lp378
F0.011956891356799743
aF0.5783119812606936
aF0.3901515982712658
aF3.1304767884845406
aF8.502143845702276e-05
aF-0.0002986109366156769
asg5
I0
sg6
F0.42555066079295156
sg7
(F-1.3046091238604944
F-1.4493768850909632
F-2.146643940602438
F-1.1270692984210413
F1.573805570602417
F0.26646924018859863
tp379
sg9
(lp380
F0.0
aF0.0
aF0.085491943359375
aF0.0
aF0.0
aF0.0
asg11
I01
sg12
g13
sg14
I00
sg15
g16
sa(dp381
g2
F0.0
sg3
(lp382
F0.012104449878623942
aF0.5774549838286506
aF0.4056081125617474
aF3.130356926643368
aF8.801630122752629e-05
aF-0.0002868397496894382
asg5
I0
sg6
F0.42555066079295156
sg7
(F-1.304465119038717
F-1.435115162526266
F-2.1288908163653772
F-1.1591985861407679
F1.5738414525985718
F0.2666010856628418
tp383
sg9
(lp384
F-0.101177978515625
aF0.0
aF0.0
aF0.0
aF0.0
aF0.0
asg11
I01
sg12
g13
sg14
I00
sg15
g16
sa(dp385
g2
F0.0
sg3
(lp386
F0.007304534809911587
aF0.5773168354410376
aF0.40907028322557515
aF3.1298227878569733
aF-0.00013273631999625847
aF-0.0003266484127061425
asg5
I0
sg6
F0.42555066079295156
sg7
(F-1.2960503737079065
F-1.4320476690875452
F-2.1247251669513147
F-1.1669796148883265
F1.5738654136657715
F0.2750559449195862
tp387
sg9
(lp388
F-0.2
aF0.0
aF0.0
aF0.0
aF0.0
aF0.0
asg11
I01
sg12
g13
sg14
I00
sg15
g16
sa(dp389
g2
F0.0
sg3
(lp390
F-0.009112624855145158
aF0.5771924954694521
aF0.4089508239896166
aF3.1300455820887048
aF-2.096764889212325e-05
aF-0.00011810074773340494
asg5
I0
sg6
F0.42555066079295156
sg7
(F-1.2676213423358362
F-1.4319513479815882
F-2.125108067189352
F-1.1663559118853968
F1.5742249488830566
F0.3032743036746979
tp391
sg9
(lp392
F-0.2
aF0.0
aF0.0
aF0.0
aF0.0
aF0.0
asg11
I01
sg12
g13
sg14
I00
sg15
g16
sa(dp393
g2
F0.0
sg3
(lp394
F-0.028514532066221294
aF0.5765652663968044
aF0.4089502970335359
aF3.130262960946062
aF-2.9680662587637108e-05
aF-3.6544076725014594e-05
asg5
I0
sg6
F0.42555066079295156
sg7
(F-1.2340429464923304
F-1.4319513479815882
F-2.1251800696002405
F-1.1659606138812464
F1.574512243270874
F0.3367702066898346
tp395
sg9
(lp396
F-0.2
aF0.0
aF0.0
aF0.0
aF0.0
aF0.0
asg11
I01
sg12
g13
sg14
I00
sg15
g16
sa(dp397
g2
F0.0
sg3
(lp398
F-0.04934256811867705
aF0.5756099253778519
aF0.40885255958037525
aF3.1302520120588997
aF-5.6931164832932745e-05
aF-1.7325277416957645e-05
asg5
I0
sg6
F0.42555066079295156
sg7
(F-1.198235813771383
F-1.4328621069537562
F-2.124629322682516
F-1.165480915700094
F1.5748714208602905
F0.3725565969944
tp399
sg9
(lp400
F-0.2
aF0.0
aF0.0
aF0.0
aF0.0
aF0.0
asg11
I01
sg12
g13
sg14
I00
sg15
g16
sa(dp401
g2
F0.0
sg3
(lp402
F-0.0686233054755647
aF0.5749471860713774
aF0.4089101095419853
aF3.1303207619024533
aF4.577788142852106e-06
aF8.39925224257268e-06
asg5
I0
sg6
F0.42555066079295156
sg7
(F-1.1656830946551722
F-1.435211483632223
F-2.122594181691305
F-1.164941136037008
F1.5752428770065308
F0.40508177876472473
tp403
sg9
(lp404
F-0.2
aF0.0
aF0.0
aF0.0
aF0.0
aF0.0
asg11
I01
sg12
g13
sg14
I00
sg15
g16
sa(dp405
g2
F0.0
sg3
(lp406
F-0.0894749173612711
aF0.5742185620476098
aF0.4089779793379613
aF3.130496772811204
aF9.033709604476167e-05
aF-2.6995437739840115e-05
asg5
I0
sg6
F0.42555066079295156
sg7
(F-1.1310327688800257
F-1.4390223662005823
F-2.1193259398089808
F-1.1640422979937952
F1.5756020545959473
F0.4397660195827484
tp407
sg9
(lp408
F-0.2
aF0.0
aF0.0
aF0.0
aF0.0
aF0.0
asg11
I01
sg12
g13
sg14
I00
sg15
g16
sa(dp409
g2
F0.0
sg3
(lp410
F-0.10887659930468842
aF0.5735035197196916
aF0.4089418997723439
aF3.130460419764262
aF0.0001242590747492932
aF0.0001597579599247492
asg5
I0
sg6
F0.42555066079295156
sg7
(F-1.0993621985064905
F-1.4437921682940882
F-2.115375820790426
F-1.1630833784686487
F1.5759612321853638
F0.47124820947647095
tp411
sg9
(lp412
F-0.2
aF0.0
aF0.0
aF0.0
aF0.0
aF0.0
asg11
I01
sg12
g13
sg14
I00
sg15
g16
sa(dp413
g2
F0.0
sg3
(lp414
F-0.1297243109716076
aF0.5726672124371355
aF0.408856782925825
aF3.1303381981904357
aF6.485013128157587e-05
aF-4.9590206411133714e-05
asg5
I0
sg6
F0.42555066079295156
sg7
(F-1.06596547762026
F-1.4500959555255335
F-2.1101558844195765
F-1.1619561354266565
F1.5762968063354492
F0.5048530697822571
tp415
sg9
(lp416
F-0.2
aF0.0
aF0.0
aF0.0
aF0.0
aF0.0
asg11
I01
sg12
g13
sg14
I00
sg15
g16
sa(dp417
g2
F0.0
sg3
(lp418
F-0.15052103516451937
aF0.5718072785493438
aF0.40889379330264236
aF3.130405584174492
aF0.0001383732425428346
aF-0.00023208050377630153
asg5
I0
sg6
F0.42555066079295156
sg7
(F-1.0334046522723597
F-1.4574907461749476
F-2.103762928639547
F-1.1606734434710901
F1.576643943786621
F0.5375950932502747
tp419
sg9
(lp420
F-0.2
aF0.043139648437500004
aF0.0
aF0.0
aF0.0
aF0.0
asg11
I01
sg12
g13
sg14
I00
sg15
g16
sa(dp421
g2
F0.0
sg3
(lp422
F-0.16994414427753815
aF0.5725608187042401
aF0.40904032567875864
aF3.130740989717025
aF0.00030735266202290676
aF-9.971462855107604e-06
asg5
I0
sg6
F0.42555066079295156
sg7
(F-1.0051773230182093
F-1.4680607954608362
F-2.0943663755999964
F-1.1589587370501917
F1.576871633529663
F0.5655999779701233
tp423
sg9
(lp424
F-0.2
aF0.11372680664062501
aF0.0
aF0.0
aF0.0
aF0.0
asg11
I01
sg12
g13
sg14
I00
sg15
g16
sa(dp425
g2
F0.0
sg3
(lp426
F-0.1911282211148937
aF0.5792927889965244
aF0.4088404890146976
aF3.1307658422701246
aF0.00030770193583162445
aF-0.0001402255087255893
asg5
I0
sg6
F0.42555066079295156
sg7
(F-0.9809964338885706
F-1.4908917585956019
F-2.0743969122516077
F-1.1559260527240198
F1.5770750045776367
F0.5899107456207275
tp427
sg9
(lp428
F-0.2
aF0.12000122070312501
aF0.0
aF0.0
aF0.0
aF0.0
asg11
I01
sg12
g13
sg14
I00
sg15
g16
sa(dp429
g2
F0.0
sg3
(lp430
F-0.21077946803467307
aF0.5897714751942081
aF0.4081894125610484
aF3.13045625138518
aF0.0001993825360230857
aF-0.00016524061603553444
asg5
I0
sg6
F0.42555066079295156
sg7
(F-0.9637015501605433
F-1.5199311415301722
F-2.048788849507467
F-1.1527007261859339
F1.5773146152496338
F0.607229471206665
tp431
sg9
(lp432
F-0.2
aF0.107452392578125
aF0.0
aF0.0
aF0.0
aF0.0
asg11
I01
sg12
g13
sg14
I00
sg15
g16
sa(dp433
g2
F0.0
sg3
(lp434
F-0.23205030566948195
aF0.6014546534968744
aF0.40746032497453866
aF3.130307840822888
aF3.62222305772916e-05
aF3.756332066204353e-06
asg5
I0
sg6
F0.42555066079295156
sg7
(F-0.9464300314532679
F-1.552063290272848
F-2.019348923360006
F-1.150111500416891
F1.5774224996566772
F0.624332070350647
tp435
sg9
(lp436
F-0.2
aF0.116864013671875
aF0.0
aF0.0
aF0.0
aF0.0
asg11
I01
sg12
g13
sg14
I00
sg15
g16
sa(dp437
g2
F0.0
sg3
(lp438
F-0.25148608447184956
aF0.611815636570216
aF0.4067662244908165
aF3.13022667278471
aF-3.123123730521113e-05
aF7.218626650237694e-06
asg5
I0
sg6
F0.42555066079295156
sg7
(F-0.9313262144671839
F-1.5810321013080042
F-1.9918587843524378
F-1.1486371199237269
F1.5775539875030518
F0.6394321918487549
tp439
sg9
(lp440
F-0.07764892578125
aF0.19686279296875
aF0.0
aF0.0
aF0.0
aF0.0
asg11
I01
sg12
g13
sg14
I00
sg15
g16
sa(dp441
g2
F0.0
sg3
(lp442
F-0.2675577910524733
aF0.6269630957274233
aF0.40601452119338843
aF3.1300753416868092
aF-9.561534005396079e-05
aF-0.0003482550829591442
asg5
I0
sg6
F0.42555066079295156
sg7
(F-0.925516430531637
F-1.615190331135885
F-1.958022419606344
F-1.148433033620016
F1.5776498317718506
F0.645596981048584
tp443
sg9
(lp444
F0.0
aF0.15607910156250002
aF0.0
aF0.0
aF0.0
aF0.0
asg11
I01
sg12
g13
sg14
I00
sg15
g16
sa(dp445
g2
F0.0
sg3
(lp446
F-0.2722582071934142
aF0.6457764009096182
aF0.40510467506058856
aF3.1299567187899204
aF-8.633172410260296e-05
aF-0.0005021170460576563
asg5
I0
sg6
F0.42555066079295156
sg7
(F-0.936620060597555
F-1.64726430574526
F-1.9253819624530237
F-1.1491640249835413
F1.5776258707046509
F0.6346467137336731
tp447
sg9
(lp448
F0.047839355468750004
aF0.12000122070312501
aF0.0
aF0.0
aF0.0
aF0.0
asg11
I01
sg12
g13
sg14
I00
sg15
g16
sa(dp449
g2
F0.0
sg3
(lp450
F-0.2698012811457843
aF0.6598719445209976
aF0.40483486772861405
aF3.13008360696593
aF0.00016439554974980185
aF-0.0003877911442012002
asg5
I0
sg6
F0.42555066079295156
sg7
(F-0.9515326658831995
F-1.6670287291156214
F-1.9041631857501429
F-1.150471035634176
F1.5776139497756958
F0.6196188926696777
tp451
sg9
(lp452
F0.058819580078125
aF0.19843139648437502
aF0.0
aF0.0
aF0.0
aF0.0
asg11
I01
sg12
g13
sg14
I00
sg15
g16
sa(dp453
g2
F0.0
sg3
(lp454
F-0.2639789196689793
aF0.6756001422278339
aF0.40473151552717057
aF3.1303575102684817
aF0.0002984108271785799
aF-0.0004081868027450989
asg5
I0
sg6
F0.42555066079295156
sg7
(F-0.971175495778219
F-1.6871054808246058
F-1.8818185965167444
F-1.1525691191302698
F1.5773866176605225
F0.599997341632843
tp455
sg9
(lp456
F0.0
aF0.0
aF0.0
aF0.0
aF0.0
aF0.0
asg11
I01
sg12
g13
sg14
I00
sg15
g16
sa(dp457
g2
F0.0
sg3
(lp458
F-0.2495181058874686
aF0.7076665308079603
aF0.40366752592853106
aF3.1301138350121933
aF0.000158137488434424
aF-0.00024100662093366415
asg5
I0
sg6
F0.1973568281938326
sg7
(F-1.012338940297262
F-1.7277262846576136
F-1.8366244474994105
F-1.1576879660235804
F1.5770150423049927
F0.5586674809455872
tp459
sg9
(lp460
F0.0
aF0.0
aF0.0
aF0.0
aF0.0
aF0.0
asg11
I01
sg12
g13
sg14
I00
sg15
g16
sa(dp461
g2
F0.0
sg3
(lp462
F-0.24537327434870645
aF0.7155707806902488
aF0.40331524962688065
aF3.1301307027678287
aF0.0001887623445110484
aF-0.0002620416825945341
asg5
I0
sg6
F0.08325991189427318
sg7
(F-1.0227702299701136
F-1.7376154104815882
F-1.8255341688739222
F-1.1589229742633265
F1.5769315958023071
F0.5482573509216309
tp463
sg9
(lp464
F0.0
aF0.0
aF0.0
aF0.0
aF0.0
aF0.0
asg11
I01
sg12
g13
sg14
I00
sg15
g16
sa(dp465
g2
F0.0
sg3
(lp466
F-0.2432855060523753
aF0.7186336828624096
aF0.4031032691719939
aF3.130151018218085
aF0.0001544871104855549
aF-0.0002670656914514066
asg5
I0
sg6
F0.0
sg7
(F-1.0273211638080042
F-1.7412713209735315
F-1.8215587774859827
F-1.1592705885516565
F1.5768476724624634
F0.5437119603157043
tp467
sg9
(lp468
F0.0
aF0.0
aF0.0
aF0.0
aF0.0
aF0.0
asg11
I01
sg12
g13
sg14
I00
sg15
g16
sa(dp469
g2
F0.0
sg3
(lp470
F-0.2434825596216615
aF0.7185777491532332
aF0.40320864838567083
aF3.130354056563175
aF0.00030430030504272954
aF-8.741619165472592e-05
asg5
I0
sg6
F0.0
sg7
(F-1.0270574728595179
F-1.7411993185626429
F-1.8214986960040491
F-1.1591509024249476
F1.576871633529663
F0.5437958240509033
tp471
sg9
(lp472
F0.0
aF0.0
aF0.0
aF0.0
aF0.0
aF0.0
asg11
I01
sg12
g13
sg14
I00
sg15
g16
sa(dp473
g2
F0.0
sg3
(lp474
F-0.24357828620834232
aF0.7185028259532741
aF0.4032083720834516
aF3.130322021756433
aF0.00023992471827799706
aF-0.00018374528173480654
asg5
I0
sg6
F0.0
sg7
(F-1.0268901030169886
F-1.741138760243551
F-1.8215587774859827
F-1.159210507069723
F1.5768356323242188
F0.5440598726272583
tp475
sg9
(lp476
F0.0
aF0.0
aF0.0
aF0.0
aF0.0
aF0.0
asg11
I01
sg12
g13
sg14
I00
sg15
g16
sa(dp477
g2
F0.0
sg3
(lp478
F-0.24355575057363446
aF0.7185018188740744
aF0.40324208773676257
aF3.1303179873368663
aF0.0002232847565699363
aF-0.0002314340727817226
asg5
I0
sg6
F0.0
sg7
(F-1.0269139448748987
F-1.7411029974566858
F-1.8215344587909144
F-1.1592825094806116
F1.5768237113952637
F0.544083833694458
tp479
sg9
(lp480
F0.0
aF0.0
aF0.0
aF0.0
aF0.0
aF0.0
asg11
I01
sg12
g13
sg14
I00
sg15
g16
sa(dp481
g2
F0.0
sg3
(lp482
F-0.24354167028920737
aF0.7185020165679278
aF0.4032328001003571
aF3.1303158182798163
aF0.00018003030075033614
aF-0.00023103210789120147
asg5
I0
sg6
F0.0
sg7
(F-1.0269258658038538
F-1.7411029974566858
F-1.8215468565570276
F-1.1592944304095667
F1.5767877101898193
F0.5440718531608582
tp483
sg9
(lp484
F0.0
aF0.0
aF0.0
aF0.0
aF0.0
aF0.0
asg11
I01
sg12
g13
sg14
I00
sg15
g16
sa(dp485
g2
F0.0
sg3
(lp486
F-0.24353239920243522
aF0.718482415606912
aF0.4032365224563402
aF3.1303034154079534
aF0.00020053027873951886
aF-0.00023126341971132255
asg5
I0
sg6
F0.0
sg7
(F-1.0269258658038538
F-1.7410672346698206
F-1.8215826193438929
F-1.1592944304095667
F1.576811671257019
F0.5440718531608582
tp487
sg9
(lp488
F0.0
aF0.0
aF0.0
aF0.0
aF0.0
aF0.0
asg11
I01
sg12
g13
sg14
I00
sg15
g16
sa(dp489
g2
F0.0
sg3
(lp490
F-0.24355516030238283
aF0.7184688547066358
aF0.40321107754450813
aF3.1302622116976915
aF0.00017573572262536324
aF-0.00018352861744420568
asg5
I0
sg6
F0.0
sg7
(F-1.0268901030169886
F-1.7410791555987757
F-1.821606461201803
F-1.15930682817568
F1.576811671257019
F0.5440598726272583
tp491
sg9
(lp492
F0.0
aF0.0
aF0.0
aF0.0
aF0.0
aF0.0
asg11
I01
sg12
g13
sg14
I00
sg15
g16
sa(dp493
g2
F0.0
sg3
(lp494
F-0.24358425927382873
aF0.718469359673106
aF0.40324410436980573
aF3.1303260132822923
aF0.00018593120921261736
aF-0.0001829873761794136
asg5
I0
sg6
F0.0
sg7
(F-1.0268538633929651
F-1.7410672346698206
F-1.8215706984149378
F-1.1592944304095667
F1.5767877101898193
F0.5440958142280579
tp495
sg9
(lp496
F0.0
aF0.0
aF0.0
aF0.0
aF0.0
aF0.0
asg11
I01
sg12
g13
sg14
I00
sg15
g16
sa(dp497
g2
F0.0
sg3
(lp498
F-0.24354345315450113
aF0.718483628368385
aF0.4032010097537991
aF3.1302520081052934
aF0.00016929325083768243
aF-0.00023133176304625583
asg5
I0
sg6
F0.0
sg7
(F-1.0269139448748987
F-1.7411029974566858
F-1.821594540272848
F-1.15930682817568
F1.576811671257019
F0.544083833694458
tp499
sg9
(lp500
F0.0
aF0.0
aF0.0
aF0.0
aF0.0
aF0.0
asg11
I01
sg12
g13
sg14
I00
sg15
g16
sa(dp501
g2
F0.0
sg3
(lp502
F-0.2435523100321344
aF0.7184812077477808
aF0.4032044988902348
aF3.1302316112162
aF0.00015708738308553932
aF-0.0002074344010076261
asg5
I0
sg6
F0.0
sg7
(F-1.0269020239459437
F-1.7411029974566858
F-1.8215826193438929
F-1.1593425909625452
F1.576811671257019
F0.5440718531608582
tp503
sg9
(lp504
F0.0
aF0.0
aF0.0
aF0.0
aF0.0
aF0.0
asg11
I01
sg12
g13
sg14
I00
sg15
g16
sa(dp505
g2
F0.0
sg3
(lp506
F-0.2435635974598154
aF0.7184870752158854
aF0.4032210442658859
aF3.130274610602218
aF0.0001549644190487634
aF-0.00020725599208613177
asg5
I0
sg6
F0.0
sg7
(F-1.0268901030169886
F-1.7411029974566858
F-1.8215587774859827
F-1.1593306700335901
F1.5767877101898193
F0.544083833694458
tp507
sg9
(lp508
F0.0
aF0.0
aF0.0
aF0.0
aF0.0
aF0.0
asg11
I01
sg12
g13
sg14
I00
sg15
g16
sa(dp509
g2
F0.0
sg3
(lp510
F-0.24354403408829284
aF0.7184675225215228
aF0.40322066078261787
aF3.130231607455723
aF0.0001568151661967793
aF-0.00023139392215167014
asg5
I0
sg6
F0.0
sg7
(F-1.0269020239459437
F-1.7410672346698206
F-1.821594540272848
F-1.1593664328204554
F1.576811671257019
F0.5440958142280579
tp511
sg9
(lp512
F0.0
aF0.0
aF0.0
aF0.0
aF0.0
aF0.0
asg11
I01
sg12
g13
sg14
I00
sg15
g16
sa(dp513
g2
F0.0
sg3
(lp514
F-0.24337415487298356
aF0.7184453746548696
aF0.40320560161790076
aF3.130227606155282
aF0.00014262846635618474
aF-0.00021847694903727262
asg5
I0
sg6
F0.0
sg7
(F-1.027081314717428
F-1.7409589926349085
F-1.8217504660235804
F-1.1593306700335901
F1.576799750328064
F0.5439037084579468
tp515
sg9
(lp516
F0.17960205078125002
aF0.0
aF0.0
aF0.0
aF0.0
aF0.0
asg11
I01
sg12
g13
sg14
I00
sg15
g16
sa(dp517
g2
F0.0
sg3
(lp518
F-0.23591462385168233
aF0.7184140808326744
aF0.4033679125068452
aF3.1304090538249008
aF0.0002498210007544175
aF-0.0002054316426204331
asg5
I0
sg6
F0.0
sg7
(F-1.0357039610492151
F-1.7370641867267054
F-1.8261335531817835
F-1.1586831251727503
F1.5767158269882202
F0.5352683067321777
tp519
sg9
(lp520
F0.19999389648437502
aF0.0
aF0.0
aF0.0
aF0.0
aF0.0
asg11
I01
sg12
g13
sg14
I00
sg15
g16
sa(dp521
g2
F0.0
sg3
(lp522
F-0.21557724056219715
aF0.717994809685929
aF0.40312417829919367
aF3.130023974140527
aF-1.1577381701984008e-05
aF-0.0004207792892133733
asg5
I0
sg6
F0.0
sg7
(F-1.0593550840960901
F-1.7269952932940882
F-1.8384326140033167
F-1.1570528189288538
F1.5764524936676025
F0.5118335485458374
tp523
sg9
(lp524
F0.19999389648437502
aF0.0
aF0.0
aF0.0
aF0.0
aF0.0
asg11
I01
sg12
g13
sg14
I00
sg15
g16
sa(dp525
g2
F0.0
sg3
(lp526
F-0.19633269340671294
aF0.7175344416515119
aF0.4030486140960407
aF3.1300782234518922
aF4.8519364734560555e-05
aF-0.0004935478043005999
asg5
I0
sg6
F0.0
sg7
(F-1.0822036902057093
F-1.7179339567767542
F-1.849234406148092
F-1.1553624312030237
F1.5762487649917603
F0.489058256149292
tp527
sg9
(lp528
F0.19999389648437502
aF0.0
aF0.0
aF0.0
aF0.0
aF0.0
asg11
I01
sg12
g13
sg14
I00
sg15
g16
sa(dp529
g2
F0.0
sg3
(lp530
F-0.17571187818445366
aF0.7170834647855943
aF0.40317651838294327
aF3.130344652940854
aF0.000295252980550999
aF-0.00035728518115101063
asg5
I0
sg6
F0.0
sg7
(F-1.107253376637594
F-1.7089079062091272
F-1.8595688978778284
F-1.153839413319723
F1.576093077659607
F0.4638722836971283
tp531
sg9
(lp532
F0.19999389648437502
aF0.0
aF0.0
aF0.0
aF0.0
aF0.0
asg11
I01
sg12
g13
sg14
I00
sg15
g16
sa(dp533
g2
F0.0
sg3
(lp534
F-0.15649048073190294
aF0.7164864242756035
aF0.4029644314712645
aF3.130105502036979
aF0.00015197007053880694
aF-0.00047349803570208705
asg5
I0
sg6
F0.0
sg7
(F-1.1309612433062952
F-1.7012365500079554
F-1.8687661329852503
F-1.1527131239520472
F1.5758297443389893
F0.4402817189693451
tp535
sg9
(lp536
F0.19999389648437502
aF0.0
aF0.0
aF0.0
aF0.0
aF0.0
asg11
I01
sg12
g13
sg14
I00
sg15
g16
sa(dp537
g2
F0.0
sg3
(lp538
F-0.13598074920619052
aF0.7158828032946137
aF0.40295682954348816
aF3.130093788976181
aF0.00012568528234929827
aF-0.00046476270110600926
asg5
I0
sg6
F0.0
sg7
(F-1.1567752997027796
F-1.6937454382525843
F-1.8773520628558558
F-1.1517661253558558
F1.5755420923233032
F0.4144602119922638
tp539
sg9
(lp540
F0.0
aF0.0
aF0.0
aF0.0
aF0.0
aF0.0
asg11
I01
sg12
g13
sg14
I00
sg15
g16
sa(dp541
g2
F0.0
sg3
(lp542
F-0.12348464552197468
aF0.7154734927223944
aF0.4030648782931576
aF3.130122833846276
aF0.0001414216925119986
aF-0.00014926897347132287
asg5
I0
sg6
F0.0
sg7
(F-1.172723118458883
F-1.6894543806659144
F-1.8820341269122522
F-1.1514180342303675
F1.5753743648529053
F0.39819759130477905
tp543
sg9
(lp544
F0.0
aF0.0
aF0.0
aF0.0
aF0.0
aF0.0
asg11
I01
sg12
g13
sg14
I00
sg15
g16
sa.