(lp0
(dp1
S'start_gripper_pos'
p2
F0.0
sS'curr_pos'
p3
(lp4
F0.16193602726166106
aF0.4599459106710604
aF0.5962170669898785
aF3.131198718053685
aF5.060612482099135e-05
aF-0.0003470394019897849
asS'gripper_ac'
p5
I0
sS'curr_gripper_pos'
p6
F0.0
sS'curr_q'
p7
(F-1.56645375887026
F-1.1894496122943323
F-1.9621413389789026
F-1.5711916128741663
F1.5708956718444824
F0.004688828252255917
tp8
sS'xdot_h'
p9
(lp10
F-0.2
aF0.08862915039062501
aF0.0
aF0.0
aF0.0
aF0.0
asS'trans_mode'
p11
I01
sS'start_pos'
p12
(lp13
F0.16416744339671374
aF0.4593517860726809
aF0.5961229683800721
aF3.1309707453671507
aF0.0002347539660876245
aF-0.00019384842375657108
asS'slow_mode'
p14
I00
sS'start_q'
p15
(F-1.5713112990008753
F-1.1898215452777308
F-1.962081257496969
F-1.571132008229391
F1.5710034370422363
F-0.00026351610292607575
tp16
sa(dp17
g2
F0.0
sg3
(lp18
F0.14694765109626554
aF0.4655646399734142
aF0.5960066123678953
aF3.130855100182341
aF2.9266039050314893e-05
aF1.6377012027070384e-06
asg5
I0
sg6
F0.0
sg7
(F-1.5341594854937952
F-1.1906240622149866
F-1.9617341200457972
F-1.5707600752459925
F1.5712188482284546
F0.036632779985666275
tp19
sg9
(lp20
F-0.2
aF0.09647216796875001
aF0.0
aF0.0
aF0.0
aF0.0
asg11
I01
sg12
g13
sg14
I00
sg15
g16
sa(dp21
g2
F0.0
sg3
(lp22
F0.12543494818125714
aF0.47454126279610864
aF0.595975483996475
aF3.1306879802318464
aF-7.427399030351466e-05
aF0.0001077304829925197
asg5
I0
sg6
F0.0
sg7
(F-1.4888322989093226
F-1.195608917866842
F-1.958740536366598
F-1.56891376176943
F1.5716139078140259
F0.0818522572517395
tp23
sg9
(lp24
F-0.17490234375000002
aF0.138824462890625
aF0.0
aF0.0
aF0.0
aF0.0
asg11
I01
sg12
g13
sg14
I00
sg15
g16
sa(dp25
g2
F0.0
sg3
(lp26
F0.1068157425225619
aF0.4851419901166093
aF0.5960687364459674
aF3.130876266548029
aF-7.984572172026003e-05
aF-0.0003925287082246057
asg5
I0
sg6
F0.0
sg7
(F-1.4514249006854456
F-1.2066572348224085
F-1.951843563710348
F-1.5645373503314417
F1.5719974040985107
F0.1197579875588417
tp27
sg9
(lp28
F-0.145098876953125
aF0.17490234375000002
aF0.0
aF0.0
aF0.0
aF0.0
asg11
I01
sg12
g13
sg14
I00
sg15
g16
sa(dp29
g2
F0.0
sg3
(lp30
F0.08908138104401074
aF0.5008967238089769
aF0.5957811938753161
aF3.1307404866920443
aF-8.595056709355315e-05
aF-0.00040036674199810243
asg5
I0
sg6
F0.0
sg7
(F-1.4190052191363733
F-1.2289698759662073
F-1.938265625630514
F-1.5558932463275355
F1.5723565816879272
F0.15218356251716614
tp31
sg9
(lp32
F-0.10274658203125
aF0.2
aF0.0
aF0.0
aF0.0
aF0.0
asg11
I01
sg12
g13
sg14
I00
sg15
g16
sa(dp33
g2
F0.0
sg3
(lp34
F0.07641575371179872
aF0.5184685560900572
aF0.5954716288467247
aF3.130912787601829
aF8.469949824334959e-06
aF-0.00047825768796165785
asg5
I0
sg6
F0.0
sg7
(F-1.399306599293844
F-1.2571304480182093
F-1.9203885237323206
F-1.5453909079181116
F1.5726321935653687
F0.17195828258991241
tp35
sg9
(lp36
F-0.0494140625
aF0.2
aF0.0
aF0.0
aF0.0
aF0.0
asg11
I01
sg12
g13
sg14
I00
sg15
g16
sa(dp37
g2
F0.0
sg3
(lp38
F0.06764428580232112
aF0.5392102505011604
aF0.5948365647071996
aF3.1308117084102385
aF-3.5593972949396957e-06
aF-0.0002822936872958714
asg5
I0
sg6
F0.0
sg7
(F-1.3894923369037073
F-1.2924097220050257
F-1.8972180525409144
F-1.533365551625387
F1.5727397203445435
F0.18157599866390228
tp39
sg9
(lp40
F-0.029022216796875
aF0.2
aF0.0
aF0.0
aF0.0
aF0.0
asg11
I01
sg12
g13
sg14
I00
sg15
g16
sa(dp41
g2
F0.0
sg3
(lp42
F0.06432684098687497
aF0.5601484915898824
aF0.5940542354486562
aF3.130671756989923
aF2.9153808207392494e-05
aF-0.0003532372856209632
asg5
I0
sg6
F0.0
sg7
(F-1.3904503027545374
F-1.3291280905352991
F-1.8719514052020472
F-1.5220473448382776
F1.5727876424789429
F0.18068841099739075
tp43
sg9
(lp44
F-0.022747802734375003
aF0.2
aF0.0
aF0.0
aF0.0
aF0.0
asg11
I01
sg12
g13
sg14
I00
sg15
g16
sa(dp45
g2
F0.0
sg3
(lp46
F0.06189326220748789
aF0.5794825129382194
aF0.5932452832793825
aF3.1303820384148717
aF3.580952624030566e-05
aF-0.0002177754045574105
asg5
I0
sg6
F0.0
sg7
(F-1.392376724873678
F-1.3628981749164026
F-1.8476055304156702
F-1.5129111448871058
F1.5728235244750977
F0.17862600088119507
tp47
sg9
(lp48
F-0.02117919921875
aF0.2
aF0.0
aF0.0
aF0.0
aF0.0
asg11
I01
sg12
g13
sg14
I00
sg15
g16
sa(dp49
g2
F0.0
sg3
(lp50
F0.05986068411566719
aF0.6003697742130529
aF0.5926024185556332
aF3.130421648660234
aF0.00010047707925214564
aF-0.00019986493951698508
asg5
I0
sg6
F0.0
sg7
(F-1.3953207174884241
F-1.3990901152240198
F-1.8198698202716272
F-1.5044105688678187
F1.572847604751587
F0.17566365003585815
tp51
sg9
(lp52
F0.0
aF0.2
aF0.0
aF0.0
aF0.0
aF0.0
asg11
I01
sg12
g13
sg14
I00
sg15
g16
sa(dp53
g2
F0.0
sg3
(lp54
F0.059150932951850456
aF0.6196297711428135
aF0.592087941885662
aF3.13077018665061
aF0.00022063274219776463
aF-0.0003590429797052178
asg5
I0
sg6
F0.0
sg7
(F-1.3997605482684534
F-1.4323113600360315
F-1.7931273619281214
F-1.4975765387164515
F1.572859525680542
F0.17138266563415527
tp55
sg9
(lp56
F0.0
aF0.2
aF0.0
aF0.0
aF0.0
aF0.0
asg11
I01
sg12
g13
sg14
I00
sg15
g16
sa(dp57
g2
F0.0
sg3
(lp58
F0.05920661683967183
aF0.6405116511354801
aF0.5914473781094426
aF3.1310403321870446
aF0.0003178989589667655
aF-0.00020343879302058533
asg5
I0
sg6
F0.0
sg7
(F-1.40556508699526
F-1.4681804815875452
F-1.7630661169635218
F-1.4914982954608362
F1.572847604751587
F0.16542237997055054
tp59
sg9
(lp60
F0.0
aF0.2
aF0.0
aF0.0
aF0.0
aF0.0
asg11
I01
sg12
g13
sg14
I00
sg15
g16
sa(dp61
g2
F0.0
sg3
(lp62
F0.05948518300748374
aF0.661409760742647
aF0.590784232445746
aF3.131288160422147
aF0.0003943208379935532
aF-0.00016846190174619932
asg5
I0
sg6
F0.0
sg7
(F-1.4113338629352015
F-1.5038235823260706
F-1.73187762895693
F-1.4867985884295862
F1.5728235244750977
F0.15961864590644836
tp63
sg9
(lp64
F0.0
aF0.2
aF0.0
aF0.0
aF0.0
aF0.0
asg11
I01
sg12
g13
sg14
I00
sg15
g16
sa(dp65
g2
F0.0
sg3
(lp66
F0.05967240101768865
aF0.6806227234386646
aF0.5901279010006452
aF3.131331457619087
aF0.00037878200489462895
aF-0.00011035761150349827
asg5
I0
sg6
F0.0
sg7
(F-1.4162047545062464
F-1.536386791859762
F-1.702245060597555
F-1.4838374296771448
F1.5727516412734985
F0.15469013154506683
tp67
sg9
(lp68
F0.0
aF0.2
aF0.0
aF0.0
aF0.0
aF0.0
asg11
I01
sg12
g13
sg14
I00
sg15
g16
sa(dp69
g2
F0.0
sg3
(lp70
F0.05993884561731262
aF0.7031464341741752
aF0.5891502668855564
aF3.1312256367173097
aF0.0003688175495184423
aF-0.00024250466253758523
asg5
I0
sg6
F0.0
sg7
(F-1.4216378370868128
F-1.5743921438800257
F-1.6665619055377405
F-1.4816315809832972
F1.5727040767669678
F0.1493893563747406
tp71
sg9
(lp72
F0.0
aF0.2
aF0.0
aF0.0
aF0.0
aF0.0
asg11
I01
sg12
g13
sg14
I00
sg15
g16
sa(dp73
g2
F0.0
sg3
(lp74
F0.06032205937222554
aF0.7238804834743391
aF0.5881425072904242
aF3.13098259519872
aF0.00030985533940337557
aF-0.00036419221443809375
asg5
I0
sg6
F0.0
sg7
(F-1.4265206495868128
F-1.60925800005068
F-1.6326258818255823
F-1.480959717427389
F1.5726321935653687
F0.1446286290884018
tp75
sg9
(lp76
F0.0
aF0.2
aF0.0
aF0.0
aF0.0
aF0.0
asg11
I01
sg12
g13
sg14
I00
sg15
g16
sa(dp77
g2
F0.0
sg3
(lp78
F0.06002360839035387
aF0.7447533139938077
aF0.5872937606200526
aF3.130745768408553
aF0.00019790010193150483
aF-3.176986588026992e-05
asg5
I0
sg6
F0.0
sg7
(F-1.430218521748678
F-1.6441119352923792
F-1.5971182028399866
F-1.4818709532367151
F1.5725123882293701
F0.1405993103981018
tp79
sg9
(lp80
F-0.044708251953125
aF0.2
aF0.0
aF0.0
aF0.0
aF0.0
asg11
I01
sg12
g13
sg14
I00
sg15
g16
sa(dp81
g2
F0.0
sg3
(lp82
F0.057547714446935905
aF0.7638249581349156
aF0.5866606802218782
aF3.1307601428035476
aF0.00023824292864687207
aF-0.00013986760771059038
asg5
I0
sg6
F0.0
sg7
(F-1.4305179754840296
F-1.675563160573141
F-1.563777271901266
F-1.4837411085711878
F1.572548270225525
F0.14040756225585938
tp83
sg9
(lp84
F-0.066668701171875
aF0.2
aF0.0
aF0.0
aF0.0
aF0.0
asg11
I01
sg12
g13
sg14
I00
sg15
g16
sa(dp85
g2
F0.0
sg3
(lp86
F0.051598674276955143
aF0.7846023282348176
aF0.5859455040371799
aF3.1306322254531356
aF0.0002021601460868945
aF-0.0001238159874444724
asg5
I0
sg6
F0.0
sg7
(F-1.4266403357135218
F-1.7094953695880335
F-1.5266488234149378
F-1.4870622793780726
F1.5725722312927246
F0.14426909387111664
tp87
sg9
(lp88
F-0.08392333984375
aF0.2
aF0.0
aF0.0
aF0.0
aF0.0
asg11
I01
sg12
g13
sg14
I00
sg15
g16
sa(dp89
g2
F0.0
sg3
(lp90
F0.04437201387724397
aF0.8035982865386101
aF0.5852957434104883
aF3.1305259176017994
aF9.944807638568533e-05
aF-0.00021871191474388856
asg5
I0
sg6
F0.0
sg7
(F-1.421027962361471
F-1.7404678503619593
F-1.4916861693011683
F-1.4911626021014612
F1.572548270225525
F0.1499769538640976
tp91
sg9
(lp92
F-0.087060546875
aF0.2
aF0.0
aF0.0
aF0.0
aF0.0
asg11
I01
sg12
g13
sg14
I00
sg15
g16
sa(dp93
g2
F0.0
sg3
(lp94
F0.03517743352023355
aF0.8241418597878274
aF0.5845387796975532
aF3.1303503048966843
aF2.7159148066447624e-05
aF-8.91584737379594e-05
asg5
I0
sg6
F0.0
sg7
(F-1.4135835806476038
F-1.77411395708193
F-1.4526365439044397
F-1.4967377821551722
F1.5725842714309692
F0.15729182958602905
tp95
sg9
(lp96
F-0.087060546875
aF0.2
aF0.0
aF0.0
aF0.0
aF0.0
asg11
I01
sg12
g13
sg14
I00
sg15
g16
sa(dp97
g2
F0.0
sg3
(lp98
F0.02665335179007769
aF0.8430723928853827
aF0.5839729132655075
aF3.130541460019916
aF4.339446091038178e-05
aF-0.0002835672620777132
asg5
I0
sg6
F0.0
sg7
(F-1.407001797352926
F-1.8053506056415003
F-1.4151538054095667
F-1.5027802626239222
F1.5726442337036133
F0.16406778991222382
tp99
sg9
(lp100
F-0.087060546875
aF0.2
aF0.0
aF0.0
aF0.0
aF0.0
asg11
I01
sg12
g13
sg14
I00
sg15
g16
sa(dp101
g2
F0.0
sg3
(lp102
F0.017337079598286922
aF0.863512319647682
aF0.5832680273478945
aF3.130500276401902
aF5.738481748057438e-05
aF-0.00024964961797590266
asg5
I0
sg6
F0.0
sg7
(F-1.4001081625567835
F-1.83950120607485
F-1.373115364705221
F-1.510693375264303
F1.5727397203445435
F0.17092688381671906
tp103
sg9
(lp104
F-0.087060546875
aF0.2
aF0.0
aF0.0
aF0.0
aF0.0
asg11
I01
sg12
g13
sg14
I00
sg15
g16
sa(dp105
g2
F0.0
sg3
(lp106
F0.00804311258226391
aF0.8841619800836926
aF0.5826867541022284
aF3.130735056184649
aF3.965650609242522e-05
aF-0.00023815572786990228
asg5
I0
sg6
F0.0
sg7
(F-1.393609348927633
F-1.8744195143329065
F-1.328700367604391
F-1.5199492613421839
F1.5727516412734985
F0.17741447687149048
tp107
sg9
(lp108
F-0.087060546875
aF0.2
aF0.0
aF0.0
aF0.0
aF0.0
asg11
I01
sg12
g13
sg14
I00
sg15
g16
sa(dp109
g2
F0.0
sg3
(lp110
F-0.0005911604210231706
aF0.9030686333268454
aF0.5819550375157911
aF3.130532334725749
aF3.892092803701025e-05
aF-3.507304282654933e-05
asg5
I0
sg6
F0.0
sg7
(F-1.3878048102008265
F-1.9069531599627894
F-1.2864521185504358
F-1.5298522154437464
F1.572847604751587
F0.18301522731781006
tp111
sg9
(lp112
F-0.087060546875
aF0.2
aF0.0
aF0.0
aF0.0
aF0.0
asg11
I01
sg12
g13
sg14
I00
sg15
g16
sa(dp113
g2
F0.0
sg3
(lp114
F-0.00973764471477201
aF0.9235773283210726
aF0.5812673060848331
aF3.1306235255646238
aF3.9897136826565114e-05
aF-0.0001545137340106808
asg5
I0
sg6
F0.0
sg7
(F-1.38202411333193
F-1.9427951017962855
F-1.2385309378253382
F-1.5418294111834925
F1.5728955268859863
F0.1889152079820633
tp115
sg9
(lp116
F-0.087060546875
aF0.2
aF0.0
aF0.0
aF0.0
aF0.0
asg11
I01
sg12
g13
sg14
I00
sg15
g16
sa(dp117
g2
F0.0
sg3
(lp118
F-0.018287935992979572
aF0.9422765018142145
aF0.5808279617676649
aF3.1307612937927325
aF0.00013096676752273611
aF-0.00020170544571686052
asg5
I0
sg6
F0.0
sg7
(F-1.376770321522848
F-1.9761078993426722
F-1.1925128141986292
F-1.5543707052813929
F1.5730153322219849
F0.19421523809432983
tp119
sg9
(lp120
F-0.087060546875
aF0.2
aF0.0
aF0.0
aF0.0
aF0.0
asg11
I01
sg12
g13
sg14
I00
sg15
g16
sa(dp121
g2
F0.0
sg3
(lp122
F-0.02729380291741392
aF0.9627072314909815
aF0.5801814163874042
aF3.130830022299045
aF0.0002101685900673412
aF-0.0003209665314223066
asg5
I0
sg6
F0.0
sg7
(F-1.3716238180743616
F-2.0133541266070765
F-1.140029255543844
F-1.5695131460772913
F1.5731351375579834
F0.1994800567626953
tp123
sg9
(lp124
F-0.087060546875
aF0.2
aF0.07137451171875
aF0.0
aF0.0
aF0.0
asg11
I01
sg12
g13
sg14
I00
sg15
g16
sa(dp125
g2
F0.0
sg3
(lp126
F-0.03670831402004521
aF0.9829321066840493
aF0.5830605711256721
aF3.13084204224042
aF0.00016965487940441483
aF-9.197002156752675e-05
asg5
I0
sg6
F0.0
sg7
(F-1.3662384192096155
F-2.0513437430011194
F-1.0789206663714808
F-1.592616383229391
F1.573147177696228
F0.20463663339614868
tp127
sg9
(lp128
F-0.087060546875
aF0.2
aF0.19843139648437502
aF0.0
aF0.0
aF0.0
asg11
I01
sg12
g13
sg14
I00
sg15
g16
sa(dp129
g2
F0.0
sg3
(lp130
F-0.04479292756013584
aF1.0009043157337287
aF0.5982149017552888
aF3.1310166103702732
aF0.00020710732838162798
aF-0.00031603775116161254
asg5
I0
sg6
F0.0
sg7
(F-1.3619292418109339
F-2.087428394948141
F-0.9979136625873011
F-1.6373494307147425
F1.5731950998306274
F0.2091696709394455
tp131
sg9
(lp132
F-0.04627685546875
aF0.17803955078125
aF0.12784423828125
aF0.0
aF0.0
aF0.0
asg11
I01
sg12
g13
sg14
I00
sg15
g16
sa(dp133
g2
F0.0
sg3
(lp134
F-0.051877885823845414
aF1.0180903303045956
aF0.6145404612954654
aF3.1303548737226508
aF0.00010330185180427117
aF-0.00022776274882528255
asg5
I0
sg6
F0.0
sg7
(F-1.3585899511920374
F-2.1256349722491663
F-0.9100249449359339
F-1.6876924673663538
F1.573266625404358
F0.2124200165271759
tp135
sg9
(lp136
F0.0
aF0.0
aF0.0
aF0.0
aF0.0
aF0.0
asg11
I01
sg12
g13
sg14
I00
sg15
g16
sa(dp137
g2
F0.0
sg3
(lp138
F-0.05377419638038557
aF1.0250964734371155
aF0.6190255972040218
aF3.1295043067636064
aF-6.043079773496607e-05
aF-0.0002525246813897829
asg5
I0
sg6
F0.0
sg7
(F-1.3582189718829554
F-2.141879383717672
F-0.8763850370990198
F-1.7059529463397425
F1.5732905864715576
F0.21281549334526062
tp139
sg9
(lp140
F0.0
aF0.0
aF0.0
aF0.0
aF0.0
aF0.0
asg11
I01
sg12
g13
sg14
I00
sg15
g16
sa(dp141
g2
F0.0
sg3
(lp142
F-0.05372661212050569
aF1.0250635109373014
aF0.6193940786982495
aF3.130215691007174
aF5.6879726054809904e-05
aF-0.0002519367358113613
asg5
I0
sg6
F0.0
sg7
(F-1.3582547346698206
F-2.141735378895895
F-0.8761094252215784
F-1.7056525389300745
F1.5732545852661133
F0.21277955174446106
tp143
sg9
(lp144
F0.0
aF0.0
aF0.0
aF0.0
aF0.0
aF0.0
asg11
I01
sg12
g13
sg14
I00
sg15
g16
sa(dp145
g2
F0.0
sg3
(lp146
F-0.05367247947094886
aF1.0249009691125814
aF0.6194675929331838
aF3.1306831084363846
aF0.00021999568703215055
aF-0.00020445668981672416
asg5
I0
sg6
F0.0
sg7
(F-1.3582785765277308
F-2.141291920338766
F-0.8767808119403284
F-1.7049334684955042
F1.5733145475387573
F0.21270763874053955
tp147
sg9
(lp148
F0.0
aF0.0
aF0.0
aF0.0
aF0.0
aF0.0
asg11
I01
sg12
g13
sg14
I00
sg15
g16
sa(dp149
g2
F0.0
sg3
(lp150
F-0.05365203812560759
aF1.0249177886606928
aF0.6196061321915821
aF3.1308805254902223
aF0.0002752081474839217
aF-0.00020489343668149337
asg5
I0
sg6
F0.0
sg7
(F-1.3583028952227991
F-2.141315762196676
F-0.876540486012594
F-1.7049453894244593
F1.573326587677002
F0.21268367767333984
tp151
sg9
(lp152
F0.0
aF0.08862915039062501
aF0.0
aF0.0
aF0.0
aF0.0
asg11
I01
sg12
g13
sg14
I00
sg15
g16
sa(dp153
g2
F0.0
sg3
(lp154
F-0.053481555510704895
aF1.0295087517716952
aF0.6203761231673616
aF3.1319819035443177
aF0.0004989267290735692
aF-0.00022590890190601285
asg5
I0
sg6
F0.0
sg7
(F-1.3594158331500452
F-2.1511104742633265
F-0.8598697821246546
F-1.7107003370868128
F1.5733026266098022
F0.21159236133098602
tp155
sg9
(lp156
F0.0
aF0.17176513671875002
aF0.0
aF0.0
aF0.0
aF0.0
asg11
I01
sg12
g13
sg14
I00
sg15
g16
sa(dp157
g2
F0.0
sg3
(lp158
F-0.05335959264266466
aF1.0418679438069307
aF0.6191790044185553
aF3.130885162624793
aF0.0002901401710655844
aF-0.00034100169360422577
asg5
I0
sg6
F0.0
sg7
(F-1.3620489279376429
F-2.178192917500631
F-0.8183115164386194
F-1.7262986342059534
F1.5733026266098022
F0.20907379686832428
tp159
sg9
(lp160
F0.0
aF0.085491943359375
aF0.0
aF0.0
aF0.0
aF0.0
asg11
I01
sg12
g13
sg14
I00
sg15
g16
sa(dp161
g2
F0.0
sg3
(lp162
F-0.053213283400274494
aF1.055526266241525
aF0.6182998334761659
aF3.130310103225635
aF0.00020115171364503518
aF-0.00025194333773832084
asg5
I0
sg6
F0.0
sg7
(F-1.3648975531207483
F-2.2092912832843226
F-0.7690137068377894
F-1.7450864950763147
F1.5733026266098022
F0.2061357945203781
tp163
sg9
(lp164
F0.0
aF0.0
aF0.0
aF0.0
aF0.0
aF0.0
asg11
I01
sg12
g13
sg14
I00
sg15
g16
sa(dp165
g2
F0.0
sg3
(lp166
F-0.05338043674772719
aF1.0600235843365113
aF0.6182286472075719
aF3.1302672023926275
aF0.00016515419124662087
aF-0.00010563758750844178
asg5
I0
sg6
F0.0
sg7
(F-1.365615193043844
F-2.2199257055865687
F-0.7515729109393519
F-1.751944367085592
F1.573266625404358
F0.20527218282222748
tp167
sg9
(lp168
F0.0
aF0.0
aF0.0
aF0.0
aF0.0
aF0.0
asg11
I01
sg12
g13
sg14
I00
sg15
g16
sa(dp169
g2
F0.0
sg3
(lp170
F-0.05338291677220747
aF1.0599633051778152
aF0.6184923439314428
aF3.1307907603663043
aF0.00029851436337674405
aF-0.00010583347432927815
asg5
I0
sg6
F0.0
sg7
(F-1.365603272114889
F-2.219745937977926
F-0.7515128294574183
F-1.7516444365130823
F1.5732905864715576
F0.20528416335582733
tp171
sg9
(lp172
F0.0
aF0.0
aF0.0
aF0.0
aF0.0
aF0.0
asg11
I01
sg12
g13
sg14
I00
sg15
g16
sa(dp173
g2
F0.0
sg3
(lp174
F-0.0534310925643205
aF1.0599043421254446
aF0.6185284357959934
aF3.1308811904065483
aF0.00028044577685659646
aF-5.78055018885359e-05
asg5
I0
sg6
F0.0
sg7
(F-1.3655436674701136
F-2.2196019331561487
F-0.7517045179950159
F-1.7515118757831019
F1.5732545852661133
F0.20529614388942719
tp175
sg9
(lp176
F0.0
aF0.0
aF0.0
aF0.0
aF0.0
aF0.0
asg11
I01
sg12
g13
sg14
I00
sg15
g16
sa(dp177
g2
F0.0
sg3
(lp178
F-0.053407638488568665
aF1.0598608535771838
aF0.6185079539033983
aF3.130812660540765
aF0.0002538702845496903
aF-8.207666054576089e-05
asg5
I0
sg6
F0.0
sg7
(F-1.3655560652362269
F-2.21950608888735
F-0.7518847624408167
F-1.7514999548541468
F1.5732426643371582
F0.20530812442302704
tp179
sg9
(lp180
F0.0
aF0.0
aF0.0
aF0.0
aF0.0
aF0.0
asg11
I01
sg12
g13
sg14
I00
sg15
g16
sa(dp181
g2
F0.0
sg3
(lp182
F-0.05334886956531647
aF1.0598773475785341
aF0.618502199998029
aF3.1308340510696486
aF0.0002710140653827559
aF-9.338964454063862e-05
asg5
I0
sg6
F0.0
sg7
(F-1.365615193043844
F-2.21952993074526
F-0.7518604437457483
F-1.7514761129962366
F1.5732545852661133
F0.20526018738746643
tp183
sg9
(lp184
F0.0
aF0.0
aF-0.03529052734375
aF0.0
aF0.0
aF0.0
asg11
I01
sg12
g13
sg14
I00
sg15
g16
sa(dp185
g2
F0.0
sg3
(lp186
F-0.053313701850573894
aF1.0598335049534653
aF0.6165624666397238
aF3.130935819140336
aF0.0002922029106111039
aF-0.00011767968087822004
asg5
I0
sg6
F0.0
sg7
(F-1.3656395117389124
F-2.218619171773092
F-0.7568267027484339
F-1.7473166624652308
F1.5732545852661133
F0.20526018738746643
tp187
sg9
(lp188
F0.0
aF0.0
aF-0.146661376953125
aF0.0
aF0.0
aF0.0
asg11
I01
sg12
g13
sg14
I00
sg15
g16
sa(dp189
g2
F0.0
sg3
(lp190
F-0.05328787348168459
aF1.059703931354335
aF0.6065957827983756
aF3.1302303213471174
aF0.0001573390885750806
aF-0.00014194199211749021
asg5
I0
sg6
F0.0
sg7
(F-1.3656395117389124
F-2.2148545424090784
F-0.7805288473712366
F-1.7280972639666956
F1.573266625404358
F0.20528416335582733
tp191
sg9
(lp192
F0.0
aF0.0
aF-0.1576416015625
aF0.0
aF0.0
aF0.0
asg11
I01
sg12
g13
sg14
I00
sg15
g16
sa(dp193
g2
F0.0
sg3
(lp194
F-0.05316408671537994
aF1.0592316763000758
aF0.5910662559541145
aF3.1304735314870533
aF0.00020771795655166655
aF-0.00018969901050476415
asg5
I0
sg6
F0.0
sg7
(F-1.3656633535968226
F-2.20908767381777
F-0.8174360434161585
F-1.6967085043536585
F1.573266625404358
F0.20530812442302704
tp195
sg9
(lp196
F0.0
aF0.0
aF-0.07921142578125001
aF0.0
aF0.0
aF0.0
asg11
I01
sg12
g13
sg14
I00
sg15
g16
sa(dp197
g2
F0.0
sg3
(lp198
F-0.05310310914243402
aF1.0589494442981573
aF0.5800048778172477
aF3.130950372842859
aF0.00028254984735697077
aF-0.00018932808534514398
asg5
I0
sg6
F0.0
sg7
(F-1.3656633535968226
F-2.2057908217059534
F-0.8423712889300745
F-1.6745880285846155
F1.5732426643371582
F0.20530812442302704
tp199
sg9
(lp200
F0.0
aF0.0
aF0.0
aF0.0
aF0.0
aF0.0
asg11
I01
sg12
g13
sg14
I00
sg15
g16
sa(dp201
g2
F0.0
sg3
(lp202
F-0.053111345509830446
aF1.0589331751657967
aF0.5774673352989862
aF3.131267006337388
aF0.00033643888108227484
aF-0.00015322659487615714
asg5
I0
sg6
F0.0
sg7
(F-1.3656514326678675
F-2.205179516469137
F-0.8478887716876429
F-1.6693609396563929
F1.5732306241989136
F0.20528416335582733
tp203
sg9
(lp204
F0.0
aF0.0
aF0.0
aF0.0
aF0.0
aF0.0
asg11
I01
sg12
g13
sg14
I00
sg15
g16
sa(dp205
g2
F0.0
sg3
(lp206
F-0.053097072508792975
aF1.0588591292795866
aF0.5774013286841376
aF3.1305484444221126
aF0.00019910902420386363
aF-0.00015354429410029789
asg5
I0
sg6
F0.0
sg7
(F-1.3656514326678675
F-2.205167595540182
F-0.8478768507586878
F-1.6701162497149866
F1.5732426643371582
F0.20528416335582733
tp207
sg9
(lp208
F0.0
aF0.024316406250000002
aF0.0
aF0.0
aF0.0
aF0.0
asg11
I01
sg12
g13
sg14
I00
sg15
g16
sa(dp209
g2
F0.0
sg3
(lp210
F-0.053051862445564126
aF1.0599269123256458
aF0.5778405303183799
aF3.1309917486664838
aF0.0003171555401289068
aF-0.00028560947564069337
asg5
I0
sg6
F0.0
sg7
(F-1.3659032026873987
F-2.2074931303607386
F-0.8433907667743128
F-1.67181903520693
F1.573266625404358
F0.20516431331634521
tp211
sg9
(lp212
F0.0
aF0.137255859375
aF0.0
aF0.0
aF0.0
aF0.0
asg11
I01
sg12
g13
sg14
I00
sg15
g16
sa(dp213
g2
F0.0
sg3
(lp214
F-0.052869550694162146
aF1.0686881336741105
aF0.5783760016404778
aF3.1319217547405698
aF0.0005291622365558405
aF-0.00020925955311392792
asg5
I0
sg6
F0.0
sg7
(F-1.3677580992328089
F-2.22693902650942
F-0.8106110731707972
F-1.6842039267169397
F1.573266625404358
F0.20323336124420166
tp215
sg9
(lp216
F0.0
aF0.08392333984375
aF0.0
aF0.0
aF0.0
aF0.0
asg11
I01
sg12
g13
sg14
I00
sg15
g16
sa(dp217
g2
F0.0
sg3
(lp218
F-0.05269982091905239
aF1.0792288198750803
aF0.5771575416303835
aF3.130763458919228
aF0.00026374146629974004
aF-0.00028926443314711617
asg5
I0
sg6
F0.0
sg7
(F-1.3699000517474573
F-2.251216713582174
F-0.772048298512594
F-1.6996820608722132
F1.5732187032699585
F0.20117132365703583
tp219
sg9
(lp220
F0.0
aF0.0
aF0.0
aF0.0
aF0.0
aF0.0
asg11
I01
sg12
g13
sg14
I00
sg15
g16
sa(dp221
g2
F0.0
sg3
(lp222
F-0.05278958199189965
aF1.0812919294481886
aF0.5769465528293239
aF3.130574403819063
aF0.00019197146875225775
aF-0.0003004038019830361
asg5
I0
sg6
F0.0
sg7
(F-1.3701995054828089
F-2.2560842672931116
F-0.7642033735858362
F-1.7028597036944788
F1.5731830596923828
F0.20088332891464233
tp223
sg9
(lp224
F0.0
aF0.0
aF0.0
aF0.0
aF0.0
aF0.0
asg11
I01
sg12
g13
sg14
I00
sg15
g16
sa(dp225
g2
F0.0
sg3
(lp226
F-0.05281223201267044
aF1.0812752789676805
aF0.5768755661855757
aF3.1305860873227767
aF0.00019448213520469341
aF-0.00026457987958393816
asg5
I0
sg6
F0.0
sg7
(F-1.3701756636248987
F-2.256024185811178
F-0.7644317785846155
F-1.702679459248678
F1.5731830596923828
F0.20087134838104248
tp227
sg9
(lp228
F0.0
aF0.0
aF0.0
aF0.0
aF0.0
aF0.0
asg11
I01
sg12
g13
sg14
I00
sg15
g16
sa(dp229
g2
F0.0
sg3
(lp230
F-0.05273212328461148
aF1.0811930329665094
aF0.5769271791980991
aF3.130640240103989
aF0.00022907304966366513
aF-0.00037283697745389997
asg5
I0
sg6
F0.0
sg7
(F-1.3702357451068323
F-2.2558205763446253
F-0.7646954695331019
F-1.7025592962848108
F1.5732066631317139
F0.2009192854166031
tp231
sg9
(lp232
F0.0
aF0.0
aF0.0
aF0.0
aF0.0
aF0.0
asg11
I01
sg12
g13
sg14
I00
sg15
g16
sa(dp233
g2
F0.0
sg3
(lp234
F-0.05275908466697876
aF1.081083446616738
aF0.5771264983366858
aF3.1308001265517342
aF0.00022577368006935675
aF-0.00028830883704441385
asg5
I0
sg6
F0.0
sg7
(F-1.3701875845538538
F-2.255580727254049
F-0.7647793928729456
F-1.7025592962848108
F1.5731711387634277
F0.20088332891464233
tp235
sg9
(lp236
F0.0
aF0.0
aF0.0
aF0.0
aF0.0
aF0.0
asg11
I01
sg12
g13
sg14
I00
sg15
g16
sa(dp237
g2
F0.0
sg3
(lp238
F-0.05276063248657212
aF1.0810799717356088
aF0.5771304859995493
aF3.1307715187530882
aF0.000244528416253792
aF-0.0002765883376617291
asg5
I0
sg6
F0.0
sg7
(F-1.3701875845538538
F-2.255580727254049
F-0.7647674719439905
F-1.7025955359088343
F1.5731950998306274
F0.20087134838104248
tp239
sg9
(lp240
F0.0
aF0.0
aF0.0
aF0.0
aF0.0
aF0.0
asg11
I01
sg12
g13
sg14
I00
sg15
g16
sa(dp241
g2
F0.0
sg3
(lp242
F-0.05272354038392517
aF1.0811032314601494
aF0.577082319950116
aF3.1307762916643953
aF0.00022066175635761538
aF-0.00034851344949049013
asg5
I0
sg6
F0.0
sg7
(F-1.3702238241778772
F-2.2556169668780726
F-0.7647913138019007
F-1.7025354544269007
F1.5731711387634277
F0.20090728998184204
tp243
sg9
(lp244
F0.0
aF0.0
aF0.0
aF0.0
aF0.0
aF0.0
asg11
I01
sg12
g13
sg14
I00
sg15
g16
sa(dp245
g2
F0.0
sg3
(lp246
F-0.05273930360778525
aF1.081083646942012
aF0.5771031365959457
aF3.130762028393749
aF0.00029113381659680326
aF-0.00030141159692238773
asg5
I0
sg6
F0.0
sg7
(F-1.3702119032489222
F-2.255580727254049
F-0.764815632496969
F-1.7025473753558558
F1.5732426643371582
F0.20087134838104248
tp247
sg9
(lp248
F0.0
aF0.0
aF0.0
aF0.0
aF0.0
aF0.0
asg11
I01
sg12
g13
sg14
I00
sg15
g16
sa(dp249
g2
F0.0
sg3
(lp250
F-0.05277636389910179
aF1.0810933277084447
aF0.5770771068752983
aF3.130747689098858
aF0.00023967593828983942
aF-0.0002646731779127784
asg5
I0
sg6
F0.0
sg7
(F-1.3701756636248987
F-2.2556050459491175
F-0.764815632496969
F-1.7025473753558558
F1.5731950998306274
F0.20087134838104248
tp251
sg9
(lp252
F0.0
aF0.0
aF0.0
aF0.0
aF0.0
aF0.0
asg11
I01
sg12
g13
sg14
I00
sg15
g16
sa(dp253
g2
F0.0
sg3
(lp254
F-0.052779989403216196
aF1.0811058060532128
aF0.5770543353290539
aF3.1307453789152397
aF0.00025087611715338343
aF-0.0002767758998365738
asg5
I0
sg6
F0.0
sg7
(F-1.3701756636248987
F-2.2556288878070276
F-0.764815632496969
F-1.7025235334979456
F1.5732066631317139
F0.20088332891464233
tp255
sg9
(lp256
F0.0
aF0.0
aF0.0
aF0.0
aF0.0
aF0.0
asg11
I01
sg12
g13
sg14
I00
sg15
g16
sa(dp257
g2
F0.0
sg3
(lp258
F-0.05275343484460147
aF1.0811032330707981
aF0.5770654158218927
aF3.1307220195159378
aF0.00024624873638209567
aF-0.000288643737126815
asg5
I0
sg6
F0.0
sg7
(F-1.3701995054828089
F-2.2556288878070276
F-0.7647913138019007
F-1.7025716940509241
F1.5732066631317139
F0.20087134838104248
tp259
sg9
(lp260
F0.0
aF0.0
aF0.0
aF0.0
aF0.0
aF0.0
asg11
I01
sg12
g13
sg14
I00
sg15
g16
sa(dp261
g2
F0.0
sg3
(lp262
F-0.052804214790508924
aF1.081077710844485
aF0.5771155845077481
aF3.1307503506560637
aF0.0002888852006584273
aF-0.00022886193452497996
asg5
I0
sg6
F0.0
sg7
(F-1.3701513449298304
F-2.255580727254049
F-0.7647913138019007
F-1.7025836149798792
F1.5732426643371582
F0.20085935294628143
tp263
sg9
(lp264
F0.0
aF0.0
aF0.0
aF0.0
aF0.0
aF0.0
asg11
I01
sg12
g13
sg14
I00
sg15
g16
sa(dp265
g2
F0.0
sg3
(lp266
F-0.05272472792721446
aF1.0810926326696442
aF0.5770814175827759
aF3.130722016566701
aF0.00024611850293264223
aF-0.00032494225829085165
asg5
I0
sg6
F0.0
sg7
(F-1.3702238241778772
F-2.2556050459491175
F-0.7648032347308558
F-1.7025836149798792
F1.5732066631317139
F0.20088332891464233
tp267
sg9
(lp268
F0.0
aF0.0
aF0.0
aF0.0
aF0.0
aF0.0
asg11
I01
sg12
g13
sg14
I00
sg15
g16
sa(dp269
g2
F0.0
sg3
(lp270
F-0.05273981843155451
aF1.0810972670852659
aF0.5770452881495478
aF3.130684097333678
aF0.00025042287142175917
aF-0.00033711826567724964
asg5
I0
sg6
F0.0
sg7
(F-1.3702119032489222
F-2.2556169668780726
F-0.7648394743548792
F-1.7025716940509241
F1.5732187032699585
F0.20090728998184204
tp271
sg9
(lp272
F0.0
aF0.0
aF0.0
aF0.0
aF0.0
aF0.0
asg11
I01
sg12
g13
sg14
I00
sg15
g16
sa(dp273
g2
F0.0
sg3
(lp274
F-0.05274704760280945
aF1.0810993454635665
aF0.5770548344469351
aF3.1307222094026432
aF0.00018571454244328036
aF-0.00027601790860462295
asg5
I0
sg6
F0.0
sg7
(F-1.3701995054828089
F-2.2556169668780726
F-0.7648275534259241
F-1.7025592962848108
F1.573147177696228
F0.20085935294628143
tp275
sg9
(lp276
F0.0
aF0.0
aF0.0
aF0.0
aF0.0
aF0.0
asg11
I01
sg12
g13
sg14
I00
sg15
g16
sa(dp277
g2
F0.0
sg3
(lp278
F-0.05273587571792076
aF1.081094369428855
aF0.5770757366789021
aF3.1307384075121174
aF0.00022536988228320402
aF-0.00031276734536945974
asg5
I0
sg6
F0.0
sg7
(F-1.3702119032489222
F-2.2556050459491175
F-0.764815632496969
F-1.7025592962848108
F1.5731830596923828
F0.20088332891464233
tp279
sg9
(lp280
F0.0
aF0.0
aF0.0
aF0.0
aF0.0
aF0.0
asg11
I01
sg12
g13
sg14
I00
sg15
g16
sa(dp281
g2
F0.0
sg3
(lp282
F-0.05275676449975519
aF1.081096777853712
aF0.5770922990794077
aF3.13080288802057
aF3.047320646788671e-05
aF-0.0002863441330663298
asg5
I0
sg6
F0.5149779735682819
sg7
(F-1.3701756636248987
F-2.2556050459491175
F-0.7647913138019007
F-1.7025592962848108
F1.5729793310165405
F0.2008953094482422
tp283
sg9
(lp284
F0.0
aF0.0
aF0.0
aF0.0
aF0.0
aF0.0
asg11
I01
sg12
g13
sg14
I00
sg15
g16
sa(dp285
g2
F0.0
sg3
(lp286
F-0.052721889686350575
aF1.0810169680763348
aF0.577356138047703
aF3.131190494799116
aF4.8218269062327904e-05
aF-0.0003096088128094787
asg5
I0
sg6
F0.5365638766519824
sg7
(F-1.3701875845538538
F-2.2553890387164515
F-0.7647674719439905
F-1.7024157683001917
F1.572919487953186
F0.20090728998184204
tp287
sg9
(lp288
F0.0
aF0.0
aF0.0
aF0.0
aF0.0
aF0.0
asg11
I01
sg12
g13
sg14
I00
sg15
g16
sa(dp289
g2
F0.0
sg3
(lp290
F-0.05270948481145107
aF1.081025537561557
aF0.5773542582325734
aF3.1312162597646154
aF4.11790450490338e-05
aF-0.00032140612742874745
asg5
I0
sg6
F0.5365638766519824
sg7
(F-1.3701995054828089
F-2.2554009596454065
F-0.7647555510150355
F-1.7023919264422815
F1.5729074478149414
F0.20090728998184204
tp291
sg9
(lp292
F0.0
aF0.0
aF0.0
aF0.0
aF0.0
aF0.0
asg11
I01
sg12
g13
sg14
I00
sg15
g16
sa(dp293
g2
F0.0
sg3
(lp294
F-0.05266367965411806
aF1.081014498247564
aF0.5773789265286212
aF3.131209281511719
aF0.00013756465341460274
aF-0.00037054041892328564
asg5
I0
sg6
F0.5365638766519824
sg7
(F-1.3702476660357874
F-2.255376640950338
F-0.7647555510150355
F-1.7024038473712366
F1.5730032920837402
F0.20090728998184204
tp295
sg9
(lp296
F0.0
aF0.0
aF0.0
aF0.0
aF0.0
aF0.0
asg11
I01
sg12
g13
sg14
I00
sg15
g16
sa(dp297
g2
F0.0
sg3
(lp298
F-0.052691994335206424
aF1.081017652189282
aF0.5773556102822472
aF3.1311193224903016
aF0.000278489420312844
aF-0.00033626407131428674
asg5
I0
sg6
F0.5365638766519824
sg7
(F-1.3702357451068323
F-2.2554009596454065
F-0.7647436300860804
F-1.702451531087057
F1.573159098625183
F0.20088332891464233
tp299
sg9
(lp300
F0.0
aF0.0
aF0.0
aF0.0
aF0.0
aF0.0
asg11
I01
sg12
g13
sg14
I00
sg15
g16
sa(dp301
g2
F0.0
sg3
(lp302
F-0.05279467001631185
aF1.0810165323504244
aF0.5773366567248401
aF3.131135787887363
aF0.00025751555422788114
aF-0.00022771424854003402
asg5
I0
sg6
F0.5365638766519824
sg7
(F-1.3701394240008753
F-2.2554009596454065
F-0.7647793928729456
F-1.7024038473712366
F1.5731351375579834
F0.20087134838104248
tp303
sg9
(lp304
F0.0
aF0.0
aF0.0
aF0.0
aF0.0
aF0.0
asg11
I01
sg12
g13
sg14
I00
sg15
g16
sa(dp305
g2
F0.0
sg3
(lp306
F-0.05271826843351737
aF1.081018857969824
aF0.5773664863161988
aF3.1311543694402237
aF0.00028575087454127727
aF-0.0003004324477093245
asg5
I0
sg6
F0.5365638766519824
sg7
(F-1.3702119032489222
F-2.2554009596454065
F-0.7647317091571253
F-1.7024276892291468
F1.573159098625183
F0.20087134838104248
tp307
sg9
(lp308
F0.0
aF0.0
aF0.0
aF0.0
aF0.0
aF0.0
asg11
I01
sg12
g13
sg14
I00
sg15
g16
sa(dp309
g2
F0.0
sg3
(lp310
F-0.05280253845829074
aF1.0810274802633333
aF0.5772862018006237
aF3.1309476679385977
aF0.000280271159867425
aF-0.00024036140638372894
asg5
I0
sg6
F0.5365638766519824
sg7
(F-1.3701394240008753
F-2.255460564290182
F-0.7647317091571253
F-1.7025716940509241
F1.5731950998306274
F0.20088332891464233
tp311
sg9
(lp312
F0.0
aF-0.055682373046875004
aF0.0
aF0.0
aF0.0
aF0.0
asg11
I01
sg12
g13
sg14
I00
sg15
g16
sa(dp313
g2
F0.0
sg3
(lp314
F-0.05279961710756737
aF1.0781007040633048
aF0.5770641036041896
aF3.130920328625142
aF0.00019612124068681897
aF-0.00018104601217667785
asg5
I0
sg6
F0.5365638766519824
sg7
(F-1.3695891539203089
F-2.248519245778219
F-0.7767627874957483
F-1.697524372731344
F1.5731232166290283
F0.2013750523328781
tp315
sg9
(lp316
F0.02274169921875
aF-0.1325439453125
aF0.0
aF0.0
aF0.0
aF0.0
asg11
I01
sg12
g13
sg14
I00
sg15
g16
sa(dp317
g2
F0.0
sg3
(lp318
F-0.05246704964562121
aF1.0666057924315362
aF0.576259772861009
aF3.129697818404856
aF7.452017932521711e-05
aF0.00012558071233368542
asg5
I0
sg6
F0.5365638766519824
sg7
(F-1.3677337805377405
F-2.2222517172442835
F-0.8216217199908655
F-1.6801512877093714
F1.573266625404358
F0.20292215049266815
tp319
sg9
(lp320
F0.0572509765625
aF-0.18430786132812502
aF0.0
aF0.0
aF0.0
aF0.0
asg11
I01
sg12
g13
sg14
I00
sg15
g16
sa(dp321
g2
F0.0
sg3
(lp322
F-0.04883029050356058
aF1.0509747137045786
aF0.5760583053398142
aF3.1300845144772946
aF0.00016928971145403431
aF-5.790887849711917e-06
asg5
I0
sg6
F0.5365638766519824
sg7
(F-1.368129078541891
F-2.1875084082232874
F-0.8788912932025355
F-1.6572278181659144
F1.573278546333313
F0.20265811681747437
tp323
sg9
(lp324
F0.065093994140625
aF-0.19999389648437502
aF0.0
aF0.0
aF0.0
aF0.0
asg11
I01
sg12
g13
sg14
I00
sg15
g16
sa(dp325
g2
F0.0
sg3
(lp326
F-0.04217439843695397
aF1.0300261043348151
aF0.5756301075858091
aF3.1309353196052063
aF0.0003523953350463612
aF-0.00033709453188112033
asg5
I0
sg6
F0.5365638766519824
sg7
(F-1.3703911940204065
F-2.1430543104754847
F-0.9509428183185022
F-1.6287649313556116
F1.573266625404358
F0.20072753727436066
tp327
sg9
(lp328
F0.065093994140625
aF-0.19999389648437502
aF0.0
aF0.0
aF0.0
aF0.0
asg11
I01
sg12
g13
sg14
I00
sg15
g16
sa(dp329
g2
F0.0
sg3
(lp330
F-0.03573550343116921
aF1.0096715306496722
aF0.5748770473912728
aF3.131447151227061
aF0.0004418808366525987
aF-0.00040414815629762903
asg5
I0
sg6
F0.5365638766519824
sg7
(F-1.3726533094989222
F-2.1019938627826136
F-1.016451660786764
F-1.603802506123678
F1.5732306241989136
F0.19853292405605316
tp331
sg9
(lp332
F0.065093994140625
aF-0.19999389648437502
aF0.0
aF0.0
aF0.0
aF0.0
asg11
I01
sg12
g13
sg14
I00
sg15
g16
sa(dp333
g2
F0.0
sg3
(lp334
F-0.028844413691132414
aF0.9878613234905809
aF0.5738892956350885
aF3.1313968384826443
aF0.0004327849125694221
aF-0.00041082887349185834
asg5
I0
sg6
F0.5365638766519824
sg7
(F-1.375178639088766
F-2.059915367756979
F-1.0822179953204554
F-1.5801718870746058
F1.5732066631317139
F0.19601435959339142
tp335
sg9
(lp336
F0.0
aF-0.19999389648437502
aF0.0
aF0.0
aF0.0
aF0.0
asg11
I01
sg12
g13
sg14
I00
sg15
g16
sa(dp337
g2
F0.0
sg3
(lp338
F-0.02484537542304553
aF0.966540019471782
aF0.572906602280046
aF3.131173133670729
aF0.0003140781304857706
aF-0.00030264580231479683
asg5
I0
sg6
F0.5365638766519824
sg7
(F-1.374939266835348
F-2.020378891621725
F-1.1425464789019983
F-1.5596221129046839
F1.5731351375579834
F0.1961461901664734
tp339
sg9
(lp340
F-0.07137451171875
aF-0.19999389648437502
aF0.0
aF0.0
aF0.0
aF0.0
asg11
I01
sg12
g13
sg14
I00
sg15
g16
sa(dp341
g2
F0.0
sg3
(lp342
F-0.026802265242670164
aF0.9467866771801172
aF0.5721630736734458
aF3.1311752556365784
aF0.00024120457239374836
aF-2.656199507962138e-05
asg5
I0
sg6
F0.5365638766519824
sg7
(F-1.368763271962301
F-1.9849432150470179
F-1.1951497236834925
F-1.5424531141864222
F1.5731232166290283
F0.20204654335975647
tp343
sg9
(lp344
F-0.13411865234375
aF-0.17332763671875
aF0.0
aF0.0
aF0.0
aF0.0
asg11
I01
sg12
g13
sg14
I00
sg15
g16
sa(dp345
g2
F0.0
sg3
(lp346
F-0.03630344156428857
aF0.9264754707673957
aF0.5712678300659958
aF3.1309132264501076
aF0.00011847046016768488
aF0.0001129934051571262
asg5
I0
sg6
F0.5365638766519824
sg7
(F-1.3541253248797815
F-1.9497955481158655
F-1.2463467756854456
F-1.5266512076007288
F1.5732066631317139
F0.21654483675956726
tp347
sg9
(lp348
F-0.157647705078125
aF-0.15450439453125
aF0.0
aF0.0
aF0.0
aF0.0
asg11
I01
sg12
g13
sg14
I00
sg15
g16
sa(dp349
g2
F0.0
sg3
(lp350
F-0.050994006549071824
aF0.9089007137449577
aF0.5709236514176814
aF3.1311565001746127
aF9.691136161421593e-05
aF8.471944540077721e-05
asg5
I0
sg6
F0.5365638766519824
sg7
(F-1.3339341322528284
F-1.9205105940448206
F-1.2874706427203577
F-1.5145300070392054
F1.573338508605957
F0.2367641031742096
tp351
sg9
(lp352
F-0.162353515625
aF-0.149798583984375
aF0.0
aF0.0
aF0.0
aF0.0
asg11
I01
sg12
g13
sg14
I00
sg15
g16
sa(dp353
g2
F0.0
sg3
(lp354
F-0.06606484490531812
aF0.8940094891729065
aF0.5704949328528559
aF3.1308558510998648
aF1.245938492932318e-05
aF-7.5490000362981e-05
asg5
I0
sg6
F0.5365638766519824
sg7
(F-1.313406769429342
F-1.8967517058001917
F-1.3203709761248987
F-1.505646053944723
F1.5735422372817993
F0.25745072960853577
tp355
sg9
(lp356
F-0.1937255859375
aF-0.115289306640625
aF0.0
aF0.0
aF0.0
aF0.0
asg11
I01
sg12
g13
sg14
I00
sg15
g16
sa(dp357
g2
F0.0
sg3
(lp358
F-0.0846073872814375
aF0.8802337181388392
aF0.5702333549966605
aF3.1307771477190567
aF1.3635409925638382e-05
aF0.00012846428029463715
asg5
I0
sg6
F0.5365638766519824
sg7
(F-1.2888205687152308
F-1.8760736624347132
F-1.3483918348895472
F-1.4983084837542933
F1.573817491531372
F0.2818315327167511
tp359
sg9
(lp360
F-0.2
aF-0.096466064453125
aF0.0
aF0.0
aF0.0
aF0.0
asg11
I01
sg12
g13
sg14
I00
sg15
g16
sa(dp361
g2
F0.0
sg3
(lp362
F-0.10310651513185098
aF0.8699443421723754
aF0.5703202465595728
aF3.1312548138837575
aF0.00017958661824098214
aF-7.307638651759726e-05
asg5
I0
sg6
F0.5365638766519824
sg7
(F-1.2649276892291468
F-1.8619888464557093
F-1.3668831030475062
F-1.4933207670794886
F1.5740811824798584
F0.3059246838092804
tp363
sg9
(lp364
F-0.2
aF-0.112152099609375
aF0.0
aF0.0
aF0.0
aF0.0
asg11
I01
sg12
g13
sg14
I00
sg15
g16
sa(dp365
g2
F0.0
sg3
(lp366
F-0.1234184408421185
aF0.8590641898282574
aF0.5697552350411734
aF3.131212942940247
aF0.0002577382654689527
aF-0.00020784711603471544
asg5
I0
sg6
F0.5365638766519824
sg7
(F-1.2384603659259241
F-1.8483122030841272
F-1.38568622270693
F-1.488117520009176
F1.5744283199310303
F0.3325248062610626
tp367
sg9
(lp368
F-0.18274536132812502
aF-0.127838134765625
aF-0.1827392578125
aF0.0
aF0.0
aF0.0
asg11
I01
sg12
g13
sg14
I00
sg15
g16
sa(dp369
g2
F0.0
sg3
(lp370
F-0.14231290161372884
aF0.845521010735425
aF0.5562756724218487
aF3.129954482912715
aF-0.00016774083330621607
aF-0.0002684434584701656
asg5
I0
sg6
F0.5365638766519824
sg7
(F-1.2120874563800257
F-1.8332918326007288
F-1.428455654774801
F-1.4615967909442347
F1.5747278928756714
F0.3589567542076111
tp371
sg9
(lp372
F-0.17176513671875002
aF-0.14195556640625
aF-0.19999389648437502
aF0.0
aF0.0
aF0.0
asg11
I01
sg12
g13
sg14
I00
sg15
g16
sa(dp373
g2
F0.0
sg3
(lp374
F-0.1583959446140987
aF0.8315178384124661
aF0.5372392036685791
aF3.1303548495310074
aF-4.87649517477167e-06
aF-0.0003111486718021587
asg5
I0
sg6
F0.5365638766519824
sg7
(F-1.1881192366229456
F-1.8193991819964808
F-1.4798362890826624
F-1.4235790411578577
F1.574991226196289
F0.38296639919281006
tp375
sg9
(lp376
F-0.1498046875
aF-0.16391601562500002
aF-0.19999389648437502
aF0.0
aF0.0
aF0.0
asg11
I01
sg12
g13
sg14
I00
sg15
g16
sa(dp377
g2
F0.0
sg3
(lp378
F-0.173975131620751
aF0.8142341707578905
aF0.5163137157871072
aF3.13035067093749
aF-9.840326052110958e-05
aF-0.00023594932229892531
asg5
I0
sg6
F0.5365638766519824
sg7
(F-1.1625941435443323
F-1.802713696156637
F-1.538006607686178
F-1.3820250670062464
F1.5751709938049316
F0.4084160327911377
tp379
sg9
(lp380
F-0.14823608398437502
aF-0.16862182617187502
aF-0.12940673828125002
aF0.0
aF0.0
aF0.0
asg11
I01
sg12
g13
sg14
I00
sg15
g16
sa(dp381
g2
F0.0
sg3
(lp382
F-0.1872702906797449
aF0.7973820396767277
aF0.49986983645145244
aF3.130851726319549
aF0.00015556149520179867
aF-0.00030066264387524765
asg5
I0
sg6
F0.5365638766519824
sg7
(F-1.1391390005694788
F-1.7863643805133265
F-1.587881867085592
F-1.3478320280658167
F1.5754342079162598
F0.4319346845149994
tp383
sg9
(lp384
F-0.14666748046875
aF-0.16862182617187502
aF0.0
aF0.0
aF0.0
aF0.0
asg11
I01
sg12
g13
sg14
I00
sg15
g16
sa(dp385
g2
F0.0
sg3
(lp386
F-0.2016444088303227
aF0.7791818367595189
aF0.49259961644042866
aF3.1309463537345597
aF0.0002570982539194516
aF-0.00018901100915720909
asg5
I0
sg6
F0.5365638766519824
sg7
(F-1.1130130926715296
F-1.7661307493792933
F-1.6257975737201136
F-1.3298962751971644
F1.5757339000701904
F0.45794758200645447
tp387
sg9
(lp388
F-0.137255859375
aF-0.15450439453125
aF0.0
aF0.0
aF0.0
aF0.0
asg11
I01
sg12
g13
sg14
I00
sg15
g16
sa(dp389
g2
F0.0
sg3
(lp390
F-0.21562623201931128
aF0.7618055270203389
aF0.49257664866026796
aF3.131298420319257
aF0.0004242237032283336
aF-0.00013474729494640698
asg5
I0
sg6
F0.5365638766519824
sg7
(F-1.0870049635516565
F-1.744842831288473
F-1.6515525023089808
F-1.3249085585223597
F1.5759612321853638
F0.48390090465545654
tp391
sg9
(lp392
F-0.123138427734375
aF-0.12626953125
aF0.0
aF0.0
aF0.0
aF0.0
asg11
I01
sg12
g13
sg14
I00
sg15
g16
sa(dp393
g2
F0.0
sg3
(lp394
F-0.227551723410248
aF0.7480787686772923
aF0.49249447979330446
aF3.131214112994514
aF0.00038732842309652785
aF-8.552747236044653e-05
asg5
I0
sg6
F0.5365638766519824
sg7
(F-1.0649235884295862
F-1.7289612928973597
F-1.670490566884176
F-1.3218277136432093
F1.576164960861206
F0.5059323906898499
tp395
sg9
(lp396
F-0.12156982421875001
aF-0.165484619140625
aF0.0
aF0.0
aF0.0
aF0.0
asg11
I01
sg12
g13
sg14
I00
sg15
g16
sa(dp397
g2
F0.0
sg3
(lp398
F-0.23958418709148263
aF0.7330585577137874
aF0.49193346888933787
aF3.1305770438560634
aF-3.208409970041302e-05
aF-9.752055047683533e-05
asg5
I0
sg6
F0.5365638766519824
sg7
(F-1.0413802305804651
F-1.7118685881244105
F-1.6912854353534144
F-1.3187583128558558
F1.576332688331604
F0.5294874310493469
tp399
sg9
(lp400
F-0.10431518554687501
aF-0.19842529296875
aF0.0
aF0.0
aF0.0
aF0.0
asg11
I01
sg12
g13
sg14
I00
sg15
g16
sa(dp401
g2
F0.0
sg3
(lp402
F-0.24966590651197806
aF0.7155758947282886
aF0.49187433912096656
aF3.130714189572154
aF0.00014163310167814486
aF-0.00013453981244126518
asg5
I0
sg6
F0.5365638766519824
sg7
(F-1.0177882353412073
F-1.6901376883136194
F-1.7163193861590784
F-1.3151138464557093
F1.5766319036483765
F0.5531150698661804
tp403
sg9
(lp404
F-0.061962890625
aF-0.19999389648437502
aF0.0
aF0.0
aF0.0
aF0.0
asg11
I01
sg12
g13
sg14
I00
sg15
g16
sa(dp405
g2
F0.0
sg3
(lp406
F-0.2564990601321065
aF0.6947333181285762
aF0.491534461029812
aF3.130803886809828
aF0.00014851473650038827
aF-0.00015573177552706001
asg5
I0
sg6
F0.5365638766519824
sg7
(F-0.994662110005514
F-1.6619465986834925
F-1.7484543959247034
F-1.310953442250387
F1.576799750328064
F0.5762622356414795
tp407
sg9
(lp408
F0.0
aF-0.19999389648437502
aF-0.1074462890625
aF0.0
aF0.0
aF0.0
asg11
I01
sg12
g13
sg14
I00
sg15
g16
sa(dp409
g2
F0.0
sg3
(lp410
F-0.2590858866796651
aF0.6755085853301397
aF0.48680436221711976
aF3.1306911104062474
aF6.746197311565481e-05
aF-0.00015704084093895918
asg5
I0
sg6
F0.5365638766519824
sg7
(F-0.9767807165728968
F-1.6359856764422815
F-1.7852471510516565
F-1.3001516501056116
F1.5769550800323486
F0.5941445827484131
tp411
sg9
(lp412
F0.0
aF-0.15450439453125
aF-0.19999389648437502
aF0.0
aF0.0
aF0.0
asg11
I01
sg12
g13
sg14
I00
sg15
g16
sa(dp413
g2
F0.0
sg3
(lp414
F-0.25876754659024404
aF0.6578088873847566
aF0.46981567223339504
aF3.1305157322271033
aF-1.9191639093239497e-05
aF-0.00033277839069331845
asg5
I0
sg6
F0.5365638766519824
sg7
(F-0.9628036657916468
F-1.6168683210956019
F-1.8365643660174769
F-1.2680571714984339
F1.5771108865737915
F0.608296811580658
tp415
sg9
(lp416
F0.0
aF0.0
aF-0.115289306640625
aF0.0
aF0.0
aF0.0
asg11
I01
sg12
g13
sg14
I00
sg15
g16
sa(dp417
g2
F0.0
sg3
(lp418
F-0.25846477532365164
aF0.6522555137587545
aF0.45319745604724687
aF3.1308402258032784
aF0.00022193453318475434
aF-0.00015822693041371436
asg5
I0
sg6
F0.5365638766519824
sg7
(F-0.9585273901568812
F-1.6171801725970667
F-1.866993252431051
F-1.2368863264666956
F1.5771589279174805
F0.6123983860015869
tp419
sg9
(lp420
F0.0
aF0.0
aF0.0
aF0.0
aF0.0
aF0.0
asg11
I01
sg12
g13
sg14
I00
sg15
g16
sa(dp421
g2
F0.0
sg3
(lp422
F-0.25836674740224325
aF0.6524200878506426
aF0.450406365397776
aF3.131061152150068
aF0.00033536872240946824
aF-0.00019345381200148873
asg5
I0
sg6
F0.5365638766519824
sg7
(F-0.9587786833392542
F-1.6189659277545374
F-1.8703463713275355
F-1.2315028349505823
F1.5771229267120361
F0.6121826767921448
tp423
sg9
(lp424
F0.0
aF0.0
aF0.0
aF0.0
aF0.0
aF0.0
asg11
I01
sg12
g13
sg14
I00
sg15
g16
sa(dp425
g2
F0.0
sg3
(lp426
F-0.25827329046841585
aF0.6524394207076216
aF0.4504583887780717
aF3.130723894441492
aF0.00012911008006744214
aF-0.00020554734831233155
asg5
I0
sg6
F0.5365638766519824
sg7
(F-0.9589102903949183
F-1.6189420858966272
F-1.870190445576803
F-1.2320779005633753
F1.5771468877792358
F0.6120628714561462
tp427
sg9
(lp428
F-0.03372802734375
aF0.025885009765625
aF0.0
aF0.0
aF0.0
aF0.0
asg11
I01
sg12
g13
sg14
I00
sg15
g16
sa(dp429
g2
F0.0
sg3
(lp430
F-0.25995194862700255
aF0.6544195690304525
aF0.4507491356257317
aF3.1309523886872292
aF0.0002711802698261796
aF-0.00020573456539714003
asg5
I0
sg6
F0.5365638766519824
sg7
(F-0.9585631529437464
F-1.6228135267840784
F-1.8656161467181605
F-1.2325099150287073
F1.5771348476409912
F0.6124103665351868
tp431
sg9
(lp432
F-0.141961669921875
aF0.18431396484375
aF0.0
aF0.0
aF0.0
aF0.0
asg11
I01
sg12
g13
sg14
I00
sg15
g16
sa(dp433
g2
F0.0
sg3
(lp434
F-0.2683856555567724
aF0.6651005151661535
aF0.45035690509123
aF3.1305885242113574
aF3.4310017140841665e-05
aF-8.739067425375405e-05
asg5
I0
sg6
F0.5365638766519824
sg7
(F-0.957473103200094
F-1.644543472920553
F-1.842971150075094
F-1.2338526884662073
F1.5771589279174805
F0.6133818626403809
tp435
sg9
(lp436
F-0.04627685546875
aF0.2
aF0.0
aF0.0
aF0.0
aF0.0
asg11
I01
sg12
g13
sg14
I00
sg15
g16
sa(dp437
g2
F0.0
sg3
(lp438
F-0.278322385561467
aF0.6846406763846975
aF0.4496076981012912
aF3.1304694665468684
aF2.4876705002524476e-05
aF-0.0003700869440453166
asg5
I0
sg6
F0.5365638766519824
sg7
(F-0.9618089834796351
F-1.680584732686178
F-1.8045409361468714
F-1.2363703886615198
F1.5771828889846802
F0.6093282103538513
tp439
sg9
(lp440
F0.0
aF0.07294311523437501
aF0.0
aF0.0
aF0.0
aF0.0
asg11
I01
sg12
g13
sg14
I00
sg15
g16
sa(dp441
g2
F0.0
sg3
(lp442
F-0.28011675942263736
aF0.6981091629671867
aF0.44878413873279677
aF3.1300094188083794
aF-0.0002407664169912771
aF-0.0004309195198961554
asg5
I0
sg6
F0.5365638766519824
sg7
(F-0.9703009764300745
F-1.7023757139789026
F-1.7811749617206019
F-1.2385285536395472
F1.5771468877792358
F0.6008968949317932
tp443
sg9
(lp444
F0.0
aF0.0
aF0.0
aF0.0
aF0.0
aF0.0
asg11
I01
sg12
g13
sg14
I00
sg15
g16
sa(dp445
g2
F0.0
sg3
(lp446
F-0.2800043753535939
aF0.7002838361069098
aF0.4491841772674814
aF3.130633501095391
aF0.00022342464026803142
aF-0.00021307143742892157
asg5
I0
sg6
F0.5365638766519824
sg7
(F-0.9720976988421839
F-1.7052763144122522
F-1.7772586981402796
F-1.2387798468219202
F1.5771589279174805
F0.5988820791244507
tp447
sg9
(lp448
F0.07607421875
aF0.0
aF0.0
aF0.0
aF0.0
aF0.0
asg11
I01
sg12
g13
sg14
I00
sg15
g16
sa(dp449
g2
F0.0
sg3
(lp450
F-0.27616253696708093
aF0.6996926587584736
aF0.4490875060349413
aF3.130494694460939
aF0.000156609924972512
aF-0.00021989991323326125
asg5
I0
sg6
F0.5365638766519824
sg7
(F-0.9759662787066858
F-1.70217210451235
F-1.7809713522540491
F-1.2383483091937464
F1.5771468877792358
F0.5950201749801636
tp451
sg9
(lp452
F0.159210205078125
aF-0.05411376953125
aF0.0
aF0.0
aF0.0
aF0.0
asg11
I01
sg12
g13
sg14
I00
sg15
g16
sa(dp453
g2
F0.0
sg3
(lp454
F-0.26437721327904884
aF0.6968316269990655
aF0.4493491851824745
aF3.1307717348903727
aF0.00036073378198032513
aF-0.00033609130208958735
asg5
I0
sg6
F0.5365638766519824
sg7
(F-0.9871886412249964
F-1.6908209959613245
F-1.7935107390033167
F-1.2368863264666956
F1.577062964439392
F0.5839141607284546
tp455
sg9
(lp456
F0.065093994140625
aF0.0
aF0.0
aF0.0
aF0.0
aF0.0
asg11
I01
sg12
g13
sg14
I00
sg15
g16
sa(dp457
g2
F0.0
sg3
(lp458
F-0.25121120098597205
aF0.6921975917784835
aF0.4489611363055513
aF3.130407694224875
aF0.00013674803420168352
aF-0.0002829778971225797
asg5
I0
sg6
F0.5365638766519824
sg7
(F-0.9989374319659632
F-1.676617447529928
F-1.810145680104391
F-1.2349556128131312
F1.5769671201705933
F0.5721123218536377
tp459
sg9
(lp460
F0.0
aF0.0
aF0.0
aF0.0
aF0.0
aF0.0
asg11
I01
sg12
g13
sg14
I00
sg15
g16
sa(dp461
g2
F0.0
sg3
(lp462
F-0.24821244343838564
aF0.6912391705189893
aF0.44909377676998496
aF3.1306140948720267
aF0.00022960405828715704
aF-0.00024245116131026617
asg5
I0
sg6
F0.5365638766519824
sg7
(F-1.0017278830157679
F-1.6734054724322718
F-1.8135350386248987
F-1.2345717589007776
F1.5769076347351074
F0.5692817568778992
tp463
sg9
(lp464
F0.0
aF0.0
aF0.0
aF0.0
aF0.0
aF0.0
asg11
I01
sg12
g13
sg14
I00
sg15
g16
sa(dp465
g2
F0.0
sg3
(lp466
F-0.2485202051354097
aF0.6912574288637613
aF0.44899153538881414
aF3.1305488575492593
aF8.478949227187239e-05
aF-0.0001945836831602997
asg5
I0
sg6
F0.5365638766519824
sg7
(F-1.001368824635641
F-1.6736686865436
F-1.8134029547320765
F-1.2345717589007776
F1.5768237113952637
F0.5695937275886536
tp467
sg9
(lp468
F0.0
aF0.0
aF0.0
aF0.0
aF0.0
aF0.0
asg11
I01
sg12
g13
sg14
I01
sg15
g16
sa(dp469
g2
F0.0
sg3
(lp470
F-0.24849646968043376
aF0.6913036276002571
aF0.4490540530947982
aF3.130651327422596
aF0.0001222225327676542
aF-0.00022999763355484963
asg5
I0
sg6
F0.5365638766519824
sg7
(F-1.0014284292804163
F-1.6736810843097132
F-1.8132956663714808
F-1.2345603148089808
F1.576799750328064
F0.5695697665214539
tp471
sg9
(lp472
F0.0
aF0.0
aF0.0
aF0.0
aF0.0
aF0.0
asg11
I01
sg12
g13
sg14
I01
sg15
g16
sa(dp473
g2
F0.0
sg3
(lp474
F-0.2484955171693576
aF0.6913001007307679
aF0.4491009541286395
aF3.130685859125562
aF0.00015862143800883077
aF-0.00021812172817338053
asg5
I0
sg6
F0.5365638766519824
sg7
(F-1.0014284292804163
F-1.6736448446856897
F-1.8132594267474573
F-1.234584156666891
F1.576811671257019
F0.569557785987854
tp475
sg9
(lp476
F0.0
aF0.0
aF0.0
aF0.0
aF0.0
aF0.0
asg11
I01
sg12
g13
sg14
I01
sg15
g16
sa(dp477
g2
F0.0
sg3
(lp478
F-0.24848818691966837
aF0.6913147999567167
aF0.44911982661498495
aF3.1307575923779143
aF0.0002470512247976475
aF-0.00026671116231429654
asg5
I0
sg6
F0.5365638766519824
sg7
(F-1.0014527479754847
F-1.6736448446856897
F-1.8132475058185022
F-1.2344878355609339
F1.5768476724624634
F0.5695817470550537
tp479
sg9
(lp480
F-0.04666748046875
aF0.0
aF0.0
aF0.0
aF0.0
aF0.0
asg11
I01
sg12
g13
sg14
I01
sg15
g16
sa(dp481
g2
F0.0
sg3
(lp482
F-0.25004247518414374
aF0.6913618539518191
aF0.44910167141255586
aF3.130802312255168
aF0.00019846445091081753
aF-0.0003764279468473999
asg5
I0
sg6
F0.5365638766519824
sg7
(F-0.9996560255633753
F-1.674579922352926
F-1.8122413794146937
F-1.2345359961139124
F1.576799750328064
F0.5714887380599976
tp483
sg9
(lp484
F-0.1
aF0.0
aF0.0
aF0.0
aF0.0
aF0.0
asg11
I01
sg12
g13
sg14
I01
sg15
g16
sa(dp485
g2
F0.0
sg3
(lp486
F-0.2575893813026015
aF0.6912205323661471
aF0.4491528975166538
aF3.1310218144255324
aF0.0002651234517987919
aF-5.432373007420474e-06
asg5
I0
sg6
F0.5365638766519824
sg7
(F-0.9907339254962366
F-1.6785357634173792
F-1.8077738920794886
F-1.2347758452044886
F1.576811671257019
F0.5800402760505676
tp487
sg9
(lp488
F-0.1
aF-0.0192138671875
aF0.0
aF0.0
aF0.0
aF0.0
asg11
I01
sg12
g13
sg14
I01
sg15
g16
sa(dp489
g2
F0.0
sg3
(lp490
F-0.26737640845758126
aF0.6904991577825585
aF0.4491177456211937
aF3.131085749842954
aF0.0002708200563511924
aF-2.1230821329222693e-05
asg5
I0
sg6
F0.5365638766519824
sg7
(F-0.9788764158831995
F-1.6830900351153772
F-1.802744213734762
F-1.2351229826556605
F1.5768835544586182
F0.591913640499115
tp491
sg9
(lp492
F-0.1
aF-0.039605712890625006
aF0.0
aF0.0
aF0.0
aF0.0
asg11
I01
sg12
g13
sg14
I01
sg15
g16
sa(dp493
g2
F0.0
sg3
(lp494
F-0.27763888952291244
aF0.6871736135390983
aF0.44894963665304766
aF3.130849391035627
aF7.39620905570506e-05
aF-0.0001008012385400002
asg5
I0
sg6
F0.5365638766519824
sg7
(F-0.9645636717425745
F-1.68431264558901
F-1.8016307989703577
F-1.2352317015277308
F1.576979160308838
F0.6063058972358704
tp495
sg9
(lp496
F-0.08745117187500001
aF-0.06862487792968751
aF0.0
aF0.0
aF0.0
aF0.0
asg11
I01
sg12
g13
sg14
I01
sg15
g16
sa(dp497
g2
F0.0
sg3
(lp498
F-0.2875759629263655
aF0.6815317338916685
aF0.44895805858592763
aF3.130734774418896
aF2.9637631588437177e-05
aF-5.106199411962327e-05
asg5
I0
sg6
F0.5365638766519824
sg7
(F-0.9488375822650355
F-1.6820114294635218
F-1.8042052427874964
F-1.2349794546710413
F1.5771468877792358
F0.621981680393219
tp499
sg9
(lp500
F-0.05921630859375
aF-0.09136962890625
aF0.0
aF0.0
aF0.0
aF0.0
asg11
I01
sg12
g13
sg14
I01
sg15
g16
sa(dp501
g2
F0.0
sg3
(lp502
F-0.2942556139063146
aF0.6735887107015293
aF0.4487948708277374
aF3.1305224364679543
aF-8.698883565672749e-05
aF-0.00015351675397984573
asg5
I0
sg6
F0.5365638766519824
sg7
(F-0.9348471800433558
F-1.674556080495016
F-1.812840763722555
F-1.2339490095721644
F1.5773026943206787
F0.6360740065574646
tp503
sg9
(lp504
F-0.048236083984375004
aF-0.099212646484375
aF0.0
aF0.0
aF0.0
aF0.0
asg11
I01
sg12
g13
sg14
I01
sg15
g16
sa(dp505
g2
F0.0
sg3
(lp506
F-0.2994162034407698
aF0.6633669261046541
aF0.4491482339058893
aF3.1309978739598883
aF0.00027960187940121345
aF-0.0001487571011536821
asg5
I0
sg6
F0.5365638766519824
sg7
(F-0.920473877583639
F-1.6625106970416468
F-1.825714413319723
F-1.2324259916888636
F1.5774345397949219
F0.6504423022270203
tp507
sg9
(lp508
F-0.0458831787109375
aF-0.09999694824218751
aF0.0
aF0.0
aF0.0
aF0.0
asg11
I01
sg12
g13
sg14
I01
sg15
g16
sa(dp509
g2
F0.0
sg3
(lp510
F-0.30362797676196596
aF0.6537345029040403
aF0.44875938501059087
aF3.130583634081732
aF-1.2689889379986656e-05
aF-6.941810673116956e-05
asg5
I0
sg6
F0.5365638766519824
sg7
(F-0.9074290434466761
F-1.651339356099264
F-1.838611904774801
F-1.231119457875387
F1.5775659084320068
F0.6634073853492737
tp511
sg9
(lp512
F-0.040393066406250004
aF-0.09999694824218751
aF0.0
aF0.0
aF0.0
aF0.0
asg11
I01
sg12
g13
sg14
I01
sg15
g16
sa(dp513
g2
F0.0
sg3
(lp514
F-0.30784985788356967
aF0.6433707521488358
aF0.4487735358256643
aF3.1306609060303203
aF6.423694440583655e-05
aF-6.30330739458776e-05
asg5
I0
sg6
F0.5365638766519824
sg7
(F-0.8934858481036585
F-1.6389101187335413
F-1.8521087805377405
F-1.2298482100116175
F1.57769775390625
F0.6773439049720764
tp515
sg9
(lp516
F-0.021569824218750002
aF-0.09999694824218751
aF0.0
aF0.0
aF0.0
aF0.0
asg11
I01
sg12
g13
sg14
I01
sg15
g16
sa(dp517
g2
F0.0
sg3
(lp518
F-0.31072730502174745
aF0.6329482919696068
aF0.4488320094184377
aF3.130842351124741
aF0.00021474889748338962
aF-3.0374654597172837e-05
asg5
I0
sg6
F0.5365638766519824
sg7
(F-0.8807280699359339
F-1.625486199055807
F-1.8664310614215296
F-1.2286255995379847
F1.5778056383132935
F0.6900689005851746
tp519
sg9
(lp520
F0.0
aF-0.09999694824218751
aF0.0
aF0.0
aF0.0
aF0.0
asg11
I01
sg12
g13
sg14
I01
sg15
g16
sa(dp521
g2
F0.0
sg3
(lp522
F-0.31161314947544505
aF0.623430366094354
aF0.4485197707962335
aF3.1306292525460564
aF6.12373425764722e-06
aF-0.00022264147859114484
asg5
I0
sg6
F0.5365638766519824
sg7
(F-0.8707974592791956
F-1.6122420469867151
F-1.880932633076803
F-1.2275942007647913
F1.5778656005859375
F0.700191855430603
tp523
sg9
(lp524
F0.0
aF-0.09999694824218751
aF0.0
aF0.0
aF0.0
aF0.0
asg11
I01
sg12
g13
sg14
I01
sg15
g16
sa(dp525
g2
F0.0
sg3
(lp526
F-0.3115482519722696
aF0.6131169742914008
aF0.4485989013797588
aF3.130940291605697
aF0.0002751645620982091
aF-0.0002695513755490773
asg5
I0
sg6
F0.5365638766519824
sg7
(F-0.8609498182879847
F-1.5968049208270472
F-1.8969185988055628
F-1.2265637556659144
F1.5779494047164917
F0.7100863456726074
tp527
sg9
(lp528
F0.0
aF-0.09999694824218751
aF0.0
aF0.0
aF0.0
aF0.0
asg11
I01
sg12
g13
sg14
I01
sg15
g16
sa(dp529
g2
F0.0
sg3
(lp530
F-0.31137089157043374
aF0.6034940836485964
aF0.44811074571626697
aF3.1304275870102414
aF-0.0001263235452229331
aF-0.00011251168084180612
asg5
I0
sg6
F0.5365638766519824
sg7
(F-0.8516653219806116
F-1.5826976935016077
F-1.91211444536318
F-1.2260597387896937
F1.5780569314956665
F0.7192134261131287
tp531
sg9
(lp532
F0.0
aF-0.09999694824218751
aF0.0
aF0.0
aF0.0
aF0.0
asg11
I01
sg12
g13
sg14
I01
sg15
g16
sa(dp533
g2
F0.0
sg3
(lp534
F-0.3112038505598234
aF0.5932068155944371
aF0.4482816712277092
aF3.130735687487557
aF0.00019403726260408077
aF-0.00012449029993102467
asg5
I0
sg6
F0.5365638766519824
sg7
(F-0.8414581457721155
F-1.5670807997332972
F-1.9275968710528772
F-1.2256763617144983
F1.578176736831665
F0.729432225227356
tp535
sg9
(lp536
F0.0
aF-0.09999694824218751
aF0.0
aF0.0
aF0.0
aF0.0
asg11
I01
sg12
g13
sg14
I01
sg15
g16
sa(dp537
g2
F0.0
sg3
(lp538
F-0.3110381546239793
aF0.5835615216402043
aF0.44795332587236253
aF3.1304494232875997
aF-4.15669767355399e-05
aF-5.234159954043504e-05
asg5
I0
sg6
F0.5365638766519824
sg7
(F-0.831646744404928
F-1.552746597920553
F-1.942301098500387
F-1.2256043593036097
F1.5782727003097534
F0.7391712665557861
tp539
sg9
(lp540
F0.0
aF-0.09999694824218751
aF0.0
aF0.0
aF0.0
aF0.0
asg11
I01
sg12
g13
sg14
I01
sg15
g16
sa(dp541
g2
F0.0
sg3
(lp542
F-0.31061918829470486
aF0.5732574817501918
aF0.4480832992792442
aF3.1308330141524667
aF0.00027891301638211506
aF-0.00011126923790031454
asg5
I0
sg6
F0.5365638766519824
sg7
(F-0.8211634794818323
F-1.5368183294879358
F-1.9576390425311487
F-1.2256162802325647
F1.578332543373108
F0.749713659286499
tp543
sg9
(lp544
F0.0356842041015625
aF-0.09999694824218751
aF0.0
aF0.0
aF0.0
aF0.0
asg11
I01
sg12
g13
sg14
I01
sg15
g16
sa(dp545
g2
F0.0
sg3
(lp546
F-0.3080908463003825
aF0.562999602568298
aF0.4476004461514501
aF3.1305829434190087
aF-1.3500458637737497e-05
aF-0.00025171892533626806
asg5
I0
sg6
F0.5365638766519824
sg7
(F-0.8128965536700647
F-1.5195959250079554
F-1.9748566786395472
F-1.2259400526629847
F1.5783565044403076
F0.7581213116645813
tp547
sg9
(lp548
F0.0576446533203125
aF-0.0890167236328125
aF0.0
aF0.0
aF0.0
aF0.0
asg11
I01
sg12
g13
sg14
I01
sg15
g16
sa(dp549
g2
F0.0
sg3
(lp550
F-0.3032832483192487
aF0.5539750424907258
aF0.44784951348384844
aF3.131142326210334
aF0.0005554346636684171
aF-0.00019627865072104737
asg5
I0
sg6
F0.5365638766519824
sg7
(F-0.8084633986102503
F-1.5016663710223597
F-1.991272274647848
F-1.2266233603106897
F1.5784164667129517
F0.7624989748001099
tp551
sg9
(lp552
F0.077252197265625
aF-0.074114990234375
aF0.0
aF0.0
aF0.0
aF0.0
asg11
I01
sg12
g13
sg14
I01
sg15
g16
sa(dp553
g2
F0.0
sg3
(lp554
F-0.2962633128804186
aF0.545428805479486
aF0.4473610405135652
aF3.1307993041953237
aF0.00021366540693620257
aF-0.00015008219246744254
asg5
I0
sg6
F0.5365638766519824
sg7
(F-0.8070858160602015
F-1.4830177466021937
F-2.009064022694723
F-1.2279542128192347
F1.5784164667129517
F0.763830304145813
tp555
sg9
(lp556
F0.08431091308593751
aF-0.06627197265625
aF0.0
aF0.0
aF0.0
aF0.0
asg11
I01
sg12
g13
sg14
I01
sg15
g16
sa(dp557
g2
F0.0
sg3
(lp558
F-0.28848404822337376
aF0.538702148318306
aF0.447418849860202
aF3.131052498201668
aF0.00047313441620512267
aF-0.00011259952838447251
asg5
I0
sg6
F0.5365638766519824
sg7
(F-0.8087275663958948
F-1.465987507496969
F-2.0241978804217737
F-1.2295010725604456
F1.5784164667129517
F0.7621510624885559
tp559
sg9
(lp560
F0.0968597412109375
aF-0.0498016357421875
aF0.0
aF0.0
aF0.0
aF0.0
asg11
I01
sg12
g13
sg14
I01
sg15
g16
sa(dp561
g2
F0.0
sg3
(lp562
F-0.2791666818727177
aF0.5326263738061063
aF0.4470568824587093
aF3.130821357609676
aF0.00026297749035333906
aF-0.000372080554127189
asg5
I0
sg6
F0.5365638766519824
sg7
(F-0.8131244818316858
F-1.4489095846759241
F-2.03967792192568
F-1.2314427534686487
F1.578392505645752
F0.7580134868621826
tp563
sg9
(lp564
F0.09999694824218751
aF-0.0184295654296875
aF0.0
aF0.0
aF0.0
aF0.0
asg11
I01
sg12
g13
sg14
I01
sg15
g16
sa(dp565
g2
F0.0
sg3
(lp566
F-0.2690491583548008
aF0.5289186359848109
aF0.44705561622576995
aF3.130913825433917
aF0.0005031553201119949
aF-0.00035155574212898276
asg5
I0
sg6
F0.5365638766519824
sg7
(F-0.8215587774859827
F-1.4346359411822718
F-2.0519021193133753
F-1.2333248297320765
F1.5784404277801514
F0.7495578527450562
tp567
sg9
(lp568
F0.09999694824218751
aF0.0
aF0.0
aF0.0
aF0.0
aF0.0
asg11
I01
sg12
g13
sg14
I01
sg15
g16
sa(dp569
g2
F0.0
sg3
(lp570
F-0.2594061517375356
aF0.5281849729016938
aF0.44674390040548034
aF3.1305699867580135
aF0.0002767069539503398
aF-0.00030319731521877296
asg5
I0
sg6
F0.5365638766519824
sg7
(F-0.8331797758685511
F-1.425887409840719
F-2.0597313086139124
F-1.2347396055804651
F1.5784164667129517
F0.7378878593444824
tp571
sg9
(lp572
F0.09999694824218751
aF0.020001220703125003
aF0.0
aF0.0
aF0.0
aF0.0
asg11
I01
sg12
g13
sg14
I01
sg15
g16
sa(dp573
g2
F0.0
sg3
(lp574
F-0.2491734742735201
aF0.5289355055852362
aF0.44676525411628043
aF3.130588311398185
aF0.00030419223157012625
aF-0.00020313186817689263
asg5
I0
sg6
F0.5365638766519824
sg7
(F-0.8475802580462855
F-1.4190438429461878
F-2.0653699080096644
F-1.2360222975360315
F1.5783085823059082
F0.7233873009681702
tp575
sg9
(lp576
F0.09215393066406251
aF0.044314575195312504
aF0.0
aF0.0
aF0.0
aF0.0
asg11
I01
sg12
g13
sg14
I01
sg15
g16
sa(dp577
g2
F0.0
sg3
(lp578
F-0.23892562282177437
aF0.5321162209775369
aF0.4468011809823253
aF3.130754095173626
aF0.0004575460386755026
aF-0.00032673141865404906
asg5
I0
sg6
F0.5365638766519824
sg7
(F-0.8650825659381312
F-1.4164679686175745
F-2.067453686391012
F-1.2364180723773401
F1.578176736831665
F0.7060086727142334
tp579
sg9
(lp580
F0.0811737060546875
aF0.062353515625
aF0.0
aF0.0
aF0.0
aF0.0
asg11
I01
sg12
g13
sg14
I01
sg15
g16
sa(dp581
g2
F0.0
sg3
(lp582
F-0.23049911166946002
aF0.5371990543935401
aF0.4466230498778655
aF3.130503763385947
aF0.0001679736270954239
aF-0.00030621582041213984
asg5
I0
sg6
F0.5365638766519824
sg7
(F-0.8823936621295374
F-1.4189241568194788
F-2.0656455198871058
F-1.2362740675555628
F1.5779733657836914
F0.6886776089668274
tp583
sg9
(lp584
F0.07254638671875001
aF0.07411804199218751
aF0.0
aF0.0
aF0.0
aF0.0
asg11
I01
sg12
g13
sg14
I01
sg15
g16
sa(dp585
g2
F0.0
sg3
(lp586
F-0.2224935258752468
aF0.544409220332239
aF0.4466494012705122
aF3.130454682806036
aF0.00017011045272077505
aF-0.00016305645040161235
asg5
I0
sg6
F0.5365638766519824
sg7
(F-0.9014757315265101
F-1.4253838698016565
F-2.060186211262838
F-1.2354472319232386
F1.5778416395187378
F0.6694523096084595
tp587
sg9
(lp588
F0.0694091796875
aF0.0788238525390625
aF0.0
aF0.0
aF0.0
aF0.0
asg11
I01
sg12
g13
sg14
I01
sg15
g16
sa(dp589
g2
F0.0
sg3
(lp590
F-0.21531693111660308
aF0.5516827157683201
aF0.4466397652294787
aF3.1304534819300844
aF0.00016619267381542656
aF-0.00034423437825979297
asg5
I0
sg6
F0.5365638766519824
sg7
(F-0.919311825429098
F-1.4328025023089808
F-2.053948704396383
F-1.2343924681292933
F1.577685832977295
F0.6517976522445679
tp591
sg9
(lp592
F0.0694091796875
aF0.0803924560546875
aF0.0
aF0.0
aF0.0
aF0.0
asg11
I01
sg12
g13
sg14
I01
sg15
g16
sa(dp593
g2
F0.0
sg3
(lp594
F-0.20799727986992175
aF0.5599830634539521
aF0.44662426199364363
aF3.1305225535141927
aF0.00021714584698081043
aF-0.00019979934197799192
asg5
I0
sg6
F0.5365638766519824
sg7
(F-0.9382255713092249
F-1.4420903364764612
F-2.0460837523089808
F-1.2330134550677698
F1.5775179862976074
F0.632739782333374
tp595
sg9
(lp596
F0.061566162109375
aF0.08431396484375
aF0.0
aF0.0
aF0.0
aF0.0
asg11
I01
sg12
g13
sg14
I01
sg15
g16
sa(dp597
g2
F0.0
sg3
(lp598
F-0.20099638870708375
aF0.5685663869038371
aF0.4465032362979912
aF3.130466972616111
aF9.85553161633728e-05
aF-0.0003420212182774363
asg5
I0
sg6
F0.5365638766519824
sg7
(F-0.9567068258868616
F-1.4523609320269983
F-2.0374272505389612
F-1.2316349188434046
F1.577290654182434
F0.614401638507843
tp599
sg9
(lp600
F0.055291748046875006
aF0.08980407714843751
aF0.0
aF0.0
aF0.0
aF0.0
asg11
I01
sg12
g13
sg14
I01
sg15
g16
sa(dp601
g2
F0.0
sg3
(lp602
F-0.19524391893679058
aF0.5768676063956745
aF0.44658285716036483
aF3.130642817122639
aF0.0002233690129451451
aF-0.0002473395474469742
asg5
I0
sg6
F0.5365638766519824
sg7
(F-0.9728878180133265
F-1.4629195372210901
F-2.0281007925616663
F-1.2302916685687464
F1.5771468877792358
F0.5981262922286987
tp603
sg9
(lp604
F0.054507446289062504
aF0.092156982421875
aF0.0
aF0.0
aF0.0
aF0.0
asg11
I01
sg12
g13
sg14
I01
sg15
g16
sa(dp605
g2
F0.0
sg3
(lp606
F-0.18920020098529344
aF0.5864048365768422
aF0.4463586385446817
aF3.130434445800458
aF8.674336851976985e-05
aF-0.0003431569235774534
asg5
I0
sg6
F0.5365638766519824
sg7
(F-0.9903505484210413
F-1.4757550398456019
F-2.017085854207174
F-1.2288292090045374
F1.576991081237793
F0.5807597041130066
tp607
sg9
(lp608
F0.0443115234375
aF0.098431396484375
aF0.0
aF0.0
aF0.0
aF0.0
asg11
I01
sg12
g13
sg14
I01
sg15
g16
sa(dp609
g2
F0.0
sg3
(lp610
F-0.1841654386835505
aF0.5954152778135212
aF0.4463345178516963
aF3.1305887510080797
aF0.00015499734105917537
aF-0.0003086723140323621
asg5
I0
sg6
F0.5365638766519824
sg7
(F-1.0055726210223597
F-1.4881952444659632
F-2.005963150654928
F-1.2274382750140589
F1.5768237113952637
F0.5655037760734558
tp611
sg9
(lp612
F0.038037109375
aF0.1
aF0.0
aF0.0
aF0.0
aF0.0
asg11
I01
sg12
g13
sg14
I01
sg15
g16
sa(dp613
g2
F0.0
sg3
(lp614
F-0.17980963859822213
aF0.6058522183819259
aF0.4462662028331613
aF3.1306374496182676
aF0.00022495384798482712
aF-0.0001544569530657242
asg5
I0
sg6
F0.5365638766519824
sg7
(F-1.0207698980914515
F-1.5034640471087855
F-1.992121998463766
F-1.2260239760028284
F1.5767158269882202
F0.5501523613929749
tp615
sg9
(lp616
F0.026272583007812503
aF0.1
aF0.0
aF0.0
aF0.0
aF0.0
asg11
I01
sg12
g13
sg14
I01
sg15
g16
sa(dp617
g2
F0.0
sg3
(lp618
F-0.1762376417212798
aF0.61623599828211
aF0.44596145112058905
aF3.1304089287490777
aF8.231446849399181e-05
aF-0.00021810263225603845
asg5
I0
sg6
F0.5365638766519824
sg7
(F-1.0344465414630335
F-1.5192120710956019
F-1.9779341856585901
F-1.2248128096209925
F1.576583981513977
F0.5365397334098816
tp619
sg9
(lp620
F0.0
aF0.1
aF0.0
aF0.0
aF0.0
aF0.0
asg11
I01
sg12
g13
sg14
I01
sg15
g16
sa(dp621
g2
F0.0
sg3
(lp622
F-0.17506669400294556
aF0.6258859511436495
aF0.4460701617553806
aF3.130704863598264
aF0.00024874664315028134
aF-0.00019179832742942106
asg5
I0
sg6
F0.5365638766519824
sg7
(F-1.0438836256610315
F-1.5345290342914026
F-1.9632428328143519
F-1.2239020506488245
F1.5764881372451782
F0.5270767211914062
tp623
sg9
(lp624
F0.0
aF0.1
aF0.0
aF0.0
aF0.0
aF0.0
asg11
I01
sg12
g13
sg14
I01
sg15
g16
sa(dp625
g2
F0.0
sg3
(lp626
F-0.17494063900113882
aF0.6363310122226714
aF0.4457895172831325
aF3.1304646836986585
aF0.00010579908417194919
aF-0.00014298437158586773
asg5
I0
sg6
F0.5365638766519824
sg7
(F-1.0522659460650843
F-1.5518353621112269
F-1.946935002003805
F-1.2232306639300745
F1.5764045715332031
F0.5186458230018616
tp627
sg9
(lp628
F0.0
aF0.1
aF0.0
aF0.0
aF0.0
aF0.0
asg11
I01
sg12
g13
sg14
I01
sg15
g16
sa(dp629
g2
F0.0
sg3
(lp630
F-0.17493359034289033
aF0.6459736094652023
aF0.4457078396303342
aF3.130569399635462
aF0.00021880548938514713
aF-0.00011994647053755711
asg5
I0
sg6
F0.5365638766519824
sg7
(F-1.0596426169024866
F-1.567620579396383
F-1.9315241018878382
F-1.2227509657489222
F1.5763806104660034
F0.5112459063529968
tp631
sg9
(lp632
F-0.011373901367187501
aF0.1
aF0.0
aF0.0
aF0.0
aF0.0
asg11
I01
sg12
g13
sg14
I01
sg15
g16
sa(dp633
g2
F0.0
sg3
(lp634
F-0.17515801705944078
aF0.656350648400526
aF0.44551953214849466
aF3.130479953001091
aF8.437187259222783e-05
aF-0.00023960550907692617
asg5
I0
sg6
F0.5365638766519824
sg7
(F-1.067031208668844
F-1.5846875349627894
F-1.9146645704852503
F-1.222727123891012
F1.5762368440628052
F0.50397789478302
tp635
sg9
(lp636
F-0.035687255859375
aF0.1
aF0.0
aF0.0
aF0.0
aF0.0
asg11
I01
sg12
g13
sg14
I01
sg15
g16
sa(dp637
g2
F0.0
sg3
(lp638
F-0.1778781828519533
aF0.666862244702771
aF0.44535725006119264
aF3.1305980944716594
aF0.00015387511527470738
aF-8.920580605021306e-05
asg5
I0
sg6
F0.5365638766519824
sg7
(F-1.071042839680807
F-1.6028936545001429
F-1.8963077704059046
F-1.2227633635150355
F1.5762008428573608
F0.499815970659256
tp639
sg9
(lp640
F-0.057647705078125
aF0.1
aF0.0
aF0.0
aF0.0
aF0.0
asg11
I01
sg12
g13
sg14
I01
sg15
g16
sa(dp641
g2
F0.0
sg3
(lp642
F-0.1825752297995014
aF0.6762648863681865
aF0.44519449657903537
aF3.130763962906521
aF0.000250611035589128
aF-7.624252736362532e-05
asg5
I0
sg6
F0.5365638766519824
sg7
(F-1.0716055075274866
F-1.6200445334063929
F-1.878704849873678
F-1.2230265776263636
F1.5762008428573608
F0.49924033880233765
tp643
sg9
(lp644
F-0.07411804199218751
aF0.08352966308593751
aF0.0
aF0.0
aF0.0
aF0.0
asg11
I01
sg12
g13
sg14
I01
sg15
g16
sa(dp645
g2
F0.0
sg3
(lp646
F-0.18973712402901416
aF0.6856750930257598
aF0.4449522121586133
aF3.130706083361483
aF0.00019139443060218453
aF-6.817656031023418e-05
asg5
I0
sg6
F0.5365638766519824
sg7
(F-1.069031063710348
F-1.6382511297809046
F-1.8597243467914026
F-1.223865811024801
F1.5762008428573608
F0.5018068552017212
tp647
sg9
(lp648
F-0.0866668701171875
aF0.0686279296875
aF0.0
aF0.0
aF0.0
aF0.0
asg11
I01
sg12
g13
sg14
I01
sg15
g16
sa(dp649
g2
F0.0
sg3
(lp650
F-0.19792500190738627
aF0.6934142102936917
aF0.4448845695177642
aF3.1307864971048036
aF0.00015348488655216028
aF-0.00025556999720590756
asg5
I0
sg6
F0.5365638766519824
sg7
(F-1.0641096274005335
F-1.6541083494769495
F-1.8426478544818323
F-1.2250054518329065
F1.5761768817901611
F0.5069162249565125
tp651
sg9
(lp652
F-0.09372558593750001
aF0.0505889892578125
aF0.0
aF0.0
aF0.0
aF0.0
asg11
I01
sg12
g13
sg14
I01
sg15
g16
sa(dp653
g2
F0.0
sg3
(lp654
F-0.20674277552028714
aF0.69905271282076
aF0.4446597915532263
aF3.1306236399714713
aF1.452556133087886e-06
aF-0.00014573518604021313
asg5
I0
sg6
F0.5365638766519824
sg7
(F-1.0571158568011683
F-1.667088810597555
F-1.8287203947650355
F-1.2261317412005823
F1.5761889219284058
F0.5138004422187805
tp655
sg9
(lp656
F-0.09921569824218751
aF0.040393066406250004
aF0.0
aF0.0
aF0.0
aF0.0
asg11
I01
sg12
g13
sg14
I01
sg15
g16
sa(dp657
g2
F0.0
sg3
(lp658
F-0.216724234285774
aF0.7037176592784473
aF0.4446846715912405
aF3.1307968027650737
aF8.388062964332881e-05
aF-0.00037564128189228796
asg5
I0
sg6
F0.5365638766519824
sg7
(F-1.0482185522662562
F-1.6789911429034632
F-1.8154385725604456
F-1.2272704283343714
F1.5762608051300049
F0.5229275226593018
tp659
sg9
(lp660
F-0.1
aF0.0317657470703125
aF0.0
aF0.0
aF0.0
aF0.0
asg11
I01
sg12
g13
sg14
I01
sg15
g16
sa(dp661
g2
F0.0
sg3
(lp662
F-0.22651359554447287
aF0.7070857735581639
aF0.4445117363300317
aF3.130586601692903
aF1.4381237369963495e-05
aF-0.00017446486842608459
asg5
I0
sg6
F0.5365638766519824
sg7
(F-1.038853947316305
F-1.689059082661764
F-1.8043611685382288
F-1.228445831929342
F1.576392650604248
F0.5320902466773987
tp663
sg9
(lp664
F-0.1
aF0.0223541259765625
aF0.0
aF0.0
aF0.0
aF0.0
asg11
I01
sg12
g13
sg14
I01
sg15
g16
sa(dp665
g2
F0.0
sg3
(lp666
F-0.23697996815431518
aF0.7098163179517211
aF0.44428425801002497
aF3.130406676768439
aF-9.879025427073597e-05
aF-0.0002737842025549869
asg5
I0
sg6
F0.5365638766519824
sg7
(F-1.0284226576434534
F-1.6986482779132288
F-1.7938221136676233
F-1.229548756276266
F1.5764881372451782
F0.5426205992698669
tp667
sg9
(lp668
F-0.1
aF0.016864013671875
aF0.0
aF0.0
aF0.0
aF0.0
asg11
I01
sg12
g13
sg14
I01
sg15
g16
sa(dp669
g2
F0.0
sg3
(lp670
F-0.24747457854716765
aF0.7115829003880226
aF0.44449603974623686
aF3.1307143581854984
aF6.699428004075949e-05
aF-0.00021765003900841047
asg5
I0
sg6
F0.5365638766519824
sg7
(F-1.0174644629107874
F-1.7066429297076624
F-1.7843249479876917
F-1.2306397596942347
F1.576572060585022
F0.553522527217865
tp671
sg9
(lp672
F-0.1
aF0.0
aF0.0
aF0.0
aF0.0
aF0.0
asg11
I01
sg12
g13
sg14
I01
sg15
g16
sa(dp673
g2
F0.0
sg3
(lp674
F-0.2571409630843323
aF0.7122308035473813
aF0.4445148644300736
aF3.130848458864936
aF0.0001787289557244984
aF-0.0001492034891275198
asg5
I0
sg6
F0.5365638766519824
sg7
(F-1.006829563771383
F-1.7127917448626917
F-1.7772224585162562
F-1.231358830128805
F1.5766918659210205
F0.5640885233879089
tp675
sg9
(lp676
F-0.1
aF0.0
aF0.0
aF0.0
aF0.0
aF0.0
asg11
I01
sg12
g13
sg14
I01
sg15
g16
sa(dp677
g2
F0.0
sg3
(lp678
F-0.26755926637826866
aF0.7120952656737888
aF0.4444487514045756
aF3.130774380936738
aF0.00017470159031403738
aF-0.00016775497630782383
asg5
I0
sg6
F0.5365638766519824
sg7
(F-0.9949138800250452
F-1.7184127012835901
F-1.7708032766925257
F-1.2321503798114222
F1.5768356323242188
F0.5760221481323242
tp679
sg9
(lp680
F-0.1
aF0.0
aF0.0
aF0.0
aF0.0
aF0.0
asg11
I01
sg12
g13
sg14
I01
sg15
g16
sa(dp681
g2
F0.0
sg3
(lp682
F-0.2772681010746638
aF0.7119811956011881
aF0.4443361454137135
aF3.130669312599163
aF7.274324914629316e-05
aF-0.00023082679214044317
asg5
I0
sg6
F0.5365638766519824
sg7
(F-0.9839428106891077
F-1.7238786856280726
F-1.7645991484271448
F-1.2329652945147913
F1.5769076347351074
F0.5870562791824341
tp683
sg9
(lp684
F-0.1
aF0.0
aF0.0
aF0.0
aF0.0
aF0.0
asg11
I01
sg12
g13
sg14
I01
sg15
g16
sa(dp685
g2
F0.0
sg3
(lp686
F-0.2876124712524904
aF0.7118062667436118
aF0.44426906167754143
aF3.130549875920605
aF2.4465141378051e-05
aF-0.00017571932980251306
asg5
I0
sg6
F0.5365638766519824
sg7
(F-0.9723613897906702
F-1.7297762076007288
F-1.7577727476703089
F-1.2339490095721644
F1.5770390033721924
F0.5985820889472961
tp687
sg9
(lp688
F-0.1
aF0.0
aF0.0
aF0.0
aF0.0
aF0.0
asg11
I01
sg12
g13
sg14
I01
sg15
g16
sa(dp689
g2
F0.0
sg3
(lp690
F-0.2972513884518614
aF0.7115180498290408
aF0.4442380203434332
aF3.1305175884156604
aF2.8980058310474806e-05
aF-0.00019021806341353744
asg5
I0
sg6
F0.5365638766519824
sg7
(F-0.9616053740130823
F-1.735229794179098
F-1.7513883749591272
F-1.2348359266864222
F1.5771589279174805
F0.609352171421051
tp691
sg9
(lp692
F-0.1
aF-0.04117431640625
aF0.0
aF0.0
aF0.0
aF0.0
asg11
I01
sg12
g13
sg14
I01
sg15
g16
sa(dp693
g2
F0.0
sg3
(lp694
F-0.3076013017813728
aF0.7092159211748238
aF0.4443684124013735
aF3.130752474150381
aF0.00017211571774036614
aF-0.0001478330485925161
asg5
I0
sg6
F0.5365638766519824
sg7
(F-0.9486578146563929
F-1.7382262388812464
F-1.7476637999164026
F-1.2352069059955042
F1.5772547721862793
F0.6222572922706604
tp695
sg9
(lp696
F-0.0882354736328125
aF-0.0654876708984375
aF0.0
aF0.0
aF0.0
aF0.0
asg11
I01
sg12
g13
sg14
I01
sg15
g16
sa(dp697
g2
F0.0
sg3
(lp698
F-0.3173754590593965
aF0.7033678188948956
aF0.4444293334027818
aF3.1307365860075
aF0.00019242567833698557
aF-0.00015658638907264051
asg5
I0
sg6
F0.5365638766519824
sg7
(F-0.9336498419391077
F-1.7359612623797815
F-1.7502625624286097
F-1.2347758452044886
F1.5774105787277222
F0.6372735500335693
tp699
sg9
(lp700
F-0.0647064208984375
aF-0.08587951660156251
aF0.0
aF0.0
aF0.0
aF0.0
asg11
I01
sg12
g13
sg14
I01
sg15
g16
sa(dp701
g2
F0.0
sg3
(lp702
F-0.3248082703299042
aF0.6959148283885819
aF0.44432981810555794
aF3.130619718351877
aF0.00010529517655602684
aF-9.059452089985025e-05
asg5
I0
sg6
F0.5365638766519824
sg7
(F-0.9198148886310022
F-1.730147663746969
F-1.7573168913470667
F-1.233588997517721
F1.577530026435852
F0.6510422825813293
tp703
sg9
(lp704
F-0.023138427734375
aF-0.09999694824218751
aF0.0
aF0.0
aF0.0
aF0.0
asg11
I01
sg12
g13
sg14
I01
sg15
g16
sa(dp705
g2
F0.0
sg3
(lp706
F-0.3294621810965676
aF0.6862034787498456
aF0.44440328487192704
aF3.130719440563491
aF0.0001640193400419522
aF-0.00010672660982571259
asg5
I0
sg6
F0.5365638766519824
sg7
(F-0.9069498221026819
F-1.7192161718951624
F-1.7700603644000452
F-1.231574837361471
F1.5776258707046509
F0.663923442363739
tp707
sg9
(lp708
F0.0
aF-0.09999694824218751
aF0.0
aF0.0
aF0.0
aF0.0
asg11
I01
sg12
g13
sg14
I01
sg15
g16
sa(dp709
g2
F0.0
sg3
(lp710
F-0.33040304346002225
aF0.6765374877609631
aF0.44390239248728286
aF3.1301795350878114
aF-0.0002580737981140398
aF-0.00018971880186464325
asg5
I0
sg6
F0.5365638766519824
sg7
(F-0.897857968007223
F-1.7062352339373987
F-1.7859295050250452
F-1.2293089071856897
F1.5777097940444946
F0.6730981469154358
tp711
sg9
(lp712
F0.0
aF-0.09999694824218751
aF0.0
aF0.0
aF0.0
aF0.0
asg11
I01
sg12
g13
sg14
I01
sg15
g16
sa(dp713
g2
F0.0
sg3
(lp714
F-0.33026902740959196
aF0.6662132640494446
aF0.4442808786349964
aF3.1308370315195946
aF0.0002675418703675608
aF-0.00010469201220589394
asg5
I0
sg6
F0.5365638766519824
sg7
(F-0.8891494909869593
F-1.6909168402301233
F-1.8029597441302698
F-1.2266953627215784
F1.5777816772460938
F0.6817215085029602
tp715
sg9
(lp716
F0.0
aF-0.09999694824218751
aF0.0
aF0.0
aF0.0
aF0.0
asg11
I01
sg12
g13
sg14
I01
sg15
g16
sa(dp717
g2
F0.0
sg3
(lp718
F-0.33014631891411245
aF0.6565979421935312
aF0.4438179889551796
aF3.1304152494234905
aF-4.286920707777129e-05
aF5.095802821472532e-06
asg5
I0
sg6
F0.5365638766519824
sg7
(F-0.8808477560626429
F-1.6772168318377894
F-1.8191874662982386
F-1.22463304201235
F1.5778775215148926
F0.6899130940437317
tp719
sg9
(lp720
F0.0
aF-0.09999694824218751
aF0.0
aF0.0
aF0.0
aF0.0
asg11
I01
sg12
g13
sg14
I01
sg15
g16
sa(dp721
g2
F0.0
sg3
(lp722
F-0.3298130432477846
aF0.6463029004144013
aF0.4438331891740547
aF3.1306092859351438
aF9.533627324146504e-05
aF-0.00028166302279446475
asg5
I0
sg6
F0.5365638766519824
sg7
(F-0.8719595114337366
F-1.6620186010943812
F-1.836132828389303
F-1.2225831190692347
F1.5779374837875366
F0.6990881562232971
tp723
sg9
(lp724
F0.0
aF-0.09999694824218751
aF0.0
aF0.0
aF0.0
aF0.0
asg11
I01
sg12
g13
sg14
I01
sg15
g16
sa(dp725
g2
F0.0
sg3
(lp726
F-0.32976306710497877
aF0.6359604909819384
aF0.4436256610124475
aF3.130546044380316
aF3.35954173330483e-05
aF-0.00011272170424970492
asg5
I0
sg6
F0.5365638766519824
sg7
(F-0.862495247517721
F-1.6470964590655726
F-1.8528626600848597
F-1.2207968870746058
F1.578009009361267
F0.7083834409713745
tp727
sg9
(lp728
F0.0
aF-0.09999694824218751
aF0.0
aF0.0
aF0.0
aF0.0
asg11
I01
sg12
g13
sg14
I01
sg15
g16
sa(dp729
g2
F0.0
sg3
(lp730
F-0.3297228793147287
aF0.6263480994693956
aF0.44356411587980005
aF3.130595355692785
aF0.00013742579783989142
aF2.1118612617317782e-05
asg5
I0
sg6
F0.5365638766519824
sg7
(F-0.8534858862506312
F-1.6331208387957972
F-1.8680952231036585
F-1.219370190297262
F1.5781288146972656
F0.7172585129737854
tp731
sg9
(lp732
F0.0
aF-0.09999694824218751
aF0.0
aF0.0
aF0.0
aF0.0
asg11
I01
sg12
g13
sg14
I01
sg15
g16
sa(dp733
g2
F0.0
sg3
(lp734
F-0.3291909690888704
aF0.6160426389158934
aF0.44344685257022687
aF3.1306275460302357
aF0.00012525104688854475
aF-0.00021794163043128783
asg5
I0
sg6
F0.5365638766519824
sg7
(F-0.8441179434405726
F-1.617767635975973
F-1.8846443335162562
F-1.2180874983416956
F1.578176736831665
F0.7268657088279724
tp735
sg9
(lp736
F0.0403900146484375
aF-0.09999694824218751
aF0.0
aF0.0
aF0.0
aF0.0
asg11
I01
sg12
g13
sg14
I01
sg15
g16
sa(dp737
g2
F0.0
sg3
(lp738
F-0.32662250795335496
aF0.6065883270986812
aF0.443159258208382
aF3.130410684893679
aF-7.734469459558406e-05
aF-0.0002971523701025068
asg5
I0
sg6
F0.5365638766519824
sg7
(F-0.8376129309283655
F-1.6021383444415491
F-1.9014571348773401
F-1.217151943837301
F1.5782246589660645
F0.7334499359130859
tp739
sg9
(lp740
F0.062350463867187504
aF-0.08509521484375
aF0.0
aF0.0
aF0.0
aF0.0
asg11
I01
sg12
g13
sg14
I01
sg15
g16
sa(dp741
g2
F0.0
sg3
(lp742
F-0.32065963243977447
aF0.5973367231087462
aF0.4432748986859132
aF3.1306297604349536
aF0.00012442401252013552
aF-0.00021630238078221157
asg5
I0
sg6
F0.5365638766519824
sg7
(F-0.8349412123309534
F-1.5837286154376429
F-1.9201849142657679
F-1.2165167967425745
F1.5782487392425537
F0.7360407710075378
tp743
sg9
(lp744
F0.06627197265625
aF-0.0827423095703125
aF0.0
aF0.0
aF0.0
aF0.0
asg11
I01
sg12
g13
sg14
I01
sg15
g16
sa(dp745
g2
F0.0
sg3
(lp746
F-0.31425430600632825
aF0.5892441902708201
aF0.44282496274804717
aF3.13021629883362
aF-0.00024531389026451867
aF-0.00013352509248898094
asg5
I0
sg6
F0.5365638766519824
sg7
(F-0.8338869253741663
F-1.5669730345355433
F-1.9377511183368128
F-1.2162535826312464
F1.5782606601715088
F0.7370122671127319
tp747
sg9
(lp748
F0.0694091796875
aF-0.0811737060546875
aF0.0
aF0.0
aF0.0
aF0.0
asg11
I01
sg12
g13
sg14
I01
sg15
g16
sa(dp749
g2
F0.0
sg3
(lp750
F-0.3071688429040366
aF0.5808992569012569
aF0.4430084689431716
aF3.130603695300865
aF0.00013320442424156974
aF-7.428876372493134e-05
asg5
I0
sg6
F0.5365638766519824
sg7
(F-0.8333237806903284
F-1.5486953894244593
F-1.9555318991290491
F-1.2162054220782679
F1.5782846212387085
F0.7375159859657288
tp751
sg9
(lp752
F0.07254638671875001
aF-0.07803649902343751
aF0.0
aF0.0
aF0.0
aF0.0
asg11
I01
sg12
g13
sg14
I01
sg15
g16
sa(dp753
g2
F0.0
sg3
(lp754
F-0.29964901516520953
aF0.5725864011363956
aF0.4426708403147785
aF3.1305377130361802
aF8.859983276316247e-05
aF-0.0001220124153766579
asg5
I0
sg6
F0.5365638766519824
sg7
(F-0.833287541066305
F-1.530358616505758
F-1.9738271872149866
F-1.2163251082049769
F1.5782966613769531
F0.7375998497009277
tp755
sg9
(lp756
F0.07882080078125
aF-0.0733306884765625
aF0.0
aF0.0
aF0.0
aF0.0
asg11
I01
sg12
g13
sg14
I01
sg15
g16
sa(dp757
g2
F0.0
sg3
(lp758
F-0.29253261057712904
aF0.565464407239191
aF0.442629275054926
aF3.1307811589280843
aF0.000332494511881747
aF-0.0002772441163122384
asg5
I0
sg6
F0.5365638766519824
sg7
(F-0.8340662161456507
F-1.5138071219073694
F-1.9896076361285608
F-1.2167566458331507
F1.5783085823059082
F0.7369763255119324
tp759
sg9
(lp760
F0.086663818359375
aF-0.06470336914062501
aF0.0
aF0.0
aF0.0
aF0.0
asg11
I01
sg12
g13
sg14
I01
sg15
g16
sa(dp761
g2
F0.0
sg3
(lp762
F-0.28385859378459866
aF0.5581493804666823
aF0.4423943908988421
aF3.130654173048088
aF0.00029136184863293445
aF-0.0003948307858073161
asg5
I0
sg6
F0.5365638766519824
sg7
(F-0.8365700880633753
F-1.4957698027240198
F-2.006693665181295
F-1.2178476492511194
F1.5783445835113525
F0.7345895767211914
tp763
sg9
(lp764
F0.0984283447265625
aF-0.0450958251953125
aF0.0
aF0.0
aF0.0
aF0.0
asg11
I01
sg12
g13
sg14
I01
sg15
g16
sa(dp765
g2
F0.0
sg3
(lp766
F-0.275178347071063
aF0.5528316550440795
aF0.4423226132242173
aF3.1307278197886754
aF0.00040785240566469633
aF-0.00048592503146761834
asg5
I0
sg6
F0.5365638766519824
sg7
(F-0.8414104620562952
F-1.4806330839740198
F-2.0205581823932093
F-1.2190230528460901
F1.5783445835113525
F0.7298400402069092
tp767
sg9
(lp768
F0.09999694824218751
aF-0.010586547851562501
aF0.0
aF0.0
aF0.0
aF0.0
asg11
I01
sg12
g13
sg14
I01
sg15
g16
sa(dp769
g2
F0.0
sg3
(lp770
F-0.2648710768730361
aF0.5504575295389638
aF0.4420704619159608
aF3.1304486362263226
aF0.00020957353790077956
aF-0.0003429141308019805
asg5
I0
sg6
F0.5365638766519824
sg7
(F-0.8517854849444788
F-1.469055477772848
F-2.0312493483172815
F-1.2203291098224085
F1.5782966613769531
F0.7193216681480408
tp771
sg9
(lp772
F0.09999694824218751
aF0.0
aF0.0
aF0.0
aF0.0
aF0.0
asg11
I01
sg12
g13
sg14
I01
sg15
g16
sa(dp773
g2
F0.0
sg3
(lp774
F-0.2544869303684369
aF0.5504455039872095
aF0.4421649566294706
aF3.1305414193962378
aF0.0003559036922349227
aF-0.0003273661405901732
asg5
I0
sg6
F0.5365638766519824
sg7
(F-0.8651664892779749
F-1.4610980192767542
F-2.0380857626544397
F-1.221384350453512
F1.578236699104309
F0.7059248089790344
tp775
sg9
(lp776
F0.09999694824218751
aF0.0
aF0.0
aF0.0
aF0.0
aF0.0
asg11
I01
sg12
g13
sg14
I01
sg15
g16
sa(dp777
g2
F0.0
sg3
(lp778
F-0.2449189872213191
aF0.5503257384662171
aF0.4420745699494497
aF3.130511259590329
aF0.00024510268504950223
aF-0.000371807265450261
asg5
I0
sg6
F0.5365638766519824
sg7
(F-0.8775890509234827
F-1.453918759022848
F-2.044467274342672
F-1.2223675886737269
F1.5780689716339111
F0.6935473084449768
tp779
sg9
(lp780
F0.09999694824218751
aF0.0
aF0.0
aF0.0
aF0.0
aF0.0
asg11
I01
sg12
g13
sg14
I01
sg15
g16
sa(dp781
g2
F0.0
sg3
(lp782
F-0.23451860780144637
aF0.5501672709585793
aF0.4420974443604509
aF3.130553127190024
aF0.00030369031062945175
aF-0.0004635019910423768
asg5
I0
sg6
F0.5365638766519824
sg7
(F-0.891329590474264
F-1.4462011496173304
F-2.051075283681051
F-1.223506275807516
F1.5779733657836914
F0.6798984408378601
tp783
sg9
(lp784
F0.09999694824218751
aF0.0
aF0.0
aF0.0
aF0.0
aF0.0
asg11
I01
sg12
g13
sg14
I01
sg15
g16
sa(dp785
g2
F0.0
sg3
(lp786
F-0.2241053221082227
aF0.5498964547052467
aF0.4418904808766049
aF3.1303694066545584
aF0.00012467609070213048
aF-0.0005543596285776166
asg5
I0
sg6
F0.5365638766519824
sg7
(F-0.9052251021014612
F-1.4386990706073206
F-2.0577920118915003
F-1.224644962941305
F1.5778295993804932
F0.6660941243171692
tp787
sg9
(lp788
F0.09999694824218751
aF0.0
aF0.0
aF0.0
aF0.0
aF0.0
asg11
I01
sg12
g13
sg14
I01
sg15
g16
sa(dp789
g2
F0.0
sg3
(lp790
F-0.21468699737876443
aF0.5499338274702129
aF0.44195286677053314
aF3.130486891375053
aF0.0002118539496049192
aF-0.0002736895965505231
asg5
I0
sg6
F0.5365638766519824
sg7
(F-0.9183295408831995
F-1.4324067274676722
F-2.06301194826235
F-1.2256644407855433
F1.5777097940444946
F0.6527092456817627
tp791
sg9
(lp792
F0.09999694824218751
aF0.035687255859375
aF0.0
aF0.0
aF0.0
aF0.0
asg11
I01
sg12
g13
sg14
I01
sg15
g16
sa(dp793
g2
F0.0
sg3
(lp794
F-0.20443763075002228
aF0.5518172142719254
aF0.44205053006856165
aF3.1307263161021885
aF0.00040383972579734976
aF-0.00026447580416306054
asg5
I0
sg6
F0.5365638766519824
sg7
(F-0.9347756544696253
F-1.4289076964007776
F-2.0658133665667933
F-1.2261679808246058
F1.5775779485702515
F0.6362541317939758
tp795
sg9
(lp796
F0.052154541015625
aF0.09372558593750001
aF0.0
aF0.0
aF0.0
aF0.0
asg11
I01
sg12
g13
sg14
I01
sg15
g16
sa(dp797
g2
F0.0
sg3
(lp798
F-0.1968159380355111
aF0.5574367473747404
aF0.4418863810208534
aF3.130482812454121
aF0.00022867604523057672
aF-0.0003255818939038049
asg5
I0
sg6
F0.5365638766519824
sg7
(F-0.9514601866351526
F-1.4339173475848597
F-2.061814610158102
F-1.2255685965167444
F1.5774345397949219
F0.6196308732032776
tp799
sg9
(lp800
F0.02548828125
aF0.1
aF0.0
aF0.0
aF0.0
aF0.0
asg11
I01
sg12
g13
sg14
I01
sg15
g16
sa(dp801
g2
F0.0
sg3
(lp802
F-0.19269244618269796
aF0.5674318621357753
aF0.44170291461667666
aF3.130195805098681
aF-1.4871677960213658e-05
aF-0.0003519131472477745
asg5
I0
sg6
F0.5365638766519824
sg7
(F-0.9673545996295374
F-1.4486458937274378
F-2.049495045338766
F-1.2236383597003382
F1.5772547721862793
F0.6037634015083313
tp803
sg9
(lp804
F0.019998168945312502
aF0.1
aF0.0
aF0.0
aF0.0
aF0.0
asg11
I01
sg12
g13
sg14
I01
sg15
g16
sa(dp805
g2
F0.0
sg3
(lp806
F-0.19026748197388937
aF0.5778680222994067
aF0.4416776012025625
aF3.130425455739964
aF7.74216189011037e-05
aF-0.00022479737249673964
asg5
I0
sg6
F0.5365638766519824
sg7
(F-0.9808648268329065
F-1.4649327437030237
F-2.035403553639547
F-1.221288029347555
F1.5770750045776367
F0.5901268720626831
tp807
sg9
(lp808
F0.0184295654296875
aF0.1
aF0.0
aF0.0
aF0.0
aF0.0
asg11
I01
sg12
g13
sg14
I01
sg15
g16
sa(dp809
g2
F0.0
sg3
(lp810
F-0.18832770546782757
aF0.5876161755770709
aF0.4415193530622329
aF3.1303776759858937
aF0.00010583766970931605
aF-0.00020788057757636724
asg5
I0
sg6
F0.5365638766519824
sg7
(F-0.9926975409137171
F-1.4803813139544886
F-2.021958653126852
F-1.2193825880633753
F1.5770150423049927
F0.578277051448822
tp811
sg9
(lp812
F0.012939453125
aF0.1
aF0.0
aF0.0
aF0.0
aF0.0
asg11
I01
sg12
g13
sg14
I01
sg15
g16
sa(dp813
g2
F0.0
sg3
(lp814
F-0.186646770899627
aF0.5979893676543967
aF0.44154642084930407
aF3.1307250303569014
aF0.0003156251822380877
aF-0.00016701626151881266
asg5
I0
sg6
F0.5365638766519824
sg7
(F-1.0043986479388636
F-1.4967883268939417
F-2.0071128050433558
F-1.2174881140338343
F1.5768955945968628
F0.5665355324745178
tp815
sg9
(lp816
F0.0
aF0.1
aF0.0
aF0.0
aF0.0
aF0.0
asg11
I01
sg12
g13
sg14
I01
sg15
g16
sa(dp817
g2
F0.0
sg3
(lp818
F-0.18573934242517995
aF0.6077635024744285
aF0.44130803277030767
aF3.130615697822361
aF0.00023681894912324318
aF-0.0003454426617884798
asg5
I0
sg6
F0.5365638766519824
sg7
(F-1.01418382326235
F-1.5127280394183558
F-1.9927805105792444
F-1.2160733381854456
F1.576799750328064
F0.5569290518760681
tp819
sg9
(lp820
F0.0
aF0.1
aF0.0
aF0.0
aF0.0
aF0.0
asg11
I01
sg12
g13
sg14
I01
sg15
g16
sa(dp821
g2
F0.0
sg3
(lp822
F-0.18539263402546657
aF0.618053861919666
aF0.4411427319517614
aF3.1305684099532036
aF0.0002518468125822081
aF-0.00027106628451527395
asg5
I0
sg6
F0.5365638766519824
sg7
(F-1.0233686606036585
F-1.5296514670001429
F-1.9771078268634241
F-1.2149103323565882
F1.5767518281936646
F0.5476697087287903
tp823
sg9
(lp824
F0.0
aF0.1
aF0.0
aF0.0
aF0.0
aF0.0
asg11
I01
sg12
g13
sg14
I01
sg15
g16
sa(dp825
g2
F0.0
sg3
(lp826
F-0.18531085994861876
aF0.6286015132432483
aF0.44093124624362207
aF3.130407049830196
aF0.0001247260344096983
aF-0.00025816493763364777
asg5
I0
sg6
F0.5365638766519824
sg7
(F-1.0321233908282679
F-1.547053639088766
F-1.9606927076922815
F-1.2141788641559046
F1.576643943786621
F0.5389025211334229
tp827
sg9
(lp828
F0.0
aF0.1
aF0.0
aF0.0
aF0.0
aF0.0
asg11
I01
sg12
g13
sg14
I01
sg15
g16
sa(dp829
g2
F0.0
sg3
(lp830
F-0.18518168683637512
aF0.6381376315990624
aF0.4408461739051738
aF3.1304716457667663
aF0.00012464067027533724
aF-0.0001620114323582594
asg5
I0
sg6
F0.5365638766519824
sg7
(F-1.0398834387408655
F-1.5625742117511194
F-1.9456175009356897
F-1.2137234846698206
F1.5765360593795776
F0.5310468673706055
tp831
sg9
(lp832
F0.0
aF0.1
aF0.0
aF0.0
aF0.0
aF0.0
asg11
I01
sg12
g13
sg14
I01
sg15
g16
sa(dp833
g2
F0.0
sg3
(lp834
F-0.18512169399482295
aF0.6486425576712496
aF0.44062810781143846
aF3.130365222325979
aF5.793818890388232e-05
aF-0.00010165227382370581
asg5
I0
sg6
F0.5365638766519824
sg7
(F-1.0480864683734339
F-1.5797017256366175
F-1.9288542906390589
F-1.213531796132223
F1.5764524936676025
F0.5227837562561035
tp835
sg9
(lp836
F0.0
aF0.1
aF0.0
aF0.0
aF0.0
aF0.0
asg11
I01
sg12
g13
sg14
I01
sg15
g16
sa(dp837
g2
F0.0
sg3
(lp838
F-0.1849796829080438
aF0.6582055815360359
aF0.44053789623215656
aF3.1304609274480764
aF0.00013881711640000976
aF-0.00016189757594110716
asg5
I0
sg6
F0.5365638766519824
sg7
(F-1.0554631392108362
F-1.5950787703143519
F-1.9133713881122034
F-1.213555637990133
F1.5764045715332031
F0.5154673457145691
tp839
sg9
(lp840
F-0.023138427734375
aF0.1
aF0.0
aF0.0
aF0.0
aF0.0
asg11
I01
sg12
g13
sg14
I01
sg15
g16
sa(dp841
g2
F0.0
sg3
(lp842
F-0.18621034301673495
aF0.6687323080481583
aF0.44049056486057975
aF3.130739288853121
aF0.0002650295366952125
aF-0.0002123144239856724
asg5
I0
sg6
F0.5365638766519824
sg7
(F-1.0615585486041468
F-1.6124818960772913
F-1.8954575697528284
F-1.2137954870807093
F1.576320767402649
F0.5094228386878967
tp843
sg9
(lp844
F-0.0474517822265625
aF0.1
aF0.0
aF0.0
aF0.0
aF0.0
asg11
I01
sg12
g13
sg14
I01
sg15
g16
sa(dp845
g2
F0.0
sg3
(lp846
F-0.18997397588586395
aF0.6790725256882831
aF0.440177018063085
aF3.1305965101079827
aF0.00014357455173463844
aF-0.00029239101958746373
asg5
I0
sg6
F0.5365638766519824
sg7
(F-1.0641096274005335
F-1.630796257649557
F-1.8766215483294886
F-1.2145145575152796
F1.5762608051300049
F0.5069522261619568
tp847
sg9
(lp848
F-0.0694122314453125
aF0.08588256835937501
aF0.0
aF0.0
aF0.0
aF0.0
asg11
I01
sg12
g13
sg14
I01
sg15
g16
sa(dp849
g2
F0.0
sg3
(lp850
F-0.19605428935446007
aF0.6879523219069742
aF0.4401392124366374
aF3.1307824999257847
aF0.00020394928440424422
aF-0.0002941323198835889
asg5
I0
sg6
F0.5365638766519824
sg7
(F-1.0626605192767542
F-1.6475279966937464
F-1.858694855366842
F-1.2155097166644495
F1.5762368440628052
F0.5084034204483032
tp851
sg9
(lp852
F-0.08196105957031251
aF0.0694122314453125
aF0.0
aF0.0
aF0.0
aF0.0
asg11
I01
sg12
g13
sg14
I01
sg15
g16
sa(dp853
g2
F0.0
sg3
(lp854
F-0.20401345632385015
aF0.6959776049974702
aF0.4398399920790611
aF3.1306371162468474
aF9.268564133600204e-05
aF-1.2634026328208986e-05
asg5
I0
sg6
F0.5365638766519824
sg7
(F-1.0583494345294397
F-1.6639006773578089
F-1.8412583510028284
F-1.2167328039752405
F1.5762487649917603
F0.5124331116676331
tp855
sg9
(lp856
F-0.08980407714843751
aF0.0584320068359375
aF0.0
aF0.0
aF0.0
aF0.0
asg11
I01
sg12
g13
sg14
I01
sg15
g16
sa(dp857
g2
F0.0
sg3
(lp858
F-0.2124085934015004
aF0.7020182619146964
aF0.4398191126208075
aF3.130727948104588
aF0.00010608599397473418
aF1.4091769532313536e-05
asg5
I0
sg6
F0.5365638766519824
sg7
(F-1.0522659460650843
F-1.6771929899798792
F-1.8265164534198206
F-1.2180636564837855
F1.5762728452682495
F0.5184900164604187
tp859
sg9
(lp860
F-0.09921569824218751
aF0.041177368164062506
aF0.0
aF0.0
aF0.0
aF0.0
asg11
I01
sg12
g13
sg14
I01
sg15
g16
sa(dp861
g2
F0.0
sg3
(lp862
F-0.22238146656704283
aF0.7067147560330729
aF0.4396573609916537
aF3.130501499033396
aF1.6712598807541182e-05
aF-0.00011938189463110596
asg5
I0
sg6
F0.5365638766519824
sg7
(F-1.0435240904437464
F-1.6893227736102503
F-1.8130915800677698
F-1.2195504347430628
F1.576392650604248
F0.5273647308349609
tp863
sg9
(lp864
F-0.1
aF0.0129425048828125
aF0.0
aF0.0
aF0.0
aF0.0
asg11
I01
sg12
g13
sg14
I01
sg15
g16
sa(dp865
g2
F0.0
sg3
(lp866
F-0.23277208567568552
aF0.7091157185905508
aF0.43945918220628094
aF3.1303744100667306
aF-6.767565400496167e-05
aF-0.00024283015358441326
asg5
I0
sg6
F0.5365638766519824
sg7
(F-1.032877270375387
F-1.6982644240008753
F-1.803246800099508
F-1.2205451170550745
F1.5764881372451782
F0.538134753704071
tp867
sg9
(lp868
F-0.1
aF0.0
aF0.0
aF0.0
aF0.0
aF0.0
asg11
I01
sg12
g13
sg14
I01
sg15
g16
sa(dp869
g2
F0.0
sg3
(lp870
F-0.2424240978948071
aF0.709175871856334
aF0.439656992369246
aF3.1306987646335407
aF0.0001875450993383045
aF-0.00014125742229101763
asg5
I0
sg6
F0.5365638766519824
sg7
(F-1.0216205755816858
F-1.7031429449664515
F-1.7973788420306605
F-1.221060578023092
F1.576643943786621
F0.5492891073226929
tp871
sg9
(lp872
F-0.1
aF0.0
aF0.0
aF0.0
aF0.0
aF0.0
asg11
I01
sg12
g13
sg14
I01
sg15
g16
sa(dp873
g2
F0.0
sg3
(lp874
F-0.25285299191473526
aF0.7089177031031337
aF0.43960004328883734
aF3.130598112262992
aF9.115865611768285e-05
aF-9.8457949714809e-05
asg5
I0
sg6
F0.5365638766519824
sg7
(F-1.0093568007098597
F-1.708320442830221
F-1.7914984861956995
F-1.221827809010641
F1.5767278671264648
F0.5615100264549255
tp875
sg9
(lp876
F-0.1
aF-0.0192138671875
aF0.0
aF0.0
aF0.0
aF0.0
asg11
I01
sg12
g13
sg14
I01
sg15
g16
sa(dp877
g2
F0.0
sg3
(lp878
F-0.26318542875434475
aF0.7076481070960605
aF0.4396013320732025
aF3.130700020285091
aF0.00011444621908060333
aF-0.0003210025849639681
asg5
I0
sg6
F0.5365638766519824
sg7
(F-0.9966023604022425
F-1.7120721975909632
F-1.7871869246112269
F-1.2222116629229944
F1.576811671257019
F0.574487030506134
tp879
sg9
(lp880
F-0.1
aF-0.038821411132812504
aF0.0
aF0.0
aF0.0
aF0.0
asg11
I01
sg12
g13
sg14
I01
sg15
g16
sa(dp881
g2
F0.0
sg3
(lp882
F-0.2728191444097317
aF0.7046188964819164
aF0.4396266645138498
aF3.1307082980302234
aF0.00010651390650186722
aF-0.00032775278596716993
asg5
I0
sg6
F0.5365638766519824
sg7
(F-0.9834397474872034
F-1.7129953543292444
F-1.7860854307757776
F-1.2223075071917933
F1.5769195556640625
F0.5876561999320984
tp883
sg9
(lp884
F-0.1
aF-0.055291748046875006
aF0.0
aF0.0
aF0.0
aF0.0
asg11
I01
sg12
g13
sg14
I01
sg15
g16
sa(dp885
g2
F0.0
sg3
(lp886
F-0.2830562033462718
aF0.6995139891069693
aF0.43963985749035217
aF3.130577228549989
aF0.00011276263641899479
aF-0.00014628676418633764
asg5
I0
sg6
F0.5365638766519824
sg7
(F-0.9680855909930628
F-1.7114251295672815
F-1.7878816763507288
F-1.2220919767962855
F1.5771348476409912
F0.6028278470039368
tp887
sg9
(lp888
F-0.08588256835937501
aF-0.06862487792968751
aF0.0
aF0.0
aF0.0
aF0.0
asg11
I01
sg12
g13
sg14
I01
sg15
g16
sa(dp889
g2
F0.0
sg3
(lp890
F-0.2916136784340464
aF0.6933278889599129
aF0.4396114475316245
aF3.1304775284775146
aF6.0507009648039985e-05
aF-0.0001771715117281859
asg5
I0
sg6
F0.5365638766519824
sg7
(F-0.9537480513202112
F-1.7075055281268519
F-1.7924688498126429
F-1.2214439550982874
F1.577278733253479
F0.6171958446502686
tp891
sg9
(lp892
F-0.07568664550781251
aF-0.077252197265625
aF0.0
aF0.0
aF0.0
aF0.0
asg11
I01
sg12
g13
sg14
I01
sg15
g16
sa(dp893
g2
F0.0
sg3
(lp894
F-0.29974251346135244
aF0.6855529436584665
aF0.43962312827670674
aF3.1305211199634413
aF8.726294515830994e-05
aF-0.00012627601953571667
asg5
I0
sg6
F0.5365638766519824
sg7
(F-0.9385488669024866
F-1.7011526266681116
F-1.799798313771383
F-1.2203171888934534
F1.5774105787277222
F0.6323438882827759
tp895
sg9
(lp896
F-0.0631378173828125
aF-0.08587951660156251
aF0.0
aF0.0
aF0.0
aF0.0
asg11
I01
sg12
g13
sg14
I01
sg15
g16
sa(dp897
g2
F0.0
sg3
(lp898
F-0.3066212870837549
aF0.6768070206027476
aF0.4393408773720343
aF3.1302284256109876
aF-0.00013322131974434682
aF-0.00019339787053438348
asg5
I0
sg6
F0.5365638766519824
sg7
(F-0.9238036314593714
F-1.6929786841021937
F-1.8096182982074183
F-1.2189386526690882
F1.5775419473648071
F0.6471560001373291
tp899
sg9
(lp900
F-0.0505889892578125
aF-0.09136962890625
aF0.0
aF0.0
aF0.0
aF0.0
asg11
I01
sg12
g13
sg14
I01
sg15
g16
sa(dp901
g2
F0.0
sg3
(lp902
F-0.311927208666192
aF0.6682642952423734
aF0.43948577743651646
aF3.1305612025093095
aF5.2425166364925776e-05
aF-6.58223062437835e-05
asg5
I0
sg6
F0.5365638766519824
sg7
(F-0.9107831160174769
F-1.6839049498187464
F-1.8197386900531214
F-1.2174275557147425
F1.5776019096374512
F0.6600492000579834
tp903
sg9
(lp904
F-0.0380401611328125
aF-0.0984283447265625
aF0.0
aF0.0
aF0.0
aF0.0
asg11
I01
sg12
g13
sg14
I01
sg15
g16
sa(dp905
g2
F0.0
sg3
(lp906
F-0.31598614687928633
aF0.6582940354590597
aF0.4394734828252398
aF3.1305933484943367
aF0.00011542178602280766
aF-0.0002741528977397118
asg5
I0
sg6
F0.5365638766519824
sg7
(F-0.8977263609515589
F-1.6721227804767054
F-1.8330195585833948
F-1.2157734076129358
F1.5777456760406494
F0.6733138561248779
tp907
sg9
(lp908
F-0.013726806640625
aF-0.09999694824218751
aF0.0
aF0.0
aF0.0
aF0.0
asg11
I01
sg12
g13
sg14
I01
sg15
g16
sa(dp909
g2
F0.0
sg3
(lp910
F-0.3182041543532654
aF0.648579391629683
aF0.4392796879641949
aF3.1304284821427193
aF-3.112711548511351e-05
aF-0.00021537712219393126
asg5
I0
sg6
F0.5365638766519824
sg7
(F-0.8866813818560999
F-1.6596220175372522
F-1.8472102324115198
F-1.214227024708883
F1.5778295993804932
F0.6843000054359436
tp911
sg9
(lp912
F0.0
aF-0.09999694824218751
aF0.0
aF0.0
aF0.0
aF0.0
asg11
I01
sg12
g13
sg14
I01
sg15
g16
sa(dp913
g2
F0.0
sg3
(lp914
F-0.31877110937976055
aF0.6383582852062134
aF0.43935783119705335
aF3.13071285998673
aF0.0002346747434579018
aF-0.00021571688303790166
asg5
I0
sg6
F0.5365638766519824
sg7
(F-0.8767746130572718
F-1.644998852406637
F-1.8631494680987757
F-1.212452236806051
F1.5779374837875366
F0.6942068338394165
tp915
sg9
(lp916
F0.0
aF-0.09999694824218751
aF0.0
aF0.0
aF0.0
aF0.0
asg11
I01
sg12
g13
sg14
I01
sg15
g16
sa(dp917
g2
F0.0
sg3
(lp918
F-0.31857299654143423
aF0.6278792262421553
aF0.43913442410391723
aF3.1305637787407266
aF6.951769661090917e-05
aF-0.00013140711725183812
asg5
I0
sg6
F0.5365638766519824
sg7
(F-0.8672273794757288
F-1.6296451727496546
F-1.8800581137286585
F-1.2110498587237757
F1.577985405921936
F0.7036699056625366
tp919
sg9
(lp920
F0.0
aF-0.09999694824218751
aF0.0
aF0.0
aF0.0
aF0.0
asg11
I01
sg12
g13
sg14
I01
sg15
g16
sa(dp921
g2
F0.0
sg3
(lp922
F-0.3184661447343359
aF0.6184158143413718
aF0.43923306353127667
aF3.1308278710635165
aF0.00030864254346537386
aF-0.0002616782133050723
asg5
I0
sg6
F0.5365638766519824
sg7
(F-0.858314339314596
F-1.6155737082110804
F-1.8948710600482386
F-1.2098868528949183
F1.5780689716339111
F0.7127131223678589
tp923
sg9
(lp924
F0.0
aF-0.09999694824218751
aF0.0
aF0.0
aF0.0
aF0.0
asg11
I01
sg12
g13
sg14
I01
sg15
g16
sa(dp925
g2
F0.0
sg3
(lp926
F-0.3179718922336457
aF0.6079756699817181
aF0.438746400136426
aF3.130331275360338
aF9.779149063942045e-06
aF-0.00018951495162252622
asg5
I0
sg6
F0.5365638766519824
sg7
(F-0.8486703077899378
F-1.6001728216754358
F-1.9117310682879847
F-1.2089279333697718
F1.5782487392425537
F0.7222840189933777
tp927
sg9
(lp928
F0.0294097900390625
aF-0.09999694824218751
aF0.0
aF0.0
aF0.0
aF0.0
asg11
I01
sg12
g13
sg14
I01
sg15
g16
sa(dp929
g2
F0.0
sg3
(lp930
F-0.3158328935915579
aF0.5977146217059711
aF0.43880575596242
aF3.130532844904042
aF0.00011699382678818663
aF-0.00021050702233209545
asg5
I0
sg6
F0.5365638766519824
sg7
(F-0.8407877127276819
F-1.583285156880514
F-1.9289734999286097
F-1.208292309437887
F1.5782606601715088
F0.7301880121231079
tp931
sg9
(lp932
F0.055291748046875006
aF-0.0890167236328125
aF0.0
aF0.0
aF0.0
aF0.0
asg11
I01
sg12
g13
sg14
I01
sg15
g16
sa(dp933
g2
F0.0
sg3
(lp934
F-0.3115038540351668
aF0.588499485427404
aF0.43857279624847095
aF3.1304215438723624
aF-2.5109943394570015e-06
aF-0.00035901667562130514
asg5
I0
sg6
F0.5365638766519824
sg7
(F-0.8362711111651819
F-1.5663378874408167
F-1.9464080969439905
F-1.2079327742206019
F1.5782846212387085
F0.734853208065033
tp935
sg9
(lp936
F0.07803649902343751
aF-0.074114990234375
aF0.0
aF0.0
aF0.0
aF0.0
asg11
I01
sg12
g13
sg14
I01
sg15
g16
sa(dp937
g2
F0.0
sg3
(lp938
F-0.30460786136442924
aF0.5799557886831582
aF0.4382897468812217
aF3.1303197404061716
aF-0.00010392042139078279
aF-0.00022770971586453923
asg5
I0
sg6
F0.5365638766519824
sg7
(F-0.8353121916400355
F-1.5482638517962855
F-1.964703385029928
F-1.207848850880758
F1.5782846212387085
F0.735680878162384
tp939
sg9
(lp940
F0.09136962890625
aF-0.0576446533203125
aF0.0
aF0.0
aF0.0
aF0.0
asg11
I01
sg12
g13
sg14
I01
sg15
g16
sa(dp941
g2
F0.0
sg3
(lp942
F-0.29663700308521646
aF0.5735266011019406
aF0.43842011403915987
aF3.130806127329096
aF0.0004266250209941144
aF-0.00033348918966958003
asg5
I0
sg6
F0.5365638766519824
sg7
(F-0.8378761450396937
F-1.5320842901812952
F-1.9802206198321741
F-1.2078130880938929
F1.578332543373108
F0.733222246170044
tp943
sg9
(lp944
F0.09607543945312501
aF-0.050585937500000004
aF0.0
aF0.0
aF0.0
aF0.0
asg11
I01
sg12
g13
sg14
I01
sg15
g16
sa(dp945
g2
F0.0
sg3
(lp946
F-0.2869145319079336
aF0.567779657297371
aF0.4378645659229756
aF3.130388777485273
aF7.92006592445519e-05
aF-0.00038773346133569867
asg5
I0
sg6
F0.5365638766519824
sg7
(F-0.8433755079852503
F-1.5160487333880823
F-1.996312443410055
F-1.2083404699908655
F1.5783085823059082
F0.7277768850326538
tp947
sg9
(lp948
F0.09999694824218751
aF-0.038821411132812504
aF0.0
aF0.0
aF0.0
aF0.0
asg11
I01
sg12
g13
sg14
I01
sg15
g16
sa(dp949
g2
F0.0
sg3
(lp950
F-0.2767290780639444
aF0.5631409906368057
aF0.4380079369950354
aF3.130635192697508
aF0.00039644263656997305
aF-0.00019923718202874462
asg5
I0
sg6
F0.5365638766519824
sg7
(F-0.8508504072772425
F-1.5008271376239222
F-2.010249916707174
F-1.209287468587057
F1.5783206224441528
F0.7201129794120789
tp951
sg9
(lp952
F0.09999694824218751
aF-0.030194091796875003
aF0.0
aF0.0
aF0.0
aF0.0
asg11
I01
sg12
g13
sg14
I01
sg15
g16
sa(dp953
g2
F0.0
sg3
(lp954
F-0.2671440167511939
aF0.5597911127395687
aF0.43782261046968196
aF3.1305486119440804
aF0.00031431232768493954
aF-0.0002741123896371718
asg5
I0
sg6
F0.5365638766519824
sg7
(F-0.8592007795916956
F-1.488375488911764
F-2.0219228903399866
F-1.2102473417865198
F1.5782487392425537
F0.7118375301361084
tp955
sg9
(lp956
F0.09999694824218751
aF-0.0231353759765625
aF0.0
aF0.0
aF0.0
aF0.0
asg11
I01
sg12
g13
sg14
I01
sg15
g16
sa(dp957
g2
F0.0
sg3
(lp958
F-0.25676238081397823
aF0.5569531877513941
aF0.43755250822892444
aF3.130235007824172
aF0.00018987954004207592
aF-0.00027538811890559197
asg5
I0
sg6
F0.5365638766519824
sg7
(F-0.8693836371051233
F-1.4762948195086878
F-2.033201042805807
F-1.211445156727926
F1.5782727003097534
F0.7016550302505493
tp959
sg9
(lp960
F0.09999694824218751
aF0.0
aF0.0
aF0.0
aF0.0
aF0.0
asg11
I01
sg12
g13
sg14
I01
sg15
g16
sa(dp961
g2
F0.0
sg3
(lp962
F-0.24728141724717873
aF0.5561195809029402
aF0.43777793821953054
aF3.1306637327431397
aF0.00036002987256944204
aF-0.000296441081700779
asg5
I0
sg6
F0.5365638766519824
sg7
(F-0.8808000723468226
F-1.4678333441363733
F-2.040360752736227
F-1.2123926321612757
F1.5780329704284668
F0.6902610659599304
tp963
sg9
(lp964
F0.09999694824218751
aF0.0301971435546875
aF0.0
aF0.0
aF0.0
aF0.0
asg11
I01
sg12
g13
sg14
I01
sg15
g16
sa(dp965
g2
F0.0
sg3
(lp966
F-0.23692857804712128
aF0.5573481933842384
aF0.4377144096552454
aF3.1307022300891116
aF0.0003964521501575297
aF-0.00033770363804278084
asg5
I0
sg6
F0.5365638766519824
sg7
(F-0.8958457151996058
F-1.4625361601458948
F-2.0451253096209925
F-1.212980095540182
F1.577913522720337
F0.6752567887306213
tp967
sg9
(lp968
F0.08195800781250001
aF0.0647064208984375
aF0.0
aF0.0
aF0.0
aF0.0
asg11
I01
sg12
g13
sg14
I01
sg15
g16
sa(dp969
g2
F0.0
sg3
(lp970
F-0.22757651540476936
aF0.5622955422897438
aF0.43749078013748477
aF3.13037133471447
aF0.00014789833275245288
aF-0.0001960440357383657
asg5
I0
sg6
F0.5365638766519824
sg7
(F-0.9136579672442835
F-1.4644773642169397
F-2.0437243620501917
F-1.212980095540182
F1.5777696371078491
F0.6573029160499573
tp971
sg9
(lp972
F0.07882080078125
aF0.0686279296875
aF0.0
aF0.0
aF0.0
aF0.0
asg11
I01
sg12
g13
sg14
I01
sg15
g16
sa(dp973
g2
F0.0
sg3
(lp974
F-0.21962826022142135
aF0.5685760782632566
aF0.4375388855005216
aF3.130260471594994
aF0.00010605986543310659
aF-0.000245855737530879
asg5
I0
sg6
F0.5365638766519824
sg7
(F-0.9309309164630335
F-1.4696429411517542
F-2.0390313307391565
F-1.2127402464496058
F1.5776498317718506
F0.6400797367095947
tp975
sg9
(lp976
F0.07882080078125
aF0.0686279296875
aF0.0
aF0.0
aF0.0
aF0.0
asg11
I01
sg12
g13
sg14
I01
sg15
g16
sa(dp977
g2
F0.0
sg3
(lp978
F-0.21138588068207115
aF0.5756184583793263
aF0.43748369952341903
aF3.130098627678076
aF1.9369849600156233e-05
aF-0.0001735067986496336
asg5
I0
sg6
F0.5365638766519824
sg7
(F-0.949256722127096
F-1.4762228170977991
F-2.0332253615008753
F-1.2122729460345667
F1.577506422996521
F0.6216816902160645
tp979
sg9
(lp980
F0.07803649902343751
aF0.0694122314453125
aF0.0
aF0.0
aF0.0
aF0.0
asg11
I01
sg12
g13
sg14
I01
sg15
g16
sa(dp981
g2
F0.0
sg3
(lp982
F-0.20361914952184132
aF0.5821736506694609
aF0.4375382305854012
aF3.1302019184155396
aF3.5562736625422724e-05
aF-0.00035420093437603964
asg5
I0
sg6
F0.5365638766519824
sg7
(F-0.9663007895099085
F-1.4824431578265589
F-2.0275500456439417
F-1.211745564137594
F1.5773026943206787
F0.604819118976593
tp983
sg9
(lp984
F0.047448730468750006
aF0.09529418945312501
aF0.0
aF0.0
aF0.0
aF0.0
asg11
I01
sg12
g13
sg14
I01
sg15
g16
sa(dp985
g2
F0.0
sg3
(lp986
F-0.19698791483634379
aF0.5905928170217791
aF0.43767156718282024
aF3.1306094507824724
aF0.00034247299802034575
aF-0.00027000770727168323
asg5
I0
sg6
F0.5365638766519824
sg7
(F-0.9833677450763147
F-1.4925459066974085
F-2.0182469526873987
F-1.2105467955218714
F1.5771708488464355
F0.5876681804656982
tp987
sg9
(lp988
F0.019998168945312502
aF0.1
aF0.0
aF0.0
aF0.0
aF0.0
asg11
I01
sg12
g13
sg14
I01
sg15
g16
sa(dp989
g2
F0.0
sg3
(lp990
F-0.19367234881166173
aF0.6008820029755794
aF0.4373773514143609
aF3.1303597311576286
aF0.00015970100236174607
aF-0.00016602511524909869
asg5
I0
sg6
F0.5365638766519824
sg7
(F-0.9972489515887659
F-1.5080183188067835
F-2.004490677510397
F-1.2092278639422815
F1.5770270824432373
F0.5736833810806274
tp991
sg9
(lp992
F0.0121551513671875
aF0.1
aF0.0
aF0.0
aF0.0
aF0.0
asg11
I01
sg12
g13
sg14
I01
sg15
g16
sa(dp993
g2
F0.0
sg3
(lp994
F-0.19232055202141904
aF0.6104994755077049
aF0.43743272789447707
aF3.130617267444498
aF0.00029592462821139017
aF-7.865772762539902e-05
asg5
I0
sg6
F0.5365638766519824
sg7
(F-1.00751239458193
F-1.5231073538409632
F-1.9903023878680628
F-1.2081006209002894
F1.5769076347351074
F0.5633330941200256
tp995
sg9
(lp996
F0.0
aF0.1
aF0.0
aF0.0
aF0.0
aF0.0
asg11
I01
sg12
g13
sg14
I01
sg15
g16
sa(dp997
g2
F0.0
sg3
(lp998
F-0.19179171738783984
aF0.6209680872497721
aF0.43716617261753965
aF3.1304197721577385
aF0.00014767215947504014
aF-0.00030501168681597757
asg5
I0
sg6
F0.5365638766519824
sg7
(F-1.0171058813678187
F-1.5401857534991663
F-1.9744260946856897
F-1.2072013060199183
F1.576799750328064
F0.5539663434028625
tp999
sg9
(lp1000
F0.0
aF0.1
aF0.0
aF0.0
aF0.0
aF0.0
asg11
I01
sg12
g13
sg14
I01
sg15
g16
sa(dp1001
g2
F0.0
sg3
(lp1002
F-0.191656328145731
aF0.6314075284160733
aF0.4372181209689531
aF3.130630011527329
aF0.0002881553736099661
aF-0.0002917800876067417
asg5
I0
sg6
F0.5365638766519824
sg7
(F-1.025872055684225
F-1.557061020527975
F-1.957926098500387
F-1.206625763569967
F1.5767278671264648
F0.5451871156692505
tp1003
sg9
(lp1004
F0.0
aF0.1
aF0.0
aF0.0
aF0.0
aF0.0
asg11
I01
sg12
g13
sg14
I01
sg15
g16
sa(dp1005
g2
F0.0
sg3
(lp1006
F-0.19160075139643704
aF0.6410303037389742
aF0.4367640167966572
aF3.1302487579878173
aF7.601758283264993e-05
aF-0.00017268187213564964
asg5
I0
sg6
F0.5365638766519824
sg7
(F-1.0336325804339808
F-1.5729296843158167
F-1.942911450062887
F-1.2062543074237269
F1.5766679048538208
F0.5373075008392334
tp1007
sg9
(lp1008
F0.0
aF0.1
aF0.0
aF0.0
aF0.0
aF0.0
asg11
I01
sg12
g13
sg14
I01
sg15
g16
sa(dp1009
g2
F0.0
sg3
(lp1010
F-0.1914524530589896
aF0.6514586351914463
aF0.4369882208883551
aF3.130722321281762
aF0.00034959805669952367
aF-0.00012348531651630075
asg5
I0
sg6
F0.5365638766519824
sg7
(F-1.0419195334063929
F-1.5894458929644983
F-1.9258845488177698
F-1.2062667051898401
F1.576583981513977
F0.5289717316627502
tp1011
sg9
(lp1012
F-0.015295410156250001
aF0.1
aF0.0
aF0.0
aF0.0
aF0.0
asg11
I01
sg12
g13
sg14
I01
sg15
g16
sa(dp1013
g2
F0.0
sg3
(lp1014
F-0.19214930372692182
aF0.6610833089265065
aF0.43657844121539663
aF3.1304617004558035
aF0.00019873862183355753
aF-6.592510274275909e-05
asg5
I0
sg6
F0.5365638766519824
sg7
(F-1.0482781569110315
F-1.6054461638080042
F-1.910090748463766
F-1.2063983122455042
F1.5765241384506226
F0.5225556492805481
tp1015
sg9
(lp1016
F-0.0349029541015625
aF0.1
aF0.0
aF0.0
aF0.0
aF0.0
asg11
I01
sg12
g13
sg14
I01
sg15
g16
sa(dp1017
g2
F0.0
sg3
(lp1018
F-0.19442999107644227
aF0.6715615495318444
aF0.43652712829518037
aF3.1307020415937603
aF0.000304176540324504
aF-0.00021418348511519157
asg5
I0
sg6
F0.5365638766519824
sg7
(F-1.053056542073385
F-1.6231606642352503
F-1.8916381041156214
F-1.2069018522845667
F1.5764524936676025
F0.5179259777069092
tp1019
sg9
(lp1020
F-0.05921630859375
aF0.09372558593750001
aF0.0
aF0.0
aF0.0
aF0.0
asg11
I01
sg12
g13
sg14
I01
sg15
g16
sa(dp1021
g2
F0.0
sg3
(lp1022
F-0.19926316837317234
aF0.6809271049952709
aF0.4361217300620063
aF3.1303845292573147
aF6.160405456068548e-05
aF-0.00018897596501882356
asg5
I0
sg6
F0.5365638766519824
sg7
(F-1.0536792914019983
F-1.6404441038714808
F-1.8738191763507288
F-1.207836929951803
F1.576392650604248
F0.5172784924507141
tp1023
sg9
(lp1024
F-0.07960815429687501
aF0.07411804199218751
aF0.0
aF0.0
aF0.0
aF0.0
asg11
I01
sg12
g13
sg14
I01
sg15
g16
sa(dp1025
g2
F0.0
sg3
(lp1026
F-0.20649315930659015
aF0.6896066874806605
aF0.4361295563155574
aF3.130611931702623
aF0.00020128550434223735
aF-0.00020544546014018253
asg5
I0
sg6
F0.5365638766519824
sg7
(F-1.0508411566363733
F-1.6573684851275843
F-1.8554251829730433
F-1.2090237776385706
F1.5764285326004028
F0.5201329588890076
tp1027
sg9
(lp1028
F-0.08980407714843751
aF0.05921630859375
aF0.0
aF0.0
aF0.0
aF0.0
asg11
I01
sg12
g13
sg14
I01
sg15
g16
sa(dp1029
g2
F0.0
sg3
(lp1030
F-0.2154908790115779
aF0.6965411719022709
aF0.43585018423338184
aF3.130475914880472
aF9.798420106704554e-05
aF-9.403569528063292e-05
asg5
I0
sg6
F0.5365638766519824
sg7
(F-1.0447095076190394
F-1.6725905577289026
F-1.83905536333193
F-1.2103069464312952
F1.5764641761779785
F0.5261532068252563
tp1031
sg9
(lp1032
F-0.0960784912109375
aF0.04666748046875
aF0.0
aF0.0
aF0.0
aF0.0
asg11
I01
sg12
g13
sg14
I01
sg15
g16
sa(dp1033
g2
F0.0
sg3
(lp1034
F-0.2243669442932612
aF0.7014913905030998
aF0.4358681139642572
aF3.130641371188098
aF0.00011501128673797066
aF-0.00015276228919069607
asg5
I0
sg6
F0.5365638766519824
sg7
(F-1.0374882856952112
F-1.684516731892721
F-1.8256662527667444
F-1.2115772406207483
F1.5764641761779785
F0.5334336161613464
tp1035
sg9
(lp1036
F-0.1
aF0.037255859375
aF0.0
aF0.0
aF0.0
aF0.0
asg11
I01
sg12
g13
sg14
I01
sg15
g16
sa(dp1037
g2
F0.0
sg3
(lp1038
F-0.2347409624252996
aF0.7057386345542709
aF0.43560536291764695
aF3.130430525183339
aF-2.9388340651618212e-05
aF-0.00010639394340842227
asg5
I0
sg6
F0.5365638766519824
sg7
(F-1.0281708876239222
F-1.6963942686664026
F-1.8126123587237757
F-1.2129557768451136
F1.5765360593795776
F0.5427045226097107
tp1039
sg9
(lp1040
F-0.052941894531250006
aF0.0184326171875
aF0.0
aF0.0
aF0.0
aF0.0
asg11
I01
sg12
g13
sg14
I01
sg15
g16
sa.